Archive member included to satisfy reference by file (symbol)

/usr/lib/gcc/arm-none-eabi/12.2.1/../../../arm-none-eabi/lib/thumb/v7e-m+fp/hard/libc_nano.a(lib_a-atexit.o)
                              /usr/lib/gcc/arm-none-eabi/12.2.1/../../../arm-none-eabi/lib/thumb/v7e-m+fp/hard/crt0.o (atexit)
/usr/lib/gcc/arm-none-eabi/12.2.1/../../../arm-none-eabi/lib/thumb/v7e-m+fp/hard/libc_nano.a(lib_a-exit.o)
                              /usr/lib/gcc/arm-none-eabi/12.2.1/../../../arm-none-eabi/lib/thumb/v7e-m+fp/hard/crt0.o (exit)
/usr/lib/gcc/arm-none-eabi/12.2.1/../../../arm-none-eabi/lib/thumb/v7e-m+fp/hard/libc_nano.a(lib_a-fini.o)
                              /usr/lib/gcc/arm-none-eabi/12.2.1/../../../arm-none-eabi/lib/thumb/v7e-m+fp/hard/crt0.o (__libc_fini_array)
/usr/lib/gcc/arm-none-eabi/12.2.1/../../../arm-none-eabi/lib/thumb/v7e-m+fp/hard/libc_nano.a(lib_a-impure.o)
                              /usr/lib/gcc/arm-none-eabi/12.2.1/../../../arm-none-eabi/lib/thumb/v7e-m+fp/hard/libc_nano.a(lib_a-exit.o) (_global_impure_ptr)
/usr/lib/gcc/arm-none-eabi/12.2.1/../../../arm-none-eabi/lib/thumb/v7e-m+fp/hard/libc_nano.a(lib_a-init.o)
                              /usr/lib/gcc/arm-none-eabi/12.2.1/../../../arm-none-eabi/lib/thumb/v7e-m+fp/hard/crt0.o (__libc_init_array)
/usr/lib/gcc/arm-none-eabi/12.2.1/../../../arm-none-eabi/lib/thumb/v7e-m+fp/hard/libc_nano.a(lib_a-__atexit.o)
                              /usr/lib/gcc/arm-none-eabi/12.2.1/../../../arm-none-eabi/lib/thumb/v7e-m+fp/hard/libc_nano.a(lib_a-atexit.o) (__register_exitproc)
/usr/lib/gcc/arm-none-eabi/12.2.1/../../../arm-none-eabi/lib/thumb/v7e-m+fp/hard/libc_nano.a(lib_a-__call_atexit.o)
                              /usr/lib/gcc/arm-none-eabi/12.2.1/../../../arm-none-eabi/lib/thumb/v7e-m+fp/hard/libc_nano.a(lib_a-__atexit.o) (__call_exitprocs)
/usr/lib/gcc/arm-none-eabi/12.2.1/../../../arm-none-eabi/lib/thumb/v7e-m+fp/hard/libm.a(lib_a-sf_atan.o)
                              build/imu.o (atanf)
/usr/lib/gcc/arm-none-eabi/12.2.1/../../../arm-none-eabi/lib/thumb/v7e-m+fp/hard/libm.a(lib_a-sf_cos.o)
                              build/imu.o (cosf)
/usr/lib/gcc/arm-none-eabi/12.2.1/../../../arm-none-eabi/lib/thumb/v7e-m+fp/hard/libm.a(lib_a-sf_fabs.o)
                              /usr/lib/gcc/arm-none-eabi/12.2.1/../../../arm-none-eabi/lib/thumb/v7e-m+fp/hard/libm.a(lib_a-sf_atan.o) (fabsf)
/usr/lib/gcc/arm-none-eabi/12.2.1/../../../arm-none-eabi/lib/thumb/v7e-m+fp/hard/libm.a(lib_a-sf_sin.o)
                              build/imu.o (sinf)
/usr/lib/gcc/arm-none-eabi/12.2.1/../../../arm-none-eabi/lib/thumb/v7e-m+fp/hard/libm.a(lib_a-w_atan2.o)
                              build/imu.o (atan2)
/usr/lib/gcc/arm-none-eabi/12.2.1/../../../arm-none-eabi/lib/thumb/v7e-m+fp/hard/libm.a(lib_a-w_sqrt.o)
                              build/imu.o (sqrt)
/usr/lib/gcc/arm-none-eabi/12.2.1/../../../arm-none-eabi/lib/thumb/v7e-m+fp/hard/libm.a(lib_a-wf_acos.o)
                              build/imu.o (acosf)
/usr/lib/gcc/arm-none-eabi/12.2.1/../../../arm-none-eabi/lib/thumb/v7e-m+fp/hard/libm.a(lib_a-wf_asin.o)
                              build/madgwick.o (asinf)
/usr/lib/gcc/arm-none-eabi/12.2.1/../../../arm-none-eabi/lib/thumb/v7e-m+fp/hard/libm.a(lib_a-wf_atan2.o)
                              build/imu.o (atan2f)
/usr/lib/gcc/arm-none-eabi/12.2.1/../../../arm-none-eabi/lib/thumb/v7e-m+fp/hard/libm.a(lib_a-wf_fmod.o)
                              build/geom.o (fmodf)
/usr/lib/gcc/arm-none-eabi/12.2.1/../../../arm-none-eabi/lib/thumb/v7e-m+fp/hard/libm.a(lib_a-wf_sqrt.o)
                              build/imu.o (sqrtf)
/usr/lib/gcc/arm-none-eabi/12.2.1/../../../arm-none-eabi/lib/thumb/v7e-m+fp/hard/libm.a(lib_a-e_atan2.o)
                              /usr/lib/gcc/arm-none-eabi/12.2.1/../../../arm-none-eabi/lib/thumb/v7e-m+fp/hard/libm.a(lib_a-w_atan2.o) (__ieee754_atan2)
/usr/lib/gcc/arm-none-eabi/12.2.1/../../../arm-none-eabi/lib/thumb/v7e-m+fp/hard/libm.a(lib_a-e_sqrt.o)
                              /usr/lib/gcc/arm-none-eabi/12.2.1/../../../arm-none-eabi/lib/thumb/v7e-m+fp/hard/libm.a(lib_a-w_sqrt.o) (__ieee754_sqrt)
/usr/lib/gcc/arm-none-eabi/12.2.1/../../../arm-none-eabi/lib/thumb/v7e-m+fp/hard/libm.a(lib_a-ef_acos.o)
                              /usr/lib/gcc/arm-none-eabi/12.2.1/../../../arm-none-eabi/lib/thumb/v7e-m+fp/hard/libm.a(lib_a-wf_acos.o) (__ieee754_acosf)
/usr/lib/gcc/arm-none-eabi/12.2.1/../../../arm-none-eabi/lib/thumb/v7e-m+fp/hard/libm.a(lib_a-ef_asin.o)
                              /usr/lib/gcc/arm-none-eabi/12.2.1/../../../arm-none-eabi/lib/thumb/v7e-m+fp/hard/libm.a(lib_a-wf_asin.o) (__ieee754_asinf)
/usr/lib/gcc/arm-none-eabi/12.2.1/../../../arm-none-eabi/lib/thumb/v7e-m+fp/hard/libm.a(lib_a-ef_atan2.o)
                              /usr/lib/gcc/arm-none-eabi/12.2.1/../../../arm-none-eabi/lib/thumb/v7e-m+fp/hard/libm.a(lib_a-wf_atan2.o) (__ieee754_atan2f)
/usr/lib/gcc/arm-none-eabi/12.2.1/../../../arm-none-eabi/lib/thumb/v7e-m+fp/hard/libm.a(lib_a-ef_fmod.o)
                              /usr/lib/gcc/arm-none-eabi/12.2.1/../../../arm-none-eabi/lib/thumb/v7e-m+fp/hard/libm.a(lib_a-wf_fmod.o) (__ieee754_fmodf)
/usr/lib/gcc/arm-none-eabi/12.2.1/../../../arm-none-eabi/lib/thumb/v7e-m+fp/hard/libm.a(lib_a-ef_rem_pio2.o)
                              /usr/lib/gcc/arm-none-eabi/12.2.1/../../../arm-none-eabi/lib/thumb/v7e-m+fp/hard/libm.a(lib_a-sf_cos.o) (__ieee754_rem_pio2f)
/usr/lib/gcc/arm-none-eabi/12.2.1/../../../arm-none-eabi/lib/thumb/v7e-m+fp/hard/libm.a(lib_a-ef_sqrt.o)
                              /usr/lib/gcc/arm-none-eabi/12.2.1/../../../arm-none-eabi/lib/thumb/v7e-m+fp/hard/libm.a(lib_a-wf_sqrt.o) (__ieee754_sqrtf)
/usr/lib/gcc/arm-none-eabi/12.2.1/../../../arm-none-eabi/lib/thumb/v7e-m+fp/hard/libm.a(lib_a-kf_cos.o)
                              /usr/lib/gcc/arm-none-eabi/12.2.1/../../../arm-none-eabi/lib/thumb/v7e-m+fp/hard/libm.a(lib_a-sf_cos.o) (__kernel_cosf)
/usr/lib/gcc/arm-none-eabi/12.2.1/../../../arm-none-eabi/lib/thumb/v7e-m+fp/hard/libm.a(lib_a-kf_rem_pio2.o)
                              /usr/lib/gcc/arm-none-eabi/12.2.1/../../../arm-none-eabi/lib/thumb/v7e-m+fp/hard/libm.a(lib_a-ef_rem_pio2.o) (__kernel_rem_pio2f)
/usr/lib/gcc/arm-none-eabi/12.2.1/../../../arm-none-eabi/lib/thumb/v7e-m+fp/hard/libm.a(lib_a-kf_sin.o)
                              /usr/lib/gcc/arm-none-eabi/12.2.1/../../../arm-none-eabi/lib/thumb/v7e-m+fp/hard/libm.a(lib_a-sf_cos.o) (__kernel_sinf)
/usr/lib/gcc/arm-none-eabi/12.2.1/../../../arm-none-eabi/lib/thumb/v7e-m+fp/hard/libm.a(lib_a-s_atan.o)
                              /usr/lib/gcc/arm-none-eabi/12.2.1/../../../arm-none-eabi/lib/thumb/v7e-m+fp/hard/libm.a(lib_a-e_atan2.o) (atan)
/usr/lib/gcc/arm-none-eabi/12.2.1/../../../arm-none-eabi/lib/thumb/v7e-m+fp/hard/libm.a(lib_a-s_fabs.o)
                              /usr/lib/gcc/arm-none-eabi/12.2.1/../../../arm-none-eabi/lib/thumb/v7e-m+fp/hard/libm.a(lib_a-e_atan2.o) (fabs)
/usr/lib/gcc/arm-none-eabi/12.2.1/../../../arm-none-eabi/lib/thumb/v7e-m+fp/hard/libm.a(lib_a-s_lib_ver.o)
                              /usr/lib/gcc/arm-none-eabi/12.2.1/../../../arm-none-eabi/lib/thumb/v7e-m+fp/hard/libm.a(lib_a-w_sqrt.o) (__fdlib_version)
/usr/lib/gcc/arm-none-eabi/12.2.1/../../../arm-none-eabi/lib/thumb/v7e-m+fp/hard/libm.a(lib_a-sf_floor.o)
                              /usr/lib/gcc/arm-none-eabi/12.2.1/../../../arm-none-eabi/lib/thumb/v7e-m+fp/hard/libm.a(lib_a-kf_rem_pio2.o) (floorf)
/usr/lib/gcc/arm-none-eabi/12.2.1/../../../arm-none-eabi/lib/thumb/v7e-m+fp/hard/libm.a(lib_a-sf_nan.o)
                              /usr/lib/gcc/arm-none-eabi/12.2.1/../../../arm-none-eabi/lib/thumb/v7e-m+fp/hard/libm.a(lib_a-wf_acos.o) (nanf)
/usr/lib/gcc/arm-none-eabi/12.2.1/../../../arm-none-eabi/lib/thumb/v7e-m+fp/hard/libm.a(lib_a-sf_scalbn.o)
                              /usr/lib/gcc/arm-none-eabi/12.2.1/../../../arm-none-eabi/lib/thumb/v7e-m+fp/hard/libm.a(lib_a-kf_rem_pio2.o) (scalbnf)
/usr/lib/gcc/arm-none-eabi/12.2.1/thumb/v7e-m+fp/hard/libgcc.a(_arm_muldf3.o)
                              build/printf.o (__aeabi_dmul)
/usr/lib/gcc/arm-none-eabi/12.2.1/thumb/v7e-m+fp/hard/libgcc.a(_arm_addsubdf3.o)
                              build/printf.o (__aeabi_dsub)
/usr/lib/gcc/arm-none-eabi/12.2.1/thumb/v7e-m+fp/hard/libgcc.a(_arm_muldivdf3.o)
                              build/printf.o (__aeabi_ddiv)
/usr/lib/gcc/arm-none-eabi/12.2.1/thumb/v7e-m+fp/hard/libgcc.a(_arm_cmpdf2.o)
                              build/printf.o (__aeabi_dcmpeq)
/usr/lib/gcc/arm-none-eabi/12.2.1/thumb/v7e-m+fp/hard/libgcc.a(_arm_unorddf2.o)
                              /usr/lib/gcc/arm-none-eabi/12.2.1/../../../arm-none-eabi/lib/thumb/v7e-m+fp/hard/libm.a(lib_a-w_sqrt.o) (__aeabi_dcmpun)
/usr/lib/gcc/arm-none-eabi/12.2.1/thumb/v7e-m+fp/hard/libgcc.a(_arm_fixdfsi.o)
                              build/printf.o (__aeabi_d2iz)
/usr/lib/gcc/arm-none-eabi/12.2.1/thumb/v7e-m+fp/hard/libgcc.a(_arm_fixunsdfsi.o)
                              build/printf.o (__aeabi_d2uiz)
/usr/lib/gcc/arm-none-eabi/12.2.1/thumb/v7e-m+fp/hard/libgcc.a(_arm_truncdfsf2.o)
                              build/mems.o (__aeabi_d2f)
/usr/lib/gcc/arm-none-eabi/12.2.1/thumb/v7e-m+fp/hard/libgcc.a(_aeabi_uldivmod.o)
                              build/stm32l4xx_hal_uart.o (__aeabi_uldivmod)
/usr/lib/gcc/arm-none-eabi/12.2.1/thumb/v7e-m+fp/hard/libgcc.a(_udivmoddi4.o)
                              /usr/lib/gcc/arm-none-eabi/12.2.1/thumb/v7e-m+fp/hard/libgcc.a(_aeabi_uldivmod.o) (__udivmoddi4)
/usr/lib/gcc/arm-none-eabi/12.2.1/thumb/v7e-m+fp/hard/libgcc.a(_dvmd_tls.o)
                              /usr/lib/gcc/arm-none-eabi/12.2.1/thumb/v7e-m+fp/hard/libgcc.a(_aeabi_uldivmod.o) (__aeabi_ldiv0)

Discarded input sections

 .text          0x00000000        0x0 /usr/lib/gcc/arm-none-eabi/12.2.1/thumb/v7e-m+fp/hard/crti.o
 .data          0x00000000        0x0 /usr/lib/gcc/arm-none-eabi/12.2.1/thumb/v7e-m+fp/hard/crti.o
 .bss           0x00000000        0x0 /usr/lib/gcc/arm-none-eabi/12.2.1/thumb/v7e-m+fp/hard/crti.o
 .data          0x00000000        0x4 /usr/lib/gcc/arm-none-eabi/12.2.1/thumb/v7e-m+fp/hard/crtbegin.o
 .rodata        0x00000000       0x24 /usr/lib/gcc/arm-none-eabi/12.2.1/thumb/v7e-m+fp/hard/crtbegin.o
 .text          0x00000000       0x70 /usr/lib/gcc/arm-none-eabi/12.2.1/../../../arm-none-eabi/lib/thumb/v7e-m+fp/hard/crt0.o
 .data          0x00000000        0x0 /usr/lib/gcc/arm-none-eabi/12.2.1/../../../arm-none-eabi/lib/thumb/v7e-m+fp/hard/crt0.o
 .bss           0x00000000        0x0 /usr/lib/gcc/arm-none-eabi/12.2.1/../../../arm-none-eabi/lib/thumb/v7e-m+fp/hard/crt0.o
 .ARM.extab     0x00000000        0x0 /usr/lib/gcc/arm-none-eabi/12.2.1/../../../arm-none-eabi/lib/thumb/v7e-m+fp/hard/crt0.o
 .ARM.exidx     0x00000000       0x10 /usr/lib/gcc/arm-none-eabi/12.2.1/../../../arm-none-eabi/lib/thumb/v7e-m+fp/hard/crt0.o
 .debug_line    0x00000000       0x75 /usr/lib/gcc/arm-none-eabi/12.2.1/../../../arm-none-eabi/lib/thumb/v7e-m+fp/hard/crt0.o
 .debug_line_str
                0x00000000       0x86 /usr/lib/gcc/arm-none-eabi/12.2.1/../../../arm-none-eabi/lib/thumb/v7e-m+fp/hard/crt0.o
 .debug_info    0x00000000       0x24 /usr/lib/gcc/arm-none-eabi/12.2.1/../../../arm-none-eabi/lib/thumb/v7e-m+fp/hard/crt0.o
 .debug_abbrev  0x00000000       0x14 /usr/lib/gcc/arm-none-eabi/12.2.1/../../../arm-none-eabi/lib/thumb/v7e-m+fp/hard/crt0.o
 .debug_aranges
                0x00000000       0x20 /usr/lib/gcc/arm-none-eabi/12.2.1/../../../arm-none-eabi/lib/thumb/v7e-m+fp/hard/crt0.o
 .debug_str     0x00000000       0x92 /usr/lib/gcc/arm-none-eabi/12.2.1/../../../arm-none-eabi/lib/thumb/v7e-m+fp/hard/crt0.o
 .ARM.attributes
                0x00000000       0x20 /usr/lib/gcc/arm-none-eabi/12.2.1/../../../arm-none-eabi/lib/thumb/v7e-m+fp/hard/crt0.o
 .text          0x00000000        0x0 build/main.o
 .data          0x00000000        0x0 build/main.o
 .bss           0x00000000        0x0 build/main.o
 .text          0x00000000        0x0 build/freertos.o
 .data          0x00000000        0x0 build/freertos.o
 .bss           0x00000000        0x0 build/freertos.o
 .debug_info    0x00000000       0xac build/freertos.o
 .debug_abbrev  0x00000000       0x5f build/freertos.o
 .debug_aranges
                0x00000000       0x18 build/freertos.o
 .debug_line    0x00000000       0xa1 build/freertos.o
 .debug_str     0x00000000      0x185 build/freertos.o
 .comment       0x00000000       0x27 build/freertos.o
 .ARM.attributes
                0x00000000       0x34 build/freertos.o
 .text          0x00000000        0x0 build/stm32l4xx_it.o
 .data          0x00000000        0x0 build/stm32l4xx_it.o
 .bss           0x00000000        0x0 build/stm32l4xx_it.o
 .text          0x00000000        0x0 build/stm32l4xx_hal_msp.o
 .data          0x00000000        0x0 build/stm32l4xx_hal_msp.o
 .bss           0x00000000        0x0 build/stm32l4xx_hal_msp.o
 .text.HAL_ADC_MspDeInit
                0x00000000       0x38 build/stm32l4xx_hal_msp.o
 .text.HAL_SPI_MspDeInit
                0x00000000       0x44 build/stm32l4xx_hal_msp.o
 .text.HAL_TIM_Base_MspDeInit
                0x00000000       0x2c build/stm32l4xx_hal_msp.o
 .text.HAL_UART_MspDeInit
                0x00000000       0xb8 build/stm32l4xx_hal_msp.o
 .text          0x00000000        0x0 build/stm32l4xx_hal_timebase_tim.o
 .data          0x00000000        0x0 build/stm32l4xx_hal_timebase_tim.o
 .bss           0x00000000        0x0 build/stm32l4xx_hal_timebase_tim.o
 .text.HAL_SuspendTick
                0x00000000       0x14 build/stm32l4xx_hal_timebase_tim.o
 .text.HAL_ResumeTick
                0x00000000       0x14 build/stm32l4xx_hal_timebase_tim.o
 .text          0x00000000        0x0 build/stm32l4xx_ll_utils.o
 .data          0x00000000        0x0 build/stm32l4xx_ll_utils.o
 .bss           0x00000000        0x0 build/stm32l4xx_ll_utils.o
 .text.UTILS_GetPLLOutputFrequency
                0x00000000       0x22 build/stm32l4xx_ll_utils.o
 .text.UTILS_PLL_IsBusy
                0x00000000       0x24 build/stm32l4xx_ll_utils.o
 .text.LL_Init1msTick
                0x00000000       0x20 build/stm32l4xx_ll_utils.o
 .text.LL_mDelay
                0x00000000       0x2a build/stm32l4xx_ll_utils.o
 .text.LL_SetSystemCoreClock
                0x00000000        0xc build/stm32l4xx_ll_utils.o
 .text.LL_SetFlashLatency
                0x00000000       0xd0 build/stm32l4xx_ll_utils.o
 .text.UTILS_EnablePLLAndSwitchSystem
                0x00000000       0xb8 build/stm32l4xx_ll_utils.o
 .text.LL_PLL_ConfigSystemClock_MSI
                0x00000000       0xf0 build/stm32l4xx_ll_utils.o
 .text.LL_PLL_ConfigSystemClock_HSI
                0x00000000       0x70 build/stm32l4xx_ll_utils.o
 .text.LL_PLL_ConfigSystemClock_HSE
                0x00000000       0x8c build/stm32l4xx_ll_utils.o
 .debug_info    0x00000000     0x1163 build/stm32l4xx_ll_utils.o
 .debug_abbrev  0x00000000      0x314 build/stm32l4xx_ll_utils.o
 .debug_loc     0x00000000      0x8ff build/stm32l4xx_ll_utils.o
 .debug_aranges
                0x00000000       0x68 build/stm32l4xx_ll_utils.o
 .debug_ranges  0x00000000       0x58 build/stm32l4xx_ll_utils.o
 .debug_line    0x00000000      0x8a8 build/stm32l4xx_ll_utils.o
 .debug_str     0x00000000      0x83c build/stm32l4xx_ll_utils.o
 .comment       0x00000000       0x27 build/stm32l4xx_ll_utils.o
 .debug_frame   0x00000000       0xf4 build/stm32l4xx_ll_utils.o
 .ARM.attributes
                0x00000000       0x34 build/stm32l4xx_ll_utils.o
 .text          0x00000000        0x0 build/stm32l4xx_ll_exti.o
 .data          0x00000000        0x0 build/stm32l4xx_ll_exti.o
 .bss           0x00000000        0x0 build/stm32l4xx_ll_exti.o
 .text.LL_EXTI_DeInit
                0x00000000       0x34 build/stm32l4xx_ll_exti.o
 .text.LL_EXTI_StructInit
                0x00000000       0x10 build/stm32l4xx_ll_exti.o
 .text          0x00000000        0x0 build/stm32l4xx_hal_tim.o
 .data          0x00000000        0x0 build/stm32l4xx_hal_tim.o
 .bss           0x00000000        0x0 build/stm32l4xx_hal_tim.o
 .text.TIM_OC1_SetConfig
                0x00000000       0x7c build/stm32l4xx_hal_tim.o
 .text.TIM_OC3_SetConfig
                0x00000000       0x70 build/stm32l4xx_hal_tim.o
 .text.TIM_OC4_SetConfig
                0x00000000       0x5c build/stm32l4xx_hal_tim.o
 .text.TIM_OC5_SetConfig
                0x00000000       0x58 build/stm32l4xx_hal_tim.o
 .text.TIM_OC6_SetConfig
                0x00000000       0x5c build/stm32l4xx_hal_tim.o
 .text.TIM_TI2_SetConfig
                0x00000000       0x36 build/stm32l4xx_hal_tim.o
 .text.TIM_TI3_SetConfig
                0x00000000       0x36 build/stm32l4xx_hal_tim.o
 .text.TIM_TI4_SetConfig
                0x00000000       0x36 build/stm32l4xx_hal_tim.o
 .text.HAL_TIM_Base_MspInit
                0x00000000        0x2 build/stm32l4xx_hal_tim.o
 .text.HAL_TIM_Base_MspDeInit
                0x00000000        0x2 build/stm32l4xx_hal_tim.o
 .text.HAL_TIM_Base_DeInit
                0x00000000       0x66 build/stm32l4xx_hal_tim.o
 .text.HAL_TIM_Base_Stop
                0x00000000       0x28 build/stm32l4xx_hal_tim.o
 .text.HAL_TIM_Base_Stop_IT
                0x00000000       0x32 build/stm32l4xx_hal_tim.o
 .text.HAL_TIM_Base_Start_DMA
                0x00000000       0xbc build/stm32l4xx_hal_tim.o
 .text.HAL_TIM_Base_Stop_DMA
                0x00000000       0x3c build/stm32l4xx_hal_tim.o
 .text.HAL_TIM_OC_MspInit
                0x00000000        0x2 build/stm32l4xx_hal_tim.o
 .text.HAL_TIM_OC_MspDeInit
                0x00000000        0x2 build/stm32l4xx_hal_tim.o
 .text.HAL_TIM_OC_DeInit
                0x00000000       0x66 build/stm32l4xx_hal_tim.o
 .text.HAL_TIM_PWM_MspInit
                0x00000000        0x2 build/stm32l4xx_hal_tim.o
 .text.HAL_TIM_PWM_MspDeInit
                0x00000000        0x2 build/stm32l4xx_hal_tim.o
 .text.HAL_TIM_PWM_DeInit
                0x00000000       0x66 build/stm32l4xx_hal_tim.o
 .text.HAL_TIM_IC_MspInit
                0x00000000        0x2 build/stm32l4xx_hal_tim.o
 .text.HAL_TIM_IC_MspDeInit
                0x00000000        0x2 build/stm32l4xx_hal_tim.o
 .text.HAL_TIM_IC_DeInit
                0x00000000       0x66 build/stm32l4xx_hal_tim.o
 .text.HAL_TIM_OnePulse_MspInit
                0x00000000        0x2 build/stm32l4xx_hal_tim.o
 .text.HAL_TIM_OnePulse_MspDeInit
                0x00000000        0x2 build/stm32l4xx_hal_tim.o
 .text.HAL_TIM_OnePulse_DeInit
                0x00000000       0x4e build/stm32l4xx_hal_tim.o
 .text.HAL_TIM_Encoder_MspInit
                0x00000000        0x2 build/stm32l4xx_hal_tim.o
 .text.HAL_TIM_Encoder_MspDeInit
                0x00000000        0x2 build/stm32l4xx_hal_tim.o
 .text.HAL_TIM_Encoder_DeInit
                0x00000000       0x4e build/stm32l4xx_hal_tim.o
 .text.HAL_TIM_DMABurst_MultiWriteStart
                0x00000000      0x1a8 build/stm32l4xx_hal_tim.o
 .text.HAL_TIM_DMABurst_WriteStart
                0x00000000       0x16 build/stm32l4xx_hal_tim.o
 .text.HAL_TIM_DMABurst_WriteStop
                0x00000000       0x84 build/stm32l4xx_hal_tim.o
 .text.HAL_TIM_DMABurst_MultiReadStart
                0x00000000      0x1a8 build/stm32l4xx_hal_tim.o
 .text.HAL_TIM_DMABurst_ReadStart
                0x00000000       0x16 build/stm32l4xx_hal_tim.o
 .text.HAL_TIM_DMABurst_ReadStop
                0x00000000       0x84 build/stm32l4xx_hal_tim.o
 .text.HAL_TIM_GenerateEvent
                0x00000000       0x2a build/stm32l4xx_hal_tim.o
 .text.HAL_TIM_ConfigTI1Input
                0x00000000       0x10 build/stm32l4xx_hal_tim.o
 .text.HAL_TIM_ReadCapturedValue
                0x00000000       0x32 build/stm32l4xx_hal_tim.o
 .text.HAL_TIM_PeriodElapsedCallback
                0x00000000        0x2 build/stm32l4xx_hal_tim.o
 .text.TIM_DMAPeriodElapsedCplt
                0x00000000       0x16 build/stm32l4xx_hal_tim.o
 .text.HAL_TIM_PeriodElapsedHalfCpltCallback
                0x00000000        0x2 build/stm32l4xx_hal_tim.o
 .text.TIM_DMAPeriodElapsedHalfCplt
                0x00000000        0xa build/stm32l4xx_hal_tim.o
 .text.TIM_DMACaptureCplt
                0x00000000       0x80 build/stm32l4xx_hal_tim.o
 .text.HAL_TIM_IC_CaptureHalfCpltCallback
                0x00000000        0x2 build/stm32l4xx_hal_tim.o
 .text.TIM_DMACaptureHalfCplt
                0x00000000       0x3e build/stm32l4xx_hal_tim.o
 .text.TIM_DMADelayPulseCplt
                0x00000000       0x70 build/stm32l4xx_hal_tim.o
 .text.HAL_TIM_PWM_PulseFinishedHalfCpltCallback
                0x00000000        0x2 build/stm32l4xx_hal_tim.o
 .text.TIM_DMADelayPulseHalfCplt
                0x00000000       0x3e build/stm32l4xx_hal_tim.o
 .text.TIM_DMATriggerCplt
                0x00000000       0x16 build/stm32l4xx_hal_tim.o
 .text.HAL_TIM_TriggerHalfCpltCallback
                0x00000000        0x2 build/stm32l4xx_hal_tim.o
 .text.TIM_DMATriggerHalfCplt
                0x00000000        0xa build/stm32l4xx_hal_tim.o
 .text.HAL_TIM_ErrorCallback
                0x00000000        0x2 build/stm32l4xx_hal_tim.o
 .text.TIM_DMAError
                0x00000000       0x5c build/stm32l4xx_hal_tim.o
 .text.HAL_TIM_Base_GetState
                0x00000000        0x6 build/stm32l4xx_hal_tim.o
 .text.HAL_TIM_OC_GetState
                0x00000000        0x6 build/stm32l4xx_hal_tim.o
 .text.HAL_TIM_PWM_GetState
                0x00000000        0x6 build/stm32l4xx_hal_tim.o
 .text.HAL_TIM_IC_GetState
                0x00000000        0x6 build/stm32l4xx_hal_tim.o
 .text.HAL_TIM_OnePulse_GetState
                0x00000000        0x6 build/stm32l4xx_hal_tim.o
 .text.HAL_TIM_Encoder_GetState
                0x00000000        0x6 build/stm32l4xx_hal_tim.o
 .text.HAL_TIM_GetActiveChannel
                0x00000000        0x4 build/stm32l4xx_hal_tim.o
 .text.HAL_TIM_GetChannelState
                0x00000000       0x4a build/stm32l4xx_hal_tim.o
 .text.HAL_TIM_DMABurstState
                0x00000000        0x6 build/stm32l4xx_hal_tim.o
 .text.HAL_TIM_OC_Init
                0x00000000       0x60 build/stm32l4xx_hal_tim.o
 .text.HAL_TIM_PWM_Init
                0x00000000       0x60 build/stm32l4xx_hal_tim.o
 .text.HAL_TIM_IC_Init
                0x00000000       0x60 build/stm32l4xx_hal_tim.o
 .text.HAL_TIM_OnePulse_Init
                0x00000000       0x5c build/stm32l4xx_hal_tim.o
 .text.HAL_TIM_Encoder_Init
                0x00000000       0xb0 build/stm32l4xx_hal_tim.o
 .text.TIM_OC2_SetConfig
                0x00000000       0x74 build/stm32l4xx_hal_tim.o
 .text.HAL_TIM_OC_ConfigChannel
                0x00000000       0x7a build/stm32l4xx_hal_tim.o
 .text.HAL_TIM_PWM_ConfigChannel
                0x00000000      0x13a build/stm32l4xx_hal_tim.o
 .text.TIM_TI1_SetConfig
                0x00000000       0x58 build/stm32l4xx_hal_tim.o
 .text.HAL_TIM_IC_ConfigChannel
                0x00000000       0xc4 build/stm32l4xx_hal_tim.o
 .text.HAL_TIM_OnePulse_ConfigChannel
                0x00000000      0x102 build/stm32l4xx_hal_tim.o
 .text.HAL_TIM_ConfigOCrefClear
                0x00000000      0x164 build/stm32l4xx_hal_tim.o
 .text.TIM_SlaveTimer_SetConfig
                0x00000000       0xbc build/stm32l4xx_hal_tim.o
 .text.HAL_TIM_SlaveConfigSynchro
                0x00000000       0x52 build/stm32l4xx_hal_tim.o
 .text.HAL_TIM_SlaveConfigSynchro_IT
                0x00000000       0x52 build/stm32l4xx_hal_tim.o
 .text.TIM_CCxChannelCmd
                0x00000000       0x1e build/stm32l4xx_hal_tim.o
 .text.HAL_TIM_OC_Start
                0x00000000      0x140 build/stm32l4xx_hal_tim.o
 .text.HAL_TIM_OC_Stop
                0x00000000       0xb4 build/stm32l4xx_hal_tim.o
 .text.HAL_TIM_OC_Start_IT
                0x00000000      0x1ac build/stm32l4xx_hal_tim.o
 .text.HAL_TIM_OC_Stop_IT
                0x00000000      0x108 build/stm32l4xx_hal_tim.o
 .text.HAL_TIM_OC_Start_DMA
                0x00000000      0x304 build/stm32l4xx_hal_tim.o
 .text.HAL_TIM_OC_Stop_DMA
                0x00000000      0x124 build/stm32l4xx_hal_tim.o
 .text.HAL_TIM_PWM_Start
                0x00000000      0x140 build/stm32l4xx_hal_tim.o
 .text.HAL_TIM_PWM_Stop
                0x00000000       0xb4 build/stm32l4xx_hal_tim.o
 .text.HAL_TIM_PWM_Start_IT
                0x00000000      0x1ac build/stm32l4xx_hal_tim.o
 .text.HAL_TIM_PWM_Stop_IT
                0x00000000      0x108 build/stm32l4xx_hal_tim.o
 .text.HAL_TIM_PWM_Start_DMA
                0x00000000      0x304 build/stm32l4xx_hal_tim.o
 .text.HAL_TIM_PWM_Stop_DMA
                0x00000000      0x124 build/stm32l4xx_hal_tim.o
 .text.HAL_TIM_IC_Start
                0x00000000      0x14c build/stm32l4xx_hal_tim.o
 .text.HAL_TIM_IC_Stop
                0x00000000       0x9a build/stm32l4xx_hal_tim.o
 .text.HAL_TIM_IC_Start_IT
                0x00000000      0x190 build/stm32l4xx_hal_tim.o
 .text.HAL_TIM_IC_Stop_IT
                0x00000000       0xea build/stm32l4xx_hal_tim.o
 .text.HAL_TIM_IC_Start_DMA
                0x00000000      0x280 build/stm32l4xx_hal_tim.o
 .text.HAL_TIM_IC_Stop_DMA
                0x00000000      0x100 build/stm32l4xx_hal_tim.o
 .text.HAL_TIM_OnePulse_Start
                0x00000000       0x88 build/stm32l4xx_hal_tim.o
 .text.HAL_TIM_OnePulse_Stop
                0x00000000       0x88 build/stm32l4xx_hal_tim.o
 .text.HAL_TIM_OnePulse_Start_IT
                0x00000000       0xa0 build/stm32l4xx_hal_tim.o
 .text.HAL_TIM_OnePulse_Stop_IT
                0x00000000       0x9c build/stm32l4xx_hal_tim.o
 .text.HAL_TIM_Encoder_Start
                0x00000000       0xcc build/stm32l4xx_hal_tim.o
 .text.HAL_TIM_Encoder_Stop
                0x00000000       0x8a build/stm32l4xx_hal_tim.o
 .text.HAL_TIM_Encoder_Start_IT
                0x00000000       0xf6 build/stm32l4xx_hal_tim.o
 .text.HAL_TIM_Encoder_Stop_IT
                0x00000000       0xb4 build/stm32l4xx_hal_tim.o
 .text.HAL_TIM_Encoder_Start_DMA
                0x00000000      0x264 build/stm32l4xx_hal_tim.o
 .text.HAL_TIM_Encoder_Stop_DMA
                0x00000000       0xcc build/stm32l4xx_hal_tim.o
 .text          0x00000000        0x0 build/stm32l4xx_hal_tim_ex.o
 .data          0x00000000        0x0 build/stm32l4xx_hal_tim_ex.o
 .bss           0x00000000        0x0 build/stm32l4xx_hal_tim_ex.o
 .text.TIM_CCxNChannelCmd
                0x00000000       0x1e build/stm32l4xx_hal_tim_ex.o
 .text.TIM_DMAErrorCCxN
                0x00000000       0x44 build/stm32l4xx_hal_tim_ex.o
 .text.TIM_DMADelayPulseNCplt
                0x00000000       0x58 build/stm32l4xx_hal_tim_ex.o
 .text.HAL_TIMEx_HallSensor_MspInit
                0x00000000        0x2 build/stm32l4xx_hal_tim_ex.o
 .text.HAL_TIMEx_HallSensor_Init
                0x00000000       0xd8 build/stm32l4xx_hal_tim_ex.o
 .text.HAL_TIMEx_HallSensor_MspDeInit
                0x00000000        0x2 build/stm32l4xx_hal_tim_ex.o
 .text.HAL_TIMEx_HallSensor_DeInit
                0x00000000       0x4e build/stm32l4xx_hal_tim_ex.o
 .text.HAL_TIMEx_HallSensor_Start
                0x00000000       0xa8 build/stm32l4xx_hal_tim_ex.o
 .text.HAL_TIMEx_HallSensor_Stop
                0x00000000       0x42 build/stm32l4xx_hal_tim_ex.o
 .text.HAL_TIMEx_HallSensor_Start_IT
                0x00000000       0xb4 build/stm32l4xx_hal_tim_ex.o
 .text.HAL_TIMEx_HallSensor_Stop_IT
                0x00000000       0x4c build/stm32l4xx_hal_tim_ex.o
 .text.HAL_TIMEx_HallSensor_Start_DMA
                0x00000000       0xd8 build/stm32l4xx_hal_tim_ex.o
 .text.HAL_TIMEx_HallSensor_Stop_DMA
                0x00000000       0x4a build/stm32l4xx_hal_tim_ex.o
 .text.HAL_TIMEx_OCN_Start
                0x00000000       0xe4 build/stm32l4xx_hal_tim_ex.o
 .text.HAL_TIMEx_OCN_Stop
                0x00000000       0x76 build/stm32l4xx_hal_tim_ex.o
 .text.HAL_TIMEx_OCN_Start_IT
                0x00000000      0x11c build/stm32l4xx_hal_tim_ex.o
 .text.HAL_TIMEx_OCN_Stop_IT
                0x00000000       0xc2 build/stm32l4xx_hal_tim_ex.o
 .text.HAL_TIMEx_OCN_Start_DMA
                0x00000000      0x208 build/stm32l4xx_hal_tim_ex.o
 .text.HAL_TIMEx_OCN_Stop_DMA
                0x00000000       0xc0 build/stm32l4xx_hal_tim_ex.o
 .text.HAL_TIMEx_PWMN_Start
                0x00000000       0xe4 build/stm32l4xx_hal_tim_ex.o
 .text.HAL_TIMEx_PWMN_Stop
                0x00000000       0x76 build/stm32l4xx_hal_tim_ex.o
 .text.HAL_TIMEx_PWMN_Start_IT
                0x00000000      0x11c build/stm32l4xx_hal_tim_ex.o
 .text.HAL_TIMEx_PWMN_Stop_IT
                0x00000000       0xc2 build/stm32l4xx_hal_tim_ex.o
 .text.HAL_TIMEx_PWMN_Start_DMA
                0x00000000      0x208 build/stm32l4xx_hal_tim_ex.o
 .text.HAL_TIMEx_PWMN_Stop_DMA
                0x00000000       0xc0 build/stm32l4xx_hal_tim_ex.o
 .text.HAL_TIMEx_OnePulseN_Start
                0x00000000       0x7a build/stm32l4xx_hal_tim_ex.o
 .text.HAL_TIMEx_OnePulseN_Stop
                0x00000000       0x72 build/stm32l4xx_hal_tim_ex.o
 .text.HAL_TIMEx_OnePulseN_Start_IT
                0x00000000       0x8e build/stm32l4xx_hal_tim_ex.o
 .text.HAL_TIMEx_OnePulseN_Stop_IT
                0x00000000       0x86 build/stm32l4xx_hal_tim_ex.o
 .text.HAL_TIMEx_ConfigCommutEvent
                0x00000000       0x72 build/stm32l4xx_hal_tim_ex.o
 .text.HAL_TIMEx_ConfigCommutEvent_IT
                0x00000000       0x72 build/stm32l4xx_hal_tim_ex.o
 .text.HAL_TIMEx_ConfigCommutEvent_DMA
                0x00000000       0x90 build/stm32l4xx_hal_tim_ex.o
 .text.HAL_TIMEx_ConfigBreakDeadTime
                0x00000000       0x88 build/stm32l4xx_hal_tim_ex.o
 .text.HAL_TIMEx_ConfigBreakInput
                0x00000000       0xce build/stm32l4xx_hal_tim_ex.o
 .text.HAL_TIMEx_RemapConfig
                0x00000000       0x50 build/stm32l4xx_hal_tim_ex.o
 .text.HAL_TIMEx_GroupChannel5
                0x00000000       0x3e build/stm32l4xx_hal_tim_ex.o
 .text.TIMEx_DMACommutationCplt
                0x00000000       0x10 build/stm32l4xx_hal_tim_ex.o
 .text.HAL_TIMEx_CommutHalfCpltCallback
                0x00000000        0x2 build/stm32l4xx_hal_tim_ex.o
 .text.TIMEx_DMACommutationHalfCplt
                0x00000000       0x10 build/stm32l4xx_hal_tim_ex.o
 .text.HAL_TIMEx_HallSensor_GetState
                0x00000000        0x6 build/stm32l4xx_hal_tim_ex.o
 .text.HAL_TIMEx_GetChannelNState
                0x00000000       0x2a build/stm32l4xx_hal_tim_ex.o
 .text          0x00000000        0x0 build/stm32l4xx_ll_gpio.o
 .data          0x00000000        0x0 build/stm32l4xx_ll_gpio.o
 .bss           0x00000000        0x0 build/stm32l4xx_ll_gpio.o
 .text.LL_GPIO_DeInit
                0x00000000       0xe4 build/stm32l4xx_ll_gpio.o
 .text.LL_GPIO_StructInit
                0x00000000       0x16 build/stm32l4xx_ll_gpio.o
 .text          0x00000000        0x0 build/stm32l4xx_hal_adc.o
 .data          0x00000000        0x0 build/stm32l4xx_hal_adc.o
 .bss           0x00000000        0x0 build/stm32l4xx_hal_adc.o
 .text.LL_ADC_SetAnalogWDMonitChannels
                0x00000000       0x30 build/stm32l4xx_hal_adc.o
 .text.HAL_ADC_MspInit
                0x00000000        0x2 build/stm32l4xx_hal_adc.o
 .text.HAL_ADC_MspDeInit
                0x00000000        0x2 build/stm32l4xx_hal_adc.o
 .text.HAL_ADC_PollForConversion
                0x00000000       0xb4 build/stm32l4xx_hal_adc.o
 .text.HAL_ADC_PollForEvent
                0x00000000       0xe8 build/stm32l4xx_hal_adc.o
 .text.HAL_ADC_GetValue
                0x00000000        0x6 build/stm32l4xx_hal_adc.o
 .text.HAL_ADC_ConvCpltCallback
                0x00000000        0x2 build/stm32l4xx_hal_adc.o
 .text.HAL_ADC_AnalogWDGConfig
                0x00000000      0x308 build/stm32l4xx_hal_adc.o
 .text.HAL_ADC_GetState
                0x00000000        0x4 build/stm32l4xx_hal_adc.o
 .text.HAL_ADC_GetError
                0x00000000        0x4 build/stm32l4xx_hal_adc.o
 .text.ADC_ConversionStop
                0x00000000      0x104 build/stm32l4xx_hal_adc.o
 .text.HAL_ADC_Start
                0x00000000       0x8c build/stm32l4xx_hal_adc.o
 .text.HAL_ADC_Start_IT
                0x00000000       0xf0 build/stm32l4xx_hal_adc.o
 .text.ADC_Disable
                0x00000000       0x94 build/stm32l4xx_hal_adc.o
 .text.HAL_ADC_DeInit
                0x00000000      0x188 build/stm32l4xx_hal_adc.o
 .text.HAL_ADC_Stop
                0x00000000       0x42 build/stm32l4xx_hal_adc.o
 .text.HAL_ADC_Stop_IT
                0x00000000       0x4c build/stm32l4xx_hal_adc.o
 .text.HAL_ADC_Stop_DMA
                0x00000000       0x82 build/stm32l4xx_hal_adc.o
 .text          0x00000000        0x0 build/stm32l4xx_hal_adc_ex.o
 .data          0x00000000        0x0 build/stm32l4xx_hal_adc_ex.o
 .bss           0x00000000        0x0 build/stm32l4xx_hal_adc_ex.o
 .text.LL_ADC_SetCalibrationFactor
                0x00000000       0x26 build/stm32l4xx_hal_adc_ex.o
 .text.LL_ADC_SetChannelSamplingTime
                0x00000000       0x2c build/stm32l4xx_hal_adc_ex.o
 .text.HAL_ADCEx_Calibration_Start
                0x00000000       0x98 build/stm32l4xx_hal_adc_ex.o
 .text.HAL_ADCEx_Calibration_GetValue
                0x00000000       0x16 build/stm32l4xx_hal_adc_ex.o
 .text.HAL_ADCEx_Calibration_SetValue
                0x00000000       0x5a build/stm32l4xx_hal_adc_ex.o
 .text.HAL_ADCEx_InjectedStart
                0x00000000       0x9c build/stm32l4xx_hal_adc_ex.o
 .text.HAL_ADCEx_InjectedStop
                0x00000000       0x54 build/stm32l4xx_hal_adc_ex.o
 .text.HAL_ADCEx_InjectedPollForConversion
                0x00000000       0xc8 build/stm32l4xx_hal_adc_ex.o
 .text.HAL_ADCEx_InjectedStart_IT
                0x00000000       0xe0 build/stm32l4xx_hal_adc_ex.o
 .text.HAL_ADCEx_InjectedStop_IT
                0x00000000       0x5e build/stm32l4xx_hal_adc_ex.o
 .text.HAL_ADCEx_InjectedGetValue
                0x00000000       0x34 build/stm32l4xx_hal_adc_ex.o
 .text.HAL_ADCEx_RegularStop
                0x00000000       0x5a build/stm32l4xx_hal_adc_ex.o
 .text.HAL_ADCEx_RegularStop_IT
                0x00000000       0x64 build/stm32l4xx_hal_adc_ex.o
 .text.HAL_ADCEx_RegularStop_DMA
                0x00000000       0x92 build/stm32l4xx_hal_adc_ex.o
 .text.HAL_ADCEx_InjectedConfigChannel
                0x00000000      0x574 build/stm32l4xx_hal_adc_ex.o
 .text.HAL_ADCEx_EnableInjectedQueue
                0x00000000       0x36 build/stm32l4xx_hal_adc_ex.o
 .text.HAL_ADCEx_DisableInjectedQueue
                0x00000000       0x36 build/stm32l4xx_hal_adc_ex.o
 .text.HAL_ADCEx_DisableVoltageRegulator
                0x00000000       0x1e build/stm32l4xx_hal_adc_ex.o
 .text.HAL_ADCEx_EnterADCDeepPowerDownMode
                0x00000000       0x22 build/stm32l4xx_hal_adc_ex.o
 .text          0x00000000        0x0 build/stm32l4xx_hal.o
 .data          0x00000000        0x0 build/stm32l4xx_hal.o
 .bss           0x00000000        0x0 build/stm32l4xx_hal.o
 .text.HAL_MspInit
                0x00000000        0x2 build/stm32l4xx_hal.o
 .text.HAL_MspDeInit
                0x00000000        0x2 build/stm32l4xx_hal.o
 .text.HAL_DeInit
                0x00000000       0x30 build/stm32l4xx_hal.o
 .text.HAL_InitTick
                0x00000000       0x50 build/stm32l4xx_hal.o
 .text.HAL_GetTickPrio
                0x00000000        0xc build/stm32l4xx_hal.o
 .text.HAL_SetTickFreq
                0x00000000       0x2c build/stm32l4xx_hal.o
 .text.HAL_GetTickFreq
                0x00000000        0xc build/stm32l4xx_hal.o
 .text.HAL_Delay
                0x00000000       0x28 build/stm32l4xx_hal.o
 .text.HAL_SuspendTick
                0x00000000        0xe build/stm32l4xx_hal.o
 .text.HAL_ResumeTick
                0x00000000        0xe build/stm32l4xx_hal.o
 .text.HAL_GetHalVersion
                0x00000000        0x8 build/stm32l4xx_hal.o
 .text.HAL_GetREVID
                0x00000000        0xc build/stm32l4xx_hal.o
 .text.HAL_GetDEVID
                0x00000000       0x10 build/stm32l4xx_hal.o
 .text.HAL_GetUIDw0
                0x00000000        0xc build/stm32l4xx_hal.o
 .text.HAL_GetUIDw1
                0x00000000        0xc build/stm32l4xx_hal.o
 .text.HAL_GetUIDw2
                0x00000000        0xc build/stm32l4xx_hal.o
 .text.HAL_DBGMCU_EnableDBGSleepMode
                0x00000000       0x10 build/stm32l4xx_hal.o
 .text.HAL_DBGMCU_DisableDBGSleepMode
                0x00000000       0x10 build/stm32l4xx_hal.o
 .text.HAL_DBGMCU_EnableDBGStopMode
                0x00000000       0x10 build/stm32l4xx_hal.o
 .text.HAL_DBGMCU_DisableDBGStopMode
                0x00000000       0x10 build/stm32l4xx_hal.o
 .text.HAL_DBGMCU_EnableDBGStandbyMode
                0x00000000       0x10 build/stm32l4xx_hal.o
 .text.HAL_DBGMCU_DisableDBGStandbyMode
                0x00000000       0x10 build/stm32l4xx_hal.o
 .text.HAL_SYSCFG_SRAM2Erase
                0x00000000       0x1c build/stm32l4xx_hal.o
 .text.HAL_SYSCFG_EnableMemorySwappingBank
                0x00000000        0xc build/stm32l4xx_hal.o
 .text.HAL_SYSCFG_DisableMemorySwappingBank
                0x00000000        0xc build/stm32l4xx_hal.o
 .text.HAL_SYSCFG_VREFBUF_VoltageScalingConfig
                0x00000000       0x14 build/stm32l4xx_hal.o
 .text.HAL_SYSCFG_VREFBUF_HighImpedanceConfig
                0x00000000       0x14 build/stm32l4xx_hal.o
 .text.HAL_SYSCFG_VREFBUF_TrimmingConfig
                0x00000000       0x14 build/stm32l4xx_hal.o
 .text.HAL_SYSCFG_EnableVREFBUF
                0x00000000       0x34 build/stm32l4xx_hal.o
 .text.HAL_SYSCFG_DisableVREFBUF
                0x00000000       0x10 build/stm32l4xx_hal.o
 .text.HAL_SYSCFG_EnableIOAnalogSwitchBooster
                0x00000000       0x10 build/stm32l4xx_hal.o
 .text.HAL_SYSCFG_DisableIOAnalogSwitchBooster
                0x00000000       0x10 build/stm32l4xx_hal.o
 .text          0x00000000        0x0 build/stm32l4xx_hal_rcc.o
 .data          0x00000000        0x0 build/stm32l4xx_hal_rcc.o
 .bss           0x00000000        0x0 build/stm32l4xx_hal_rcc.o
 .text.HAL_RCC_DeInit
                0x00000000       0xe8 build/stm32l4xx_hal_rcc.o
 .text.HAL_RCC_GetOscConfig
                0x00000000      0x118 build/stm32l4xx_hal_rcc.o
 .text.HAL_RCC_EnableCSS
                0x00000000       0x10 build/stm32l4xx_hal_rcc.o
 .text.HAL_RCC_CSSCallback
                0x00000000        0x2 build/stm32l4xx_hal_rcc.o
 .text.HAL_RCC_NMI_IRQHandler
                0x00000000       0x20 build/stm32l4xx_hal_rcc.o
 .text.HAL_RCC_GetResetSource
                0x00000000       0x1c build/stm32l4xx_hal_rcc.o
 .text          0x00000000        0x0 build/stm32l4xx_hal_rcc_ex.o
 .data          0x00000000        0x0 build/stm32l4xx_hal_rcc_ex.o
 .bss           0x00000000        0x0 build/stm32l4xx_hal_rcc_ex.o
 .text.RCCEx_GetSAIxPeriphCLKFreq
                0x00000000       0xf0 build/stm32l4xx_hal_rcc_ex.o
 .text.HAL_RCCEx_GetPeriphCLKConfig
                0x00000000      0x104 build/stm32l4xx_hal_rcc_ex.o
 .text.HAL_RCCEx_GetPeriphCLKFreq
                0x00000000      0x690 build/stm32l4xx_hal_rcc_ex.o
 .text.HAL_RCCEx_EnablePLLSAI1
                0x00000000       0x94 build/stm32l4xx_hal_rcc_ex.o
 .text.HAL_RCCEx_DisablePLLSAI1
                0x00000000       0x50 build/stm32l4xx_hal_rcc_ex.o
 .text.HAL_RCCEx_WakeUpStopCLKConfig
                0x00000000       0x14 build/stm32l4xx_hal_rcc_ex.o
 .text.HAL_RCCEx_StandbyMSIRangeConfig
                0x00000000       0x18 build/stm32l4xx_hal_rcc_ex.o
 .text.HAL_RCCEx_EnableLSECSS
                0x00000000       0x14 build/stm32l4xx_hal_rcc_ex.o
 .text.HAL_RCCEx_DisableLSECSS
                0x00000000       0x1c build/stm32l4xx_hal_rcc_ex.o
 .text.HAL_RCCEx_EnableLSECSS_IT
                0x00000000       0x30 build/stm32l4xx_hal_rcc_ex.o
 .text.HAL_RCCEx_LSECSS_Callback
                0x00000000        0x2 build/stm32l4xx_hal_rcc_ex.o
 .text.HAL_RCCEx_LSECSS_IRQHandler
                0x00000000       0x20 build/stm32l4xx_hal_rcc_ex.o
 .text.HAL_RCCEx_EnableLSCO
                0x00000000       0xa0 build/stm32l4xx_hal_rcc_ex.o
 .text.HAL_RCCEx_DisableLSCO
                0x00000000       0x6c build/stm32l4xx_hal_rcc_ex.o
 .text.HAL_RCCEx_EnableMSIPLLMode
                0x00000000       0x10 build/stm32l4xx_hal_rcc_ex.o
 .text.HAL_RCCEx_DisableMSIPLLMode
                0x00000000       0x10 build/stm32l4xx_hal_rcc_ex.o
 .text.HAL_RCCEx_CRSConfig
                0x00000000       0x4c build/stm32l4xx_hal_rcc_ex.o
 .text.HAL_RCCEx_CRSSoftwareSynchronizationGenerate
                0x00000000       0x10 build/stm32l4xx_hal_rcc_ex.o
 .text.HAL_RCCEx_CRSGetSynchronizationInfo
                0x00000000       0x24 build/stm32l4xx_hal_rcc_ex.o
 .text.HAL_RCCEx_CRSWaitSynchronization
                0x00000000       0xac build/stm32l4xx_hal_rcc_ex.o
 .text.HAL_RCCEx_CRS_SyncOkCallback
                0x00000000        0x2 build/stm32l4xx_hal_rcc_ex.o
 .text.HAL_RCCEx_CRS_SyncWarnCallback
                0x00000000        0x2 build/stm32l4xx_hal_rcc_ex.o
 .text.HAL_RCCEx_CRS_ExpectedSyncCallback
                0x00000000        0x2 build/stm32l4xx_hal_rcc_ex.o
 .text.HAL_RCCEx_CRS_ErrorCallback
                0x00000000        0x2 build/stm32l4xx_hal_rcc_ex.o
 .text.HAL_RCCEx_CRS_IRQHandler
                0x00000000       0x88 build/stm32l4xx_hal_rcc_ex.o
 .text          0x00000000        0x0 build/stm32l4xx_hal_flash.o
 .data          0x00000000        0x0 build/stm32l4xx_hal_flash.o
 .bss           0x00000000        0x0 build/stm32l4xx_hal_flash.o
 .text.FLASH_Program_DoubleWord
                0x00000000       0x20 build/stm32l4xx_hal_flash.o
 .text.FLASH_Program_Fast
                0x00000000       0x2c build/stm32l4xx_hal_flash.o
 .text.HAL_FLASH_Program_IT
                0x00000000       0x84 build/stm32l4xx_hal_flash.o
 .text.HAL_FLASH_EndOfOperationCallback
                0x00000000        0x2 build/stm32l4xx_hal_flash.o
 .text.HAL_FLASH_OperationErrorCallback
                0x00000000        0x2 build/stm32l4xx_hal_flash.o
 .text.HAL_FLASH_IRQHandler
                0x00000000      0x128 build/stm32l4xx_hal_flash.o
 .text.HAL_FLASH_Unlock
                0x00000000       0x30 build/stm32l4xx_hal_flash.o
 .text.HAL_FLASH_Lock
                0x00000000       0x14 build/stm32l4xx_hal_flash.o
 .text.HAL_FLASH_OB_Unlock
                0x00000000       0x28 build/stm32l4xx_hal_flash.o
 .text.HAL_FLASH_OB_Lock
                0x00000000       0x14 build/stm32l4xx_hal_flash.o
 .text.HAL_FLASH_GetError
                0x00000000        0xc build/stm32l4xx_hal_flash.o
 .text.FLASH_WaitForLastOperation
                0x00000000       0x68 build/stm32l4xx_hal_flash.o
 .text.HAL_FLASH_Program
                0x00000000       0xb0 build/stm32l4xx_hal_flash.o
 .text.HAL_FLASH_OB_Launch
                0x00000000       0x1c build/stm32l4xx_hal_flash.o
 .data.pFlash   0x00000000       0x20 build/stm32l4xx_hal_flash.o
 .debug_info    0x00000000      0x8a0 build/stm32l4xx_hal_flash.o
 .debug_abbrev  0x00000000      0x36f build/stm32l4xx_hal_flash.o
 .debug_loc     0x00000000      0x68b build/stm32l4xx_hal_flash.o
 .debug_aranges
                0x00000000       0x88 build/stm32l4xx_hal_flash.o
 .debug_ranges  0x00000000       0x78 build/stm32l4xx_hal_flash.o
 .debug_line    0x00000000      0x72f build/stm32l4xx_hal_flash.o
 .debug_str     0x00000000      0x5f1 build/stm32l4xx_hal_flash.o
 .comment       0x00000000       0x27 build/stm32l4xx_hal_flash.o
 .debug_frame   0x00000000      0x134 build/stm32l4xx_hal_flash.o
 .ARM.attributes
                0x00000000       0x34 build/stm32l4xx_hal_flash.o
 .text          0x00000000        0x0 build/stm32l4xx_hal_flash_ex.o
 .data          0x00000000        0x0 build/stm32l4xx_hal_flash_ex.o
 .bss           0x00000000        0x0 build/stm32l4xx_hal_flash_ex.o
 .text.FLASH_MassErase
                0x00000000       0x20 build/stm32l4xx_hal_flash_ex.o
 .text.FLASH_OB_GetWRP
                0x00000000       0x30 build/stm32l4xx_hal_flash_ex.o
 .text.FLASH_OB_GetRDP
                0x00000000       0x20 build/stm32l4xx_hal_flash_ex.o
 .text.FLASH_OB_GetUser
                0x00000000       0x10 build/stm32l4xx_hal_flash_ex.o
 .text.FLASH_OB_GetPCROP
                0x00000000       0x44 build/stm32l4xx_hal_flash_ex.o
 .text.FLASH_OB_WRPConfig
                0x00000000       0x5c build/stm32l4xx_hal_flash_ex.o
 .text.FLASH_OB_RDPConfig
                0x00000000       0x3c build/stm32l4xx_hal_flash_ex.o
 .text.FLASH_OB_UserConfig
                0x00000000      0x110 build/stm32l4xx_hal_flash_ex.o
 .text.FLASH_OB_PCROPConfig
                0x00000000       0x68 build/stm32l4xx_hal_flash_ex.o
 .text.HAL_FLASHEx_OBProgram
                0x00000000       0x94 build/stm32l4xx_hal_flash_ex.o
 .text.HAL_FLASHEx_OBGetConfig
                0x00000000       0x4e build/stm32l4xx_hal_flash_ex.o
 .text.FLASH_PageErase
                0x00000000       0x28 build/stm32l4xx_hal_flash_ex.o
 .text.HAL_FLASHEx_Erase_IT
                0x00000000       0xb0 build/stm32l4xx_hal_flash_ex.o
 .text.FLASH_FlushCaches
                0x00000000       0x64 build/stm32l4xx_hal_flash_ex.o
 .text.HAL_FLASHEx_Erase
                0x00000000       0xf0 build/stm32l4xx_hal_flash_ex.o
 .debug_info    0x00000000      0xa5b build/stm32l4xx_hal_flash_ex.o
 .debug_abbrev  0x00000000      0x2a6 build/stm32l4xx_hal_flash_ex.o
 .debug_loc     0x00000000      0x7c6 build/stm32l4xx_hal_flash_ex.o
 .debug_aranges
                0x00000000       0x90 build/stm32l4xx_hal_flash_ex.o
 .debug_ranges  0x00000000       0x80 build/stm32l4xx_hal_flash_ex.o
 .debug_line    0x00000000      0x912 build/stm32l4xx_hal_flash_ex.o
 .debug_str     0x00000000      0x646 build/stm32l4xx_hal_flash_ex.o
 .comment       0x00000000       0x27 build/stm32l4xx_hal_flash_ex.o
 .debug_frame   0x00000000      0x170 build/stm32l4xx_hal_flash_ex.o
 .ARM.attributes
                0x00000000       0x34 build/stm32l4xx_hal_flash_ex.o
 .text          0x00000000        0x0 build/stm32l4xx_hal_flash_ramfunc.o
 .data          0x00000000        0x0 build/stm32l4xx_hal_flash_ramfunc.o
 .bss           0x00000000        0x0 build/stm32l4xx_hal_flash_ramfunc.o
 .RamFunc       0x00000000       0x48 build/stm32l4xx_hal_flash_ramfunc.o
 .debug_info    0x00000000      0x1d5 build/stm32l4xx_hal_flash_ramfunc.o
 .debug_abbrev  0x00000000       0xba build/stm32l4xx_hal_flash_ramfunc.o
 .debug_aranges
                0x00000000       0x28 build/stm32l4xx_hal_flash_ramfunc.o
 .debug_ranges  0x00000000       0x18 build/stm32l4xx_hal_flash_ramfunc.o
 .debug_line    0x00000000      0x13b build/stm32l4xx_hal_flash_ramfunc.o
 .debug_str     0x00000000      0x266 build/stm32l4xx_hal_flash_ramfunc.o
 .comment       0x00000000       0x27 build/stm32l4xx_hal_flash_ramfunc.o
 .debug_frame   0x00000000       0x30 build/stm32l4xx_hal_flash_ramfunc.o
 .ARM.attributes
                0x00000000       0x34 build/stm32l4xx_hal_flash_ramfunc.o
 .text          0x00000000        0x0 build/stm32l4xx_hal_gpio.o
 .data          0x00000000        0x0 build/stm32l4xx_hal_gpio.o
 .bss           0x00000000        0x0 build/stm32l4xx_hal_gpio.o
 .text.HAL_GPIO_DeInit
                0x00000000      0x10c build/stm32l4xx_hal_gpio.o
 .text.HAL_GPIO_ReadPin
                0x00000000        0xe build/stm32l4xx_hal_gpio.o
 .text.HAL_GPIO_WritePin
                0x00000000        0xa build/stm32l4xx_hal_gpio.o
 .text.HAL_GPIO_TogglePin
                0x00000000       0x12 build/stm32l4xx_hal_gpio.o
 .text.HAL_GPIO_LockPin
                0x00000000       0x2e build/stm32l4xx_hal_gpio.o
 .text.HAL_GPIO_EXTI_Callback
                0x00000000        0x2 build/stm32l4xx_hal_gpio.o
 .text.HAL_GPIO_EXTI_IRQHandler
                0x00000000       0x1c build/stm32l4xx_hal_gpio.o
 .text          0x00000000        0x0 build/stm32l4xx_hal_i2c.o
 .data          0x00000000        0x0 build/stm32l4xx_hal_i2c.o
 .bss           0x00000000        0x0 build/stm32l4xx_hal_i2c.o
 .debug_info    0x00000000       0x6b build/stm32l4xx_hal_i2c.o
 .debug_abbrev  0x00000000       0x26 build/stm32l4xx_hal_i2c.o
 .debug_aranges
                0x00000000       0x18 build/stm32l4xx_hal_i2c.o
 .debug_line    0x00000000       0x55 build/stm32l4xx_hal_i2c.o
 .debug_str     0x00000000      0x186 build/stm32l4xx_hal_i2c.o
 .comment       0x00000000       0x27 build/stm32l4xx_hal_i2c.o
 .ARM.attributes
                0x00000000       0x34 build/stm32l4xx_hal_i2c.o
 .text          0x00000000        0x0 build/stm32l4xx_hal_i2c_ex.o
 .data          0x00000000        0x0 build/stm32l4xx_hal_i2c_ex.o
 .bss           0x00000000        0x0 build/stm32l4xx_hal_i2c_ex.o
 .debug_info    0x00000000       0x6b build/stm32l4xx_hal_i2c_ex.o
 .debug_abbrev  0x00000000       0x26 build/stm32l4xx_hal_i2c_ex.o
 .debug_aranges
                0x00000000       0x18 build/stm32l4xx_hal_i2c_ex.o
 .debug_line    0x00000000       0x58 build/stm32l4xx_hal_i2c_ex.o
 .debug_str     0x00000000      0x189 build/stm32l4xx_hal_i2c_ex.o
 .comment       0x00000000       0x27 build/stm32l4xx_hal_i2c_ex.o
 .ARM.attributes
                0x00000000       0x34 build/stm32l4xx_hal_i2c_ex.o
 .text          0x00000000        0x0 build/stm32l4xx_hal_dma.o
 .data          0x00000000        0x0 build/stm32l4xx_hal_dma.o
 .bss           0x00000000        0x0 build/stm32l4xx_hal_dma.o
 .text.HAL_DMA_DeInit
                0x00000000       0xc8 build/stm32l4xx_hal_dma.o
 .text.HAL_DMA_Start
                0x00000000       0x52 build/stm32l4xx_hal_dma.o
 .text.HAL_DMA_PollForTransfer
                0x00000000       0xe0 build/stm32l4xx_hal_dma.o
 .text.HAL_DMA_RegisterCallback
                0x00000000       0x4c build/stm32l4xx_hal_dma.o
 .text.HAL_DMA_UnRegisterCallback
                0x00000000       0x5c build/stm32l4xx_hal_dma.o
 .text.HAL_DMA_GetState
                0x00000000        0x6 build/stm32l4xx_hal_dma.o
 .text.HAL_DMA_GetError
                0x00000000        0x4 build/stm32l4xx_hal_dma.o
 .text          0x00000000        0x0 build/stm32l4xx_hal_dma_ex.o
 .data          0x00000000        0x0 build/stm32l4xx_hal_dma_ex.o
 .bss           0x00000000        0x0 build/stm32l4xx_hal_dma_ex.o
 .debug_info    0x00000000       0x6b build/stm32l4xx_hal_dma_ex.o
 .debug_abbrev  0x00000000       0x26 build/stm32l4xx_hal_dma_ex.o
 .debug_aranges
                0x00000000       0x18 build/stm32l4xx_hal_dma_ex.o
 .debug_line    0x00000000       0x58 build/stm32l4xx_hal_dma_ex.o
 .debug_str     0x00000000      0x189 build/stm32l4xx_hal_dma_ex.o
 .comment       0x00000000       0x27 build/stm32l4xx_hal_dma_ex.o
 .ARM.attributes
                0x00000000       0x34 build/stm32l4xx_hal_dma_ex.o
 .text          0x00000000        0x0 build/stm32l4xx_hal_pwr.o
 .data          0x00000000        0x0 build/stm32l4xx_hal_pwr.o
 .bss           0x00000000        0x0 build/stm32l4xx_hal_pwr.o
 .text.HAL_PWR_DeInit
                0x00000000       0x18 build/stm32l4xx_hal_pwr.o
 .text.HAL_PWR_EnableBkUpAccess
                0x00000000       0x10 build/stm32l4xx_hal_pwr.o
 .text.HAL_PWR_DisableBkUpAccess
                0x00000000       0x10 build/stm32l4xx_hal_pwr.o
 .text.HAL_PWR_ConfigPVD
                0x00000000       0x84 build/stm32l4xx_hal_pwr.o
 .text.HAL_PWR_EnablePVD
                0x00000000       0x10 build/stm32l4xx_hal_pwr.o
 .text.HAL_PWR_DisablePVD
                0x00000000       0x10 build/stm32l4xx_hal_pwr.o
 .text.HAL_PWR_EnableWakeUpPin
                0x00000000       0x20 build/stm32l4xx_hal_pwr.o
 .text.HAL_PWR_DisableWakeUpPin
                0x00000000       0x14 build/stm32l4xx_hal_pwr.o
 .text.HAL_PWR_EnterSLEEPMode
                0x00000000       0x4c build/stm32l4xx_hal_pwr.o
 .text.HAL_PWR_EnterSTOPMode
                0x00000000       0x18 build/stm32l4xx_hal_pwr.o
 .text.HAL_PWR_EnterSTANDBYMode
                0x00000000       0x24 build/stm32l4xx_hal_pwr.o
 .text.HAL_PWR_EnableSleepOnExit
                0x00000000       0x10 build/stm32l4xx_hal_pwr.o
 .text.HAL_PWR_DisableSleepOnExit
                0x00000000       0x10 build/stm32l4xx_hal_pwr.o
 .text.HAL_PWR_EnableSEVOnPend
                0x00000000       0x10 build/stm32l4xx_hal_pwr.o
 .text.HAL_PWR_DisableSEVOnPend
                0x00000000       0x10 build/stm32l4xx_hal_pwr.o
 .text.HAL_PWR_PVDCallback
                0x00000000        0x2 build/stm32l4xx_hal_pwr.o
 .debug_info    0x00000000      0xabc build/stm32l4xx_hal_pwr.o
 .debug_abbrev  0x00000000      0x1d6 build/stm32l4xx_hal_pwr.o
 .debug_loc     0x00000000      0x1f1 build/stm32l4xx_hal_pwr.o
 .debug_aranges
                0x00000000       0x98 build/stm32l4xx_hal_pwr.o
 .debug_ranges  0x00000000       0x88 build/stm32l4xx_hal_pwr.o
 .debug_line    0x00000000      0x38b build/stm32l4xx_hal_pwr.o
 .debug_str     0x00000000      0x658 build/stm32l4xx_hal_pwr.o
 .comment       0x00000000       0x27 build/stm32l4xx_hal_pwr.o
 .debug_frame   0x00000000      0x120 build/stm32l4xx_hal_pwr.o
 .ARM.attributes
                0x00000000       0x34 build/stm32l4xx_hal_pwr.o
 .text          0x00000000        0x0 build/stm32l4xx_hal_pwr_ex.o
 .data          0x00000000        0x0 build/stm32l4xx_hal_pwr_ex.o
 .bss           0x00000000        0x0 build/stm32l4xx_hal_pwr_ex.o
 .text.HAL_PWREx_EnableBatteryCharging
                0x00000000       0x1c build/stm32l4xx_hal_pwr_ex.o
 .text.HAL_PWREx_DisableBatteryCharging
                0x00000000       0x10 build/stm32l4xx_hal_pwr_ex.o
 .text.HAL_PWREx_EnableVddUSB
                0x00000000       0x10 build/stm32l4xx_hal_pwr_ex.o
 .text.HAL_PWREx_DisableVddUSB
                0x00000000       0x10 build/stm32l4xx_hal_pwr_ex.o
 .text.HAL_PWREx_EnableInternalWakeUpLine
                0x00000000       0x10 build/stm32l4xx_hal_pwr_ex.o
 .text.HAL_PWREx_DisableInternalWakeUpLine
                0x00000000       0x10 build/stm32l4xx_hal_pwr_ex.o
 .text.HAL_PWREx_EnableGPIOPullUp
                0x00000000       0xa0 build/stm32l4xx_hal_pwr_ex.o
 .text.HAL_PWREx_DisableGPIOPullUp
                0x00000000       0x74 build/stm32l4xx_hal_pwr_ex.o
 .text.HAL_PWREx_EnableGPIOPullDown
                0x00000000       0xa0 build/stm32l4xx_hal_pwr_ex.o
 .text.HAL_PWREx_DisableGPIOPullDown
                0x00000000       0x78 build/stm32l4xx_hal_pwr_ex.o
 .text.HAL_PWREx_EnablePullUpPullDownConfig
                0x00000000       0x10 build/stm32l4xx_hal_pwr_ex.o
 .text.HAL_PWREx_DisablePullUpPullDownConfig
                0x00000000       0x10 build/stm32l4xx_hal_pwr_ex.o
 .text.HAL_PWREx_SetSRAM2ContentRetention
                0x00000000       0x2c build/stm32l4xx_hal_pwr_ex.o
 .text.HAL_PWREx_EnableSRAM2ContentRetention
                0x00000000        0xc build/stm32l4xx_hal_pwr_ex.o
 .text.HAL_PWREx_DisableSRAM2ContentRetention
                0x00000000        0xa build/stm32l4xx_hal_pwr_ex.o
 .text.HAL_PWREx_EnablePVM1
                0x00000000       0x10 build/stm32l4xx_hal_pwr_ex.o
 .text.HAL_PWREx_DisablePVM1
                0x00000000       0x10 build/stm32l4xx_hal_pwr_ex.o
 .text.HAL_PWREx_EnablePVM3
                0x00000000       0x10 build/stm32l4xx_hal_pwr_ex.o
 .text.HAL_PWREx_DisablePVM3
                0x00000000       0x10 build/stm32l4xx_hal_pwr_ex.o
 .text.HAL_PWREx_EnablePVM4
                0x00000000       0x10 build/stm32l4xx_hal_pwr_ex.o
 .text.HAL_PWREx_DisablePVM4
                0x00000000       0x10 build/stm32l4xx_hal_pwr_ex.o
 .text.HAL_PWREx_ConfigPVM
                0x00000000      0x16c build/stm32l4xx_hal_pwr_ex.o
 .text.HAL_PWREx_EnableLowPowerRunMode
                0x00000000       0x10 build/stm32l4xx_hal_pwr_ex.o
 .text.HAL_PWREx_DisableLowPowerRunMode
                0x00000000       0x50 build/stm32l4xx_hal_pwr_ex.o
 .text.HAL_PWREx_EnterSTOP0Mode
                0x00000000       0x38 build/stm32l4xx_hal_pwr_ex.o
 .text.HAL_PWREx_EnterSTOP1Mode
                0x00000000       0x3c build/stm32l4xx_hal_pwr_ex.o
 .text.HAL_PWREx_EnterSTOP2Mode
                0x00000000       0x3c build/stm32l4xx_hal_pwr_ex.o
 .text.HAL_PWREx_EnterSHUTDOWNMode
                0x00000000       0x24 build/stm32l4xx_hal_pwr_ex.o
 .text.HAL_PWREx_PVM1Callback
                0x00000000        0x2 build/stm32l4xx_hal_pwr_ex.o
 .text.HAL_PWREx_PVM3Callback
                0x00000000        0x2 build/stm32l4xx_hal_pwr_ex.o
 .text.HAL_PWREx_PVM4Callback
                0x00000000        0x2 build/stm32l4xx_hal_pwr_ex.o
 .text.HAL_PWREx_PVD_PVM_IRQHandler
                0x00000000       0x64 build/stm32l4xx_hal_pwr_ex.o
 .text          0x00000000        0x0 build/stm32l4xx_hal_cortex.o
 .data          0x00000000        0x0 build/stm32l4xx_hal_cortex.o
 .bss           0x00000000        0x0 build/stm32l4xx_hal_cortex.o
 .text.__NVIC_DisableIRQ
                0x00000000       0x24 build/stm32l4xx_hal_cortex.o
 .text.__NVIC_GetPriority
                0x00000000       0x24 build/stm32l4xx_hal_cortex.o
 .text.NVIC_DecodePriority
                0x00000000       0x3e build/stm32l4xx_hal_cortex.o
 .text.__NVIC_SystemReset
                0x00000000       0x24 build/stm32l4xx_hal_cortex.o
 .text.HAL_NVIC_DisableIRQ
                0x00000000        0x8 build/stm32l4xx_hal_cortex.o
 .text.HAL_NVIC_SystemReset
                0x00000000        0x6 build/stm32l4xx_hal_cortex.o
 .text.HAL_SYSTICK_Config
                0x00000000       0x28 build/stm32l4xx_hal_cortex.o
 .text.HAL_NVIC_GetPriorityGrouping
                0x00000000       0x10 build/stm32l4xx_hal_cortex.o
 .text.HAL_NVIC_GetPriority
                0x00000000       0x18 build/stm32l4xx_hal_cortex.o
 .text.HAL_NVIC_SetPendingIRQ
                0x00000000       0x1c build/stm32l4xx_hal_cortex.o
 .text.HAL_NVIC_GetPendingIRQ
                0x00000000       0x24 build/stm32l4xx_hal_cortex.o
 .text.HAL_NVIC_ClearPendingIRQ
                0x00000000       0x1c build/stm32l4xx_hal_cortex.o
 .text.HAL_NVIC_GetActive
                0x00000000       0x24 build/stm32l4xx_hal_cortex.o
 .text.HAL_SYSTICK_CLKSourceConfig
                0x00000000       0x20 build/stm32l4xx_hal_cortex.o
 .text.HAL_SYSTICK_Callback
                0x00000000        0x2 build/stm32l4xx_hal_cortex.o
 .text.HAL_SYSTICK_IRQHandler
                0x00000000        0x8 build/stm32l4xx_hal_cortex.o
 .text.HAL_MPU_Enable
                0x00000000       0x18 build/stm32l4xx_hal_cortex.o
 .text.HAL_MPU_Disable
                0x00000000       0x14 build/stm32l4xx_hal_cortex.o
 .text.HAL_MPU_EnableRegion
                0x00000000       0x18 build/stm32l4xx_hal_cortex.o
 .text.HAL_MPU_DisableRegion
                0x00000000       0x18 build/stm32l4xx_hal_cortex.o
 .text.HAL_MPU_ConfigRegion
                0x00000000       0x58 build/stm32l4xx_hal_cortex.o
 .text          0x00000000        0x0 build/stm32l4xx_hal_exti.o
 .data          0x00000000        0x0 build/stm32l4xx_hal_exti.o
 .bss           0x00000000        0x0 build/stm32l4xx_hal_exti.o
 .text.HAL_EXTI_SetConfigLine
                0x00000000       0xdc build/stm32l4xx_hal_exti.o
 .text.HAL_EXTI_GetConfigLine
                0x00000000       0xbc build/stm32l4xx_hal_exti.o
 .text.HAL_EXTI_ClearConfigLine
                0x00000000       0xa0 build/stm32l4xx_hal_exti.o
 .text.HAL_EXTI_RegisterCallback
                0x00000000        0xe build/stm32l4xx_hal_exti.o
 .text.HAL_EXTI_GetHandle
                0x00000000        0xc build/stm32l4xx_hal_exti.o
 .text.HAL_EXTI_IRQHandler
                0x00000000       0x28 build/stm32l4xx_hal_exti.o
 .text.HAL_EXTI_GetPending
                0x00000000       0x20 build/stm32l4xx_hal_exti.o
 .text.HAL_EXTI_ClearPending
                0x00000000       0x1c build/stm32l4xx_hal_exti.o
 .text.HAL_EXTI_GenerateSWI
                0x00000000       0x1c build/stm32l4xx_hal_exti.o
 .debug_info    0x00000000      0x7e0 build/stm32l4xx_hal_exti.o
 .debug_abbrev  0x00000000      0x1d1 build/stm32l4xx_hal_exti.o
 .debug_loc     0x00000000      0xb33 build/stm32l4xx_hal_exti.o
 .debug_aranges
                0x00000000       0x60 build/stm32l4xx_hal_exti.o
 .debug_ranges  0x00000000       0x50 build/stm32l4xx_hal_exti.o
 .debug_line    0x00000000      0x6a2 build/stm32l4xx_hal_exti.o
 .debug_str     0x00000000      0x42d build/stm32l4xx_hal_exti.o
 .comment       0x00000000       0x27 build/stm32l4xx_hal_exti.o
 .debug_frame   0x00000000       0xf4 build/stm32l4xx_hal_exti.o
 .ARM.attributes
                0x00000000       0x34 build/stm32l4xx_hal_exti.o
 .text          0x00000000        0x0 build/stm32l4xx_hal_spi.o
 .data          0x00000000        0x0 build/stm32l4xx_hal_spi.o
 .bss           0x00000000        0x0 build/stm32l4xx_hal_spi.o
 .text.SPI_AbortRx_ISR
                0x00000000       0x90 build/stm32l4xx_hal_spi.o
 .text.SPI_AbortTx_ISR
                0x00000000       0xf0 build/stm32l4xx_hal_spi.o
 .text.HAL_SPI_MspInit
                0x00000000        0x2 build/stm32l4xx_hal_spi.o
 .text.HAL_SPI_MspDeInit
                0x00000000        0x2 build/stm32l4xx_hal_spi.o
 .text.HAL_SPI_DeInit
                0x00000000       0x2c build/stm32l4xx_hal_spi.o
 .text.HAL_SPI_Transmit
                0x00000000      0x20a build/stm32l4xx_hal_spi.o
 .text.HAL_SPI_TransmitReceive
                0x00000000      0x2fe build/stm32l4xx_hal_spi.o
 .text.HAL_SPI_Receive
                0x00000000      0x1b4 build/stm32l4xx_hal_spi.o
 .text.HAL_SPI_Transmit_IT
                0x00000000       0xb0 build/stm32l4xx_hal_spi.o
 .text.HAL_SPI_TransmitReceive_IT
                0x00000000       0xf4 build/stm32l4xx_hal_spi.o
 .text.HAL_SPI_Receive_IT
                0x00000000       0xfc build/stm32l4xx_hal_spi.o
 .text.HAL_SPI_Transmit_DMA
                0x00000000      0x13c build/stm32l4xx_hal_spi.o
 .text.HAL_SPI_Receive_DMA
                0x00000000      0x180 build/stm32l4xx_hal_spi.o
 .text.HAL_SPI_Abort
                0x00000000      0x190 build/stm32l4xx_hal_spi.o
 .text.HAL_SPI_DMAPause
                0x00000000       0x26 build/stm32l4xx_hal_spi.o
 .text.HAL_SPI_DMAResume
                0x00000000       0x26 build/stm32l4xx_hal_spi.o
 .text.HAL_SPI_DMAStop
                0x00000000       0x46 build/stm32l4xx_hal_spi.o
 .text.HAL_SPI_TxCpltCallback
                0x00000000        0x2 build/stm32l4xx_hal_spi.o
 .text.HAL_SPI_TxRxCpltCallback
                0x00000000        0x2 build/stm32l4xx_hal_spi.o
 .text.HAL_SPI_TxHalfCpltCallback
                0x00000000        0x2 build/stm32l4xx_hal_spi.o
 .text.SPI_DMAHalfTransmitCplt
                0x00000000        0xa build/stm32l4xx_hal_spi.o
 .text.HAL_SPI_ErrorCallback
                0x00000000        0x2 build/stm32l4xx_hal_spi.o
 .text.SPI_CloseTx_ISR
                0x00000000       0x56 build/stm32l4xx_hal_spi.o
 .text.SPI_TxISR_8BIT
                0x00000000       0x28 build/stm32l4xx_hal_spi.o
 .text.SPI_TxISR_16BIT
                0x00000000       0x28 build/stm32l4xx_hal_spi.o
 .text.SPI_CloseRx_ISR
                0x00000000       0x40 build/stm32l4xx_hal_spi.o
 .text.SPI_RxISR_8BIT
                0x00000000       0x2e build/stm32l4xx_hal_spi.o
 .text.SPI_RxISR_16BIT
                0x00000000       0x2e build/stm32l4xx_hal_spi.o
 .text.SPI_CloseRxTx_ISR
                0x00000000       0x5e build/stm32l4xx_hal_spi.o
 .text.SPI_2linesTxISR_8BIT
                0x00000000       0x5c build/stm32l4xx_hal_spi.o
 .text.SPI_2linesRxISR_8BIT
                0x00000000       0x7a build/stm32l4xx_hal_spi.o
 .text.SPI_2linesTxISR_16BIT
                0x00000000       0x3a build/stm32l4xx_hal_spi.o
 .text.SPI_2linesRxISR_16BIT
                0x00000000       0x3e build/stm32l4xx_hal_spi.o
 .text.SPI_DMATransmitCplt
                0x00000000       0x70 build/stm32l4xx_hal_spi.o
 .text.HAL_SPI_AbortCpltCallback
                0x00000000        0x2 build/stm32l4xx_hal_spi.o
 .text.HAL_SPI_Abort_IT
                0x00000000      0x160 build/stm32l4xx_hal_spi.o
 .text.SPI_DMARxAbortCallback
                0x00000000       0x94 build/stm32l4xx_hal_spi.o
 .text.SPI_DMATxAbortCallback
                0x00000000       0x90 build/stm32l4xx_hal_spi.o
 .text.HAL_SPI_GetState
                0x00000000        0x6 build/stm32l4xx_hal_spi.o
 .text.HAL_SPI_GetError
                0x00000000        0x4 build/stm32l4xx_hal_spi.o
 .text          0x00000000        0x0 build/stm32l4xx_hal_spi_ex.o
 .data          0x00000000        0x0 build/stm32l4xx_hal_spi_ex.o
 .bss           0x00000000        0x0 build/stm32l4xx_hal_spi_ex.o
 .text.HAL_SPIEx_FlushRxFifo
                0x00000000       0x36 build/stm32l4xx_hal_spi_ex.o
 .debug_info    0x00000000      0x699 build/stm32l4xx_hal_spi_ex.o
 .debug_abbrev  0x00000000      0x15e build/stm32l4xx_hal_spi_ex.o
 .debug_loc     0x00000000       0xd3 build/stm32l4xx_hal_spi_ex.o
 .debug_aranges
                0x00000000       0x20 build/stm32l4xx_hal_spi_ex.o
 .debug_ranges  0x00000000       0x10 build/stm32l4xx_hal_spi_ex.o
 .debug_line    0x00000000      0x194 build/stm32l4xx_hal_spi_ex.o
 .debug_str     0x00000000      0x5cb build/stm32l4xx_hal_spi_ex.o
 .comment       0x00000000       0x27 build/stm32l4xx_hal_spi_ex.o
 .debug_frame   0x00000000       0x2c build/stm32l4xx_hal_spi_ex.o
 .ARM.attributes
                0x00000000       0x34 build/stm32l4xx_hal_spi_ex.o
 .text          0x00000000        0x0 build/stm32l4xx_hal_uart.o
 .data          0x00000000        0x0 build/stm32l4xx_hal_uart.o
 .bss           0x00000000        0x0 build/stm32l4xx_hal_uart.o
 .text.UART_TxISR_8BIT
                0x00000000       0x54 build/stm32l4xx_hal_uart.o
 .text.UART_TxISR_16BIT
                0x00000000       0x58 build/stm32l4xx_hal_uart.o
 .text.HAL_UART_MspInit
                0x00000000        0x2 build/stm32l4xx_hal_uart.o
 .text.HAL_UART_MspDeInit
                0x00000000        0x2 build/stm32l4xx_hal_uart.o
 .text.HAL_UART_DeInit
                0x00000000       0x40 build/stm32l4xx_hal_uart.o
 .text.HAL_UART_Transmit_IT
                0x00000000       0x64 build/stm32l4xx_hal_uart.o
 .text.HAL_UART_DMAPause
                0x00000000       0x8a build/stm32l4xx_hal_uart.o
 .text.HAL_UART_DMAResume
                0x00000000       0x7a build/stm32l4xx_hal_uart.o
 .text.HAL_UART_DMAStop
                0x00000000       0xac build/stm32l4xx_hal_uart.o
 .text.HAL_UART_Abort
                0x00000000      0x102 build/stm32l4xx_hal_uart.o
 .text.HAL_UART_AbortTransmit
                0x00000000       0x68 build/stm32l4xx_hal_uart.o
 .text.HAL_UART_AbortReceive
                0x00000000       0xb0 build/stm32l4xx_hal_uart.o
 .text.HAL_UART_TxCpltCallback
                0x00000000        0x2 build/stm32l4xx_hal_uart.o
 .text.HAL_UART_RxCpltCallback
                0x00000000        0x2 build/stm32l4xx_hal_uart.o
 .text.HAL_UART_RxHalfCpltCallback
                0x00000000        0x2 build/stm32l4xx_hal_uart.o
 .text.HAL_UART_AbortCpltCallback
                0x00000000        0x2 build/stm32l4xx_hal_uart.o
 .text.HAL_UART_Abort_IT
                0x00000000      0x130 build/stm32l4xx_hal_uart.o
 .text.UART_DMARxAbortCallback
                0x00000000       0x42 build/stm32l4xx_hal_uart.o
 .text.UART_DMATxAbortCallback
                0x00000000       0x36 build/stm32l4xx_hal_uart.o
 .text.HAL_UART_AbortTransmitCpltCallback
                0x00000000        0x2 build/stm32l4xx_hal_uart.o
 .text.HAL_UART_AbortTransmit_IT
                0x00000000       0x80 build/stm32l4xx_hal_uart.o
 .text.UART_DMATxOnlyAbortCallback
                0x00000000       0x14 build/stm32l4xx_hal_uart.o
 .text.HAL_UART_AbortReceiveCpltCallback
                0x00000000        0x2 build/stm32l4xx_hal_uart.o
 .text.HAL_UART_AbortReceive_IT
                0x00000000       0xd0 build/stm32l4xx_hal_uart.o
 .text.UART_DMARxOnlyAbortCallback
                0x00000000       0x2a build/stm32l4xx_hal_uart.o
 .text.UART_DMARxHalfCplt
                0x00000000       0x20 build/stm32l4xx_hal_uart.o
 .text.UART_DMAReceiveCplt
                0x00000000       0x92 build/stm32l4xx_hal_uart.o
 .text.HAL_UART_ReceiverTimeout_Config
                0x00000000       0x18 build/stm32l4xx_hal_uart.o
 .text.HAL_UART_EnableReceiverTimeout
                0x00000000       0x48 build/stm32l4xx_hal_uart.o
 .text.HAL_UART_DisableReceiverTimeout
                0x00000000       0x48 build/stm32l4xx_hal_uart.o
 .text.HAL_MultiProcessor_EnterMuteMode
                0x00000000        0xe build/stm32l4xx_hal_uart.o
 .text.HAL_HalfDuplex_EnableTransmitter
                0x00000000       0x48 build/stm32l4xx_hal_uart.o
 .text.HAL_HalfDuplex_EnableReceiver
                0x00000000       0x48 build/stm32l4xx_hal_uart.o
 .text.HAL_LIN_SendBreak
                0x00000000       0x30 build/stm32l4xx_hal_uart.o
 .text.HAL_UART_GetError
                0x00000000        0x6 build/stm32l4xx_hal_uart.o
 .text.HAL_UART_Transmit
                0x00000000       0xc8 build/stm32l4xx_hal_uart.o
 .text.HAL_UART_Receive
                0x00000000      0x118 build/stm32l4xx_hal_uart.o
 .text.HAL_HalfDuplex_Init
                0x00000000       0x6e build/stm32l4xx_hal_uart.o
 .text.HAL_LIN_Init
                0x00000000       0x92 build/stm32l4xx_hal_uart.o
 .text.HAL_MultiProcessor_Init
                0x00000000       0x8a build/stm32l4xx_hal_uart.o
 .text.HAL_MultiProcessor_EnableMuteMode
                0x00000000       0x34 build/stm32l4xx_hal_uart.o
 .text.HAL_MultiProcessor_DisableMuteMode
                0x00000000       0x34 build/stm32l4xx_hal_uart.o
 .text.UART_Start_Receive_DMA
                0x00000000       0xa8 build/stm32l4xx_hal_uart.o
 .text.HAL_UART_Receive_DMA
                0x00000000       0x4c build/stm32l4xx_hal_uart.o
 .text          0x00000000        0x0 build/stm32l4xx_hal_uart_ex.o
 .data          0x00000000        0x0 build/stm32l4xx_hal_uart_ex.o
 .bss           0x00000000        0x0 build/stm32l4xx_hal_uart_ex.o
 .text.UARTEx_Wakeup_AddressConfig
                0x00000000       0x2e build/stm32l4xx_hal_uart_ex.o
 .text.HAL_RS485Ex_Init
                0x00000000       0x82 build/stm32l4xx_hal_uart_ex.o
 .text.HAL_UARTEx_EnableClockStopMode
                0x00000000       0x34 build/stm32l4xx_hal_uart_ex.o
 .text.HAL_UARTEx_DisableClockStopMode
                0x00000000       0x34 build/stm32l4xx_hal_uart_ex.o
 .text.HAL_MultiProcessorEx_AddressLength_Set
                0x00000000       0x36 build/stm32l4xx_hal_uart_ex.o
 .text.HAL_UARTEx_StopModeWakeUpSourceConfig
                0x00000000       0x7e build/stm32l4xx_hal_uart_ex.o
 .text.HAL_UARTEx_EnableStopMode
                0x00000000       0x2e build/stm32l4xx_hal_uart_ex.o
 .text.HAL_UARTEx_DisableStopMode
                0x00000000       0x2e build/stm32l4xx_hal_uart_ex.o
 .text.HAL_UARTEx_ReceiveToIdle
                0x00000000      0x162 build/stm32l4xx_hal_uart_ex.o
 .text.HAL_UARTEx_ReceiveToIdle_IT
                0x00000000       0x4e build/stm32l4xx_hal_uart_ex.o
 .text.HAL_UARTEx_ReceiveToIdle_DMA
                0x00000000       0x50 build/stm32l4xx_hal_uart_ex.o
 .text.HAL_UARTEx_GetRxEventType
                0x00000000        0x4 build/stm32l4xx_hal_uart_ex.o
 .text          0x00000000        0x0 build/system_stm32l4xx.o
 .data          0x00000000        0x0 build/system_stm32l4xx.o
 .bss           0x00000000        0x0 build/system_stm32l4xx.o
 .text.SystemCoreClockUpdate
                0x00000000       0xd8 build/system_stm32l4xx.o
 .text          0x00000000        0x0 build/croutine.o
 .data          0x00000000        0x0 build/croutine.o
 .bss           0x00000000        0x0 build/croutine.o
 .debug_info    0x00000000       0x72 build/croutine.o
 .debug_abbrev  0x00000000       0x26 build/croutine.o
 .debug_aranges
                0x00000000       0x18 build/croutine.o
 .debug_line    0x00000000       0x53 build/croutine.o
 .debug_str     0x00000000      0x189 build/croutine.o
 .comment       0x00000000       0x27 build/croutine.o
 .ARM.attributes
                0x00000000       0x34 build/croutine.o
 .text          0x00000000        0x0 build/event_groups.o
 .data          0x00000000        0x0 build/event_groups.o
 .bss           0x00000000        0x0 build/event_groups.o
 .text.prvTestWaitCondition
                0x00000000       0x1a build/event_groups.o
 .text.xEventGroupCreateStatic
                0x00000000       0x4a build/event_groups.o
 .text.xEventGroupCreate
                0x00000000       0x1c build/event_groups.o
 .text.xEventGroupWaitBits
                0x00000000      0x10a build/event_groups.o
 .text.xEventGroupClearBits
                0x00000000       0x46 build/event_groups.o
 .text.vEventGroupClearBitsCallback
                0x00000000        0x8 build/event_groups.o
 .text.xEventGroupClearBitsFromISR
                0x00000000       0x14 build/event_groups.o
 .text.xEventGroupGetBitsFromISR
                0x00000000       0x1c build/event_groups.o
 .text.xEventGroupSetBits
                0x00000000       0x8e build/event_groups.o
 .text.xEventGroupSync
                0x00000000       0xd8 build/event_groups.o
 .text.vEventGroupSetBitsCallback
                0x00000000        0x8 build/event_groups.o
 .text.vEventGroupDelete
                0x00000000       0x44 build/event_groups.o
 .text.xEventGroupSetBitsFromISR
                0x00000000       0x14 build/event_groups.o
 .text.uxEventGroupGetNumber
                0x00000000        0xa build/event_groups.o
 .text.vEventGroupSetNumber
                0x00000000        0x4 build/event_groups.o
 .debug_info    0x00000000     0x1075 build/event_groups.o
 .debug_abbrev  0x00000000      0x38b build/event_groups.o
 .debug_loc     0x00000000      0xd69 build/event_groups.o
 .debug_aranges
                0x00000000       0x90 build/event_groups.o
 .debug_ranges  0x00000000       0xb8 build/event_groups.o
 .debug_line    0x00000000      0xa04 build/event_groups.o
 .debug_str     0x00000000      0x7ec build/event_groups.o
 .comment       0x00000000       0x27 build/event_groups.o
 .debug_frame   0x00000000      0x1b8 build/event_groups.o
 .ARM.attributes
                0x00000000       0x34 build/event_groups.o
 .text          0x00000000        0x0 build/list.o
 .data          0x00000000        0x0 build/list.o
 .bss           0x00000000        0x0 build/list.o
 .text          0x00000000        0x0 build/queue.o
 .data          0x00000000        0x0 build/queue.o
 .bss           0x00000000        0x0 build/queue.o
 .text.xQueueGetMutexHolder
                0x00000000       0x1a build/queue.o
 .text.xQueueGetMutexHolderFromISR
                0x00000000       0x20 build/queue.o
 .text.xQueueCreateCountingSemaphoreStatic
                0x00000000       0x46 build/queue.o
 .text.xQueueCreateCountingSemaphore
                0x00000000       0x3c build/queue.o
 .text.xQueueCreateMutexStatic
                0x00000000       0x1e build/queue.o
 .text.xQueueGiveMutexRecursive
                0x00000000       0x40 build/queue.o
 .text.xQueueTakeMutexRecursive
                0x00000000       0x40 build/queue.o
 .text.xQueuePeek
                0x00000000      0x15e build/queue.o
 .text.xQueueReceiveFromISR
                0x00000000       0xae build/queue.o
 .text.xQueuePeekFromISR
                0x00000000       0x7e build/queue.o
 .text.uxQueueMessagesWaiting
                0x00000000       0x26 build/queue.o
 .text.uxQueueSpacesAvailable
                0x00000000       0x2a build/queue.o
 .text.uxQueueMessagesWaitingFromISR
                0x00000000       0x18 build/queue.o
 .text.uxQueueGetQueueNumber
                0x00000000        0x4 build/queue.o
 .text.vQueueSetQueueNumber
                0x00000000        0x4 build/queue.o
 .text.ucQueueGetQueueType
                0x00000000        0x6 build/queue.o
 .text.xQueueIsQueueEmptyFromISR
                0x00000000       0x20 build/queue.o
 .text.xQueueIsQueueFullFromISR
                0x00000000       0x24 build/queue.o
 .text.pcQueueGetName
                0x00000000       0x28 build/queue.o
 .text.vQueueUnregisterQueue
                0x00000000       0x2c build/queue.o
 .text.vQueueDelete
                0x00000000       0x2c build/queue.o
 .text          0x00000000        0x0 build/stream_buffer.o
 .data          0x00000000        0x0 build/stream_buffer.o
 .bss           0x00000000        0x0 build/stream_buffer.o
 .text.xStreamBufferGenericCreateStatic
                0x00000000       0xa6 build/stream_buffer.o
 .text.vStreamBufferDelete
                0x00000000       0x2e build/stream_buffer.o
 .text.xStreamBufferReset
                0x00000000       0x4e build/stream_buffer.o
 .text.xStreamBufferSetTriggerLevel
                0x00000000       0x2a build/stream_buffer.o
 .text.xStreamBufferBytesAvailable
                0x00000000       0x1c build/stream_buffer.o
 .text.xStreamBufferSend
                0x00000000      0x108 build/stream_buffer.o
 .text.xStreamBufferNextMessageLengthBytes
                0x00000000       0x5c build/stream_buffer.o
 .text.xStreamBufferReceiveFromISR
                0x00000000       0xa2 build/stream_buffer.o
 .text.xStreamBufferIsEmpty
                0x00000000       0x24 build/stream_buffer.o
 .text.xStreamBufferIsFull
                0x00000000       0x38 build/stream_buffer.o
 .text.xStreamBufferSendCompletedFromISR
                0x00000000       0x52 build/stream_buffer.o
 .text.xStreamBufferReceiveCompletedFromISR
                0x00000000       0x52 build/stream_buffer.o
 .text.uxStreamBufferGetStreamBufferNumber
                0x00000000        0x4 build/stream_buffer.o
 .text.vStreamBufferSetStreamBufferNumber
                0x00000000        0x4 build/stream_buffer.o
 .text.ucStreamBufferGetStreamBufferType
                0x00000000        0x8 build/stream_buffer.o
 .text          0x00000000        0x0 build/tasks.o
 .data          0x00000000        0x0 build/tasks.o
 .bss           0x00000000        0x0 build/tasks.o
 .text.prvTaskIsTaskSuspended
                0x00000000       0x40 build/tasks.o
 .text.prvTaskCheckFreeStackSpace
                0x00000000       0x14 build/tasks.o
 .text.vTaskDelete
                0x00000000       0xb8 build/tasks.o
 .text.eTaskGetState
                0x00000000       0x90 build/tasks.o
 .text.uxTaskPriorityGet
                0x00000000       0x20 build/tasks.o
 .text.uxTaskPriorityGetFromISR
                0x00000000       0x30 build/tasks.o
 .text.vTaskPrioritySet
                0x00000000       0xd4 build/tasks.o
 .text.vTaskResume
                0x00000000       0x88 build/tasks.o
 .text.xTaskResumeFromISR
                0x00000000       0xa4 build/tasks.o
 .text.vTaskEndScheduler
                0x00000000       0x24 build/tasks.o
 .text.xTaskGetTickCountFromISR
                0x00000000       0x10 build/tasks.o
 .text.uxTaskGetNumberOfTasks
                0x00000000        0xc build/tasks.o
 .text.pcTaskGetName
                0x00000000       0x28 build/tasks.o
 .text.vTaskDelayUntil
                0x00000000       0xa4 build/tasks.o
 .text.xTaskCatchUpTicks
                0x00000000       0x38 build/tasks.o
 .text.vTaskSuspend
                0x00000000       0xc4 build/tasks.o
 .text.vTaskPlaceOnUnorderedEventList
                0x00000000       0x58 build/tasks.o
 .text.vTaskRemoveFromUnorderedEventList
                0x00000000       0x88 build/tasks.o
 .text.vTaskSetTimeOutState
                0x00000000       0x38 build/tasks.o
 .text.uxTaskGetTaskNumber
                0x00000000        0xa build/tasks.o
 .text.vTaskSetTaskNumber
                0x00000000        0x6 build/tasks.o
 .text.vTaskGetInfo
                0x00000000       0x78 build/tasks.o
 .text.prvListTasksWithinSingleList
                0x00000000       0x5e build/tasks.o
 .text.uxTaskGetSystemState
                0x00000000       0xb0 build/tasks.o
 .text.uxTaskGetStackHighWaterMark
                0x00000000       0x18 build/tasks.o
 .text.uxTaskResetEventItemValue
                0x00000000       0x18 build/tasks.o
 .text.ulTaskNotifyTake
                0x00000000       0x78 build/tasks.o
 .text.vTaskNotifyGiveFromISR
                0x00000000       0xd0 build/tasks.o
 .text.ulTaskNotifyValueClear
                0x00000000       0x2c build/tasks.o
 .text          0x00000000        0x0 build/timers.o
 .data          0x00000000        0x0 build/timers.o
 .bss           0x00000000        0x0 build/timers.o
 .text.xTimerCreateStatic
                0x00000000       0x54 build/timers.o
 .text.xTimerGetTimerDaemonTaskHandle
                0x00000000       0x20 build/timers.o
 .text.xTimerGetPeriod
                0x00000000       0x18 build/timers.o
 .text.vTimerSetReloadMode
                0x00000000       0x40 build/timers.o
 .text.uxTimerGetReloadMode
                0x00000000       0x34 build/timers.o
 .text.xTimerGetExpiryTime
                0x00000000       0x18 build/timers.o
 .text.pcTimerGetName
                0x00000000       0x18 build/timers.o
 .text.xTimerIsTimerActive
                0x00000000       0x34 build/timers.o
 .text.pvTimerGetTimerID
                0x00000000       0x26 build/timers.o
 .text.vTimerSetTimerID
                0x00000000       0x26 build/timers.o
 .text.xTimerPendFunctionCallFromISR
                0x00000000       0x28 build/timers.o
 .text.xTimerPendFunctionCall
                0x00000000       0x40 build/timers.o
 .text.uxTimerGetTimerNumber
                0x00000000        0x4 build/timers.o
 .text.vTimerSetTimerNumber
                0x00000000        0x4 build/timers.o
 .text          0x00000000        0x0 build/cmsis_os2.o
 .data          0x00000000        0x0 build/cmsis_os2.o
 .bss           0x00000000        0x0 build/cmsis_os2.o
 .text.OS_Tick_GetCount
                0x00000000        0xc build/cmsis_os2.o
 .text.OS_Tick_GetOverflow
                0x00000000        0xc build/cmsis_os2.o
 .text.OS_Tick_GetInterval
                0x00000000        0xa build/cmsis_os2.o
 .text.CreateBlock
                0x00000000       0x1c build/cmsis_os2.o
 .text.AllocBlock
                0x00000000        0xc build/cmsis_os2.o
 .text.FreeBlock
                0x00000000        0x8 build/cmsis_os2.o
 .text.TimerCallback
                0x00000000       0x10 build/cmsis_os2.o
 .rodata.osKernelGetInfo.str1.4
                0x00000000       0x11 build/cmsis_os2.o
 .text.osKernelGetInfo
                0x00000000       0x2c build/cmsis_os2.o
 .text.osKernelGetState
                0x00000000       0x24 build/cmsis_os2.o
 .text.osKernelLock
                0x00000000       0x2a build/cmsis_os2.o
 .text.osKernelUnlock
                0x00000000       0x3a build/cmsis_os2.o
 .text.osKernelRestoreLock
                0x00000000       0x4c build/cmsis_os2.o
 .text.osKernelGetTickCount
                0x00000000       0x14 build/cmsis_os2.o
 .text.osKernelGetTickFreq
                0x00000000        0x6 build/cmsis_os2.o
 .text.osKernelGetSysTimerCount
                0x00000000       0x44 build/cmsis_os2.o
 .text.osKernelGetSysTimerFreq
                0x00000000        0xc build/cmsis_os2.o
 .text.osThreadGetName
                0x00000000       0x14 build/cmsis_os2.o
 .text.osThreadGetId
                0x00000000        0x8 build/cmsis_os2.o
 .text.osThreadGetState
                0x00000000       0x3e build/cmsis_os2.o
 .text.osThreadGetStackSpace
                0x00000000       0x1a build/cmsis_os2.o
 .text.osThreadSetPriority
                0x00000000       0x32 build/cmsis_os2.o
 .text.osThreadGetPriority
                0x00000000       0x1c build/cmsis_os2.o
 .text.osThreadYield
                0x00000000       0x24 build/cmsis_os2.o
 .text.osThreadSuspend
                0x00000000       0x1e build/cmsis_os2.o
 .text.osThreadResume
                0x00000000       0x1e build/cmsis_os2.o
 .text.osThreadExit
                0x00000000        0xa build/cmsis_os2.o
 .text.osThreadTerminate
                0x00000000       0x30 build/cmsis_os2.o
 .text.osThreadGetCount
                0x00000000       0x12 build/cmsis_os2.o
 .text.osThreadEnumerate
                0x00000000       0x66 build/cmsis_os2.o
 .text.osThreadFlagsSet
                0x00000000       0x72 build/cmsis_os2.o
 .text.osThreadFlagsClear
                0x00000000       0x56 build/cmsis_os2.o
 .text.osThreadFlagsGet
                0x00000000       0x32 build/cmsis_os2.o
 .text.osThreadFlagsWait
                0x00000000       0xaa build/cmsis_os2.o
 .text.osDelayUntil
                0x00000000       0x30 build/cmsis_os2.o
 .text.osTimerNew
                0x00000000       0xa8 build/cmsis_os2.o
 .text.osTimerGetName
                0x00000000       0x14 build/cmsis_os2.o
 .text.osTimerStart
                0x00000000       0x34 build/cmsis_os2.o
 .text.osTimerStop
                0x00000000       0x44 build/cmsis_os2.o
 .text.osTimerIsRunning
                0x00000000       0x18 build/cmsis_os2.o
 .text.osTimerDelete
                0x00000000       0x44 build/cmsis_os2.o
 .text.osEventFlagsNew
                0x00000000       0x44 build/cmsis_os2.o
 .text.osEventFlagsSet
                0x00000000       0x5a build/cmsis_os2.o
 .text.osEventFlagsClear
                0x00000000       0x40 build/cmsis_os2.o
 .text.osEventFlagsGet
                0x00000000       0x1c build/cmsis_os2.o
 .text.osEventFlagsWait
                0x00000000       0x74 build/cmsis_os2.o
 .text.osEventFlagsDelete
                0x00000000       0x1e build/cmsis_os2.o
 .text.osMutexNew
                0x00000000       0x92 build/cmsis_os2.o
 .text.osMutexAcquire
                0x00000000       0x5e build/cmsis_os2.o
 .text.osMutexRelease
                0x00000000       0x4e build/cmsis_os2.o
 .text.osMutexGetOwner
                0x00000000       0x20 build/cmsis_os2.o
 .text.osMutexDelete
                0x00000000       0x2c build/cmsis_os2.o
 .text.osSemaphoreNew
                0x00000000       0xb2 build/cmsis_os2.o
 .text.osSemaphoreAcquire
                0x00000000       0x68 build/cmsis_os2.o
 .text.osSemaphoreRelease
                0x00000000       0x5e build/cmsis_os2.o
 .text.osSemaphoreGetCount
                0x00000000       0x1a build/cmsis_os2.o
 .text.osSemaphoreDelete
                0x00000000       0x26 build/cmsis_os2.o
 .text.osMessageQueueNew
                0x00000000       0x96 build/cmsis_os2.o
 .text.osMessageQueuePut
                0x00000000       0x84 build/cmsis_os2.o
 .text.osMessageQueueGet
                0x00000000       0x82 build/cmsis_os2.o
 .text.osMessageQueueGetCapacity
                0x00000000        0xa build/cmsis_os2.o
 .text.osMessageQueueGetMsgSize
                0x00000000        0xa build/cmsis_os2.o
 .text.osMessageQueueGetCount
                0x00000000       0x1a build/cmsis_os2.o
 .text.osMessageQueueGetSpace
                0x00000000       0x34 build/cmsis_os2.o
 .text.osMessageQueueReset
                0x00000000       0x20 build/cmsis_os2.o
 .text.osMessageQueueDelete
                0x00000000       0x26 build/cmsis_os2.o
 .text.osMemoryPoolNew
                0x00000000      0x134 build/cmsis_os2.o
 .text.osMemoryPoolGetName
                0x00000000       0x10 build/cmsis_os2.o
 .text.osMemoryPoolAlloc
                0x00000000       0xb0 build/cmsis_os2.o
 .text.osMemoryPoolFree
                0x00000000       0xe0 build/cmsis_os2.o
 .text.osMemoryPoolGetCapacity
                0x00000000       0x1c build/cmsis_os2.o
 .text.osMemoryPoolGetBlockSize
                0x00000000       0x1c build/cmsis_os2.o
 .text.osMemoryPoolGetCount
                0x00000000       0x34 build/cmsis_os2.o
 .text.osMemoryPoolGetSpace
                0x00000000       0x30 build/cmsis_os2.o
 .text.osMemoryPoolDelete
                0x00000000       0x64 build/cmsis_os2.o
 .text          0x00000000        0x0 build/heap_4.o
 .data          0x00000000        0x0 build/heap_4.o
 .bss           0x00000000        0x0 build/heap_4.o
 .text.xPortGetFreeHeapSize
                0x00000000        0xc build/heap_4.o
 .text.xPortGetMinimumEverFreeHeapSize
                0x00000000        0xc build/heap_4.o
 .text.vPortInitialiseBlocks
                0x00000000        0x2 build/heap_4.o
 .text.vPortGetHeapStats
                0x00000000       0x80 build/heap_4.o
 .text          0x00000000        0x0 build/port.o
 .data          0x00000000        0x0 build/port.o
 .bss           0x00000000        0x0 build/port.o
 .text.vPortEndScheduler
                0x00000000       0x24 build/port.o
 .text          0x00000000        0x0 build/sysmem.o
 .data          0x00000000        0x0 build/sysmem.o
 .bss           0x00000000        0x0 build/sysmem.o
 .text._sbrk    0x00000000       0x48 build/sysmem.o
 .bss.__sbrk_heap_end
                0x00000000        0x4 build/sysmem.o
 .debug_info    0x00000000      0x174 build/sysmem.o
 .debug_abbrev  0x00000000       0xeb build/sysmem.o
 .debug_loc     0x00000000       0x84 build/sysmem.o
 .debug_aranges
                0x00000000       0x20 build/sysmem.o
 .debug_ranges  0x00000000       0x10 build/sysmem.o
 .debug_line    0x00000000       0xf9 build/sysmem.o
 .debug_str     0x00000000      0x1e6 build/sysmem.o
 .comment       0x00000000       0x27 build/sysmem.o
 .debug_frame   0x00000000       0x28 build/sysmem.o
 .ARM.attributes
                0x00000000       0x34 build/sysmem.o
 .text          0x00000000        0x0 build/syscalls.o
 .data          0x00000000        0x0 build/syscalls.o
 .bss           0x00000000        0x0 build/syscalls.o
 .text.initialise_monitor_handles
                0x00000000        0x2 build/syscalls.o
 .text._getpid  0x00000000        0x4 build/syscalls.o
 .text._kill    0x00000000       0x10 build/syscalls.o
 .text._exit    0x00000000        0xc build/syscalls.o
 .text._read    0x00000000       0x20 build/syscalls.o
 .text._write   0x00000000       0x1c build/syscalls.o
 .text._close   0x00000000        0x6 build/syscalls.o
 .text._fstat   0x00000000        0xa build/syscalls.o
 .text._isatty  0x00000000        0x4 build/syscalls.o
 .text._lseek   0x00000000        0x4 build/syscalls.o
 .text._open    0x00000000        0xa build/syscalls.o
 .text._wait    0x00000000       0x10 build/syscalls.o
 .text._unlink  0x00000000       0x10 build/syscalls.o
 .text._times   0x00000000        0x6 build/syscalls.o
 .text._stat    0x00000000        0xa build/syscalls.o
 .text._link    0x00000000       0x10 build/syscalls.o
 .text._fork    0x00000000       0x10 build/syscalls.o
 .text._execve  0x00000000       0x10 build/syscalls.o
 .data.environ  0x00000000        0x4 build/syscalls.o
 .bss.__env     0x00000000        0x4 build/syscalls.o
 .debug_info    0x00000000      0x84d build/syscalls.o
 .debug_abbrev  0x00000000      0x1ea build/syscalls.o
 .debug_loc     0x00000000      0x511 build/syscalls.o
 .debug_aranges
                0x00000000       0xa8 build/syscalls.o
 .debug_ranges  0x00000000       0x98 build/syscalls.o
 .debug_line    0x00000000      0x37a build/syscalls.o
 .debug_str     0x00000000      0x3cf build/syscalls.o
 .comment       0x00000000       0x27 build/syscalls.o
 .debug_frame   0x00000000      0x190 build/syscalls.o
 .ARM.attributes
                0x00000000       0x34 build/syscalls.o
 .text          0x00000000        0x0 build/rlib.o
 .data          0x00000000        0x0 build/rlib.o
 .bss           0x00000000        0x0 build/rlib.o
 .text.strcpy   0x00000000        0xe build/rlib.o
 .data.ctype_table
                0x00000000      0x100 build/rlib.o
 .text          0x00000000        0x0 build/rbuffer.o
 .data          0x00000000        0x0 build/rbuffer.o
 .bss           0x00000000        0x0 build/rbuffer.o
 .text.rbuffer_read
                0x00000000       0x44 build/rbuffer.o
 .text.rbuffer_isFull
                0x00000000       0x18 build/rbuffer.o
 .text          0x00000000        0x0 build/printf.o
 .data          0x00000000        0x0 build/printf.o
 .bss           0x00000000        0x0 build/printf.o
 .text.sprintf_
                0x00000000       0x2c build/printf.o
 .text.vsnprintf_
                0x00000000       0x1c build/printf.o
 .text          0x00000000        0x0 build/mems.o
 .data          0x00000000        0x0 build/mems.o
 .bss           0x00000000        0x0 build/mems.o
 .text          0x00000000        0x0 build/service.o
 .data          0x00000000        0x0 build/service.o
 .bss           0x00000000        0x0 build/service.o
 .text          0x00000000        0x0 build/apmain.o
 .data          0x00000000        0x0 build/apmain.o
 .bss           0x00000000        0x0 build/apmain.o
 .text          0x00000000        0x0 build/apdialog.o
 .data          0x00000000        0x0 build/apdialog.o
 .bss           0x00000000        0x0 build/apdialog.o
 .text          0x00000000        0x0 build/motor.o
 .data          0x00000000        0x0 build/motor.o
 .bss           0x00000000        0x0 build/motor.o
 .text          0x00000000        0x0 build/autopilot.o
 .data          0x00000000        0x0 build/autopilot.o
 .bss           0x00000000        0x0 build/autopilot.o
 .text.autopilot_sendValues
                0x00000000       0x48 build/autopilot.o
 .text.AP_MSG_MotorStopped
                0x00000000       0x34 build/autopilot.o
 .text          0x00000000        0x0 build/imu.o
 .data          0x00000000        0x0 build/imu.o
 .bss           0x00000000        0x0 build/imu.o
 .text.calibreur_addSample
                0x00000000       0x82 build/imu.o
 .text.calibreur_create
                0x00000000       0x32 build/imu.o
 .text.calibreur_destroy
                0x00000000       0x12 build/imu.o
 .text.calibreur_getNumberOfSamples
                0x00000000        0x4 build/imu.o
 .text.calibreur_isFull
                0x00000000        0xa build/imu.o
 .text.calibreur_calibrate
                0x00000000       0x10 build/imu.o
 .text.IMU_new_values_st
                0x00000000       0xb0 build/imu.o
 .rodata.IMU_new_values_essai.str1.4
                0x00000000       0x3e build/imu.o
 .text.IMU_new_values_essai
                0x00000000      0x22c build/imu.o
 .text.calculer_orientation_navire
                0x00000000      0x1e2 build/imu.o
 .text.quaternion_vers_euler
                0x00000000      0x108 build/imu.o
 .text.IMU_update_quat
                0x00000000      0x234 build/imu.o
 .text          0x00000000        0x0 build/geom.o
 .data          0x00000000        0x0 build/geom.o
 .bss           0x00000000        0x0 build/geom.o
 .text.vector3f_init
                0x00000000       0x2a build/geom.o
 .text.vector3f_sub
                0x00000000       0x4e build/geom.o
 .text.vector3f_getDotProduct
                0x00000000       0x32 build/geom.o
 .text.vector3f_getCosine
                0x00000000       0x90 build/geom.o
 .text.cvt_dir_norm_rad
                0x00000000       0x24 build/geom.o
 .text.cvt_dir_norm_deg
                0x00000000       0x24 build/geom.o
 .text.cvt_dir_deg_rad
                0x00000000       0x84 build/geom.o
 .text.get_unit_vector_x
                0x00000000       0x2a build/geom.o
 .data.unitmyf  0x00000000        0xc build/geom.o
 .data.unitmxf  0x00000000        0xc build/geom.o
 .data.unityf   0x00000000        0xc build/geom.o
 .data.unitxf   0x00000000        0xc build/geom.o
 .text          0x00000000        0x0 build/madgwick.o
 .data          0x00000000        0x0 build/madgwick.o
 .bss           0x00000000        0x0 build/madgwick.o
 .text.madgwick_set_beta
                0x00000000        0xc build/madgwick.o
 .text.madgwick_set_zeta
                0x00000000        0xc build/madgwick.o
 .text.madgwick_get_quaternion
                0x00000000       0x4c build/madgwick.o
 .text.madgwick_get_roll
                0x00000000        0xc build/madgwick.o
 .text.madgwick_get_pitch
                0x00000000        0xc build/madgwick.o
 .text.madgwick_get_yaw
                0x00000000        0xc build/madgwick.o
 .text          0x00000000        0x0 build/quat.o
 .data          0x00000000        0x0 build/quat.o
 .bss           0x00000000        0x0 build/quat.o
 .text.Quaternionf_init
                0x00000000       0x32 build/quat.o
 .text.Quaternionf_add
                0x00000000       0x62 build/quat.o
 .text.Quaternionf_sub
                0x00000000       0x62 build/quat.o
 .text.Quaternionf_mul
                0x00000000       0xc2 build/quat.o
 .text.Quaternionf_getDotProduct
                0x00000000       0x42 build/quat.o
 .text.Quaternionf_getScaled
                0x00000000       0x52 build/quat.o
 .text.Quaternionf_getNorm
                0x00000000       0x3a build/quat.o
 .text.Quaternionf_getNormalized
                0x00000000       0x78 build/quat.o
 .data.Quaternionf_unit
                0x00000000       0x10 build/quat.o
 .debug_info    0x00000000      0x3b5 build/quat.o
 .debug_abbrev  0x00000000      0x14e build/quat.o
 .debug_loc     0x00000000      0x23e build/quat.o
 .debug_aranges
                0x00000000       0x58 build/quat.o
 .debug_ranges  0x00000000       0x48 build/quat.o
 .debug_line    0x00000000      0x27a build/quat.o
 .debug_str     0x00000000      0x24c build/quat.o
 .comment       0x00000000       0x27 build/quat.o
 .debug_frame   0x00000000       0xdc build/quat.o
 .ARM.attributes
                0x00000000       0x34 build/quat.o
 .text          0x00000000        0x0 build/matrix3f.o
 .data          0x00000000        0x0 build/matrix3f.o
 .bss           0x00000000        0x0 build/matrix3f.o
 .text.Matrix3f_init
                0x00000000       0x28 build/matrix3f.o
 .text.Matrix3f_add
                0x00000000       0x40 build/matrix3f.o
 .text.Matrix3f_sub
                0x00000000       0x40 build/matrix3f.o
 .text.Matrix_mul
                0x00000000       0x9c build/matrix3f.o
 .text.Matrix3f_transpose
                0x00000000       0x38 build/matrix3f.o
 .text.Matrix3f_inverse
                0x00000000      0x140 build/matrix3f.o
 .text.Matrix_vector_mul
                0x00000000       0x9a build/matrix3f.o
 .bss.Matrix3f_null
                0x00000000       0x24 build/matrix3f.o
 .data.Matrix3f_unit
                0x00000000       0x24 build/matrix3f.o
 .debug_info    0x00000000      0x48a build/matrix3f.o
 .debug_abbrev  0x00000000      0x172 build/matrix3f.o
 .debug_loc     0x00000000      0x302 build/matrix3f.o
 .debug_aranges
                0x00000000       0x50 build/matrix3f.o
 .debug_ranges  0x00000000       0xb8 build/matrix3f.o
 .debug_line    0x00000000      0x474 build/matrix3f.o
 .debug_str     0x00000000      0x242 build/matrix3f.o
 .comment       0x00000000       0x27 build/matrix3f.o
 .debug_frame   0x00000000      0x120 build/matrix3f.o
 .ARM.attributes
                0x00000000       0x34 build/matrix3f.o
 .text          0x00000000       0x14 build/startup_stm32l452xx.o
 .data          0x00000000        0x0 build/startup_stm32l452xx.o
 .bss           0x00000000        0x0 build/startup_stm32l452xx.o
 .text          0x00000000        0xc /usr/lib/gcc/arm-none-eabi/12.2.1/../../../arm-none-eabi/lib/thumb/v7e-m+fp/hard/libc_nano.a(lib_a-atexit.o)
 .data          0x00000000        0x0 /usr/lib/gcc/arm-none-eabi/12.2.1/../../../arm-none-eabi/lib/thumb/v7e-m+fp/hard/libc_nano.a(lib_a-atexit.o)
 .bss           0x00000000        0x0 /usr/lib/gcc/arm-none-eabi/12.2.1/../../../arm-none-eabi/lib/thumb/v7e-m+fp/hard/libc_nano.a(lib_a-atexit.o)
 .debug_info    0x00000000      0x118 /usr/lib/gcc/arm-none-eabi/12.2.1/../../../arm-none-eabi/lib/thumb/v7e-m+fp/hard/libc_nano.a(lib_a-atexit.o)
 .debug_abbrev  0x00000000       0xc1 /usr/lib/gcc/arm-none-eabi/12.2.1/../../../arm-none-eabi/lib/thumb/v7e-m+fp/hard/libc_nano.a(lib_a-atexit.o)
 .debug_loclists
                0x00000000       0x25 /usr/lib/gcc/arm-none-eabi/12.2.1/../../../arm-none-eabi/lib/thumb/v7e-m+fp/hard/libc_nano.a(lib_a-atexit.o)
 .debug_aranges
                0x00000000       0x20 /usr/lib/gcc/arm-none-eabi/12.2.1/../../../arm-none-eabi/lib/thumb/v7e-m+fp/hard/libc_nano.a(lib_a-atexit.o)
 .debug_line    0x00000000       0xba /usr/lib/gcc/arm-none-eabi/12.2.1/../../../arm-none-eabi/lib/thumb/v7e-m+fp/hard/libc_nano.a(lib_a-atexit.o)
 .debug_str     0x00000000      0x1d9 /usr/lib/gcc/arm-none-eabi/12.2.1/../../../arm-none-eabi/lib/thumb/v7e-m+fp/hard/libc_nano.a(lib_a-atexit.o)
 .comment       0x00000000       0x27 /usr/lib/gcc/arm-none-eabi/12.2.1/../../../arm-none-eabi/lib/thumb/v7e-m+fp/hard/libc_nano.a(lib_a-atexit.o)
 .debug_frame   0x00000000       0x20 /usr/lib/gcc/arm-none-eabi/12.2.1/../../../arm-none-eabi/lib/thumb/v7e-m+fp/hard/libc_nano.a(lib_a-atexit.o)
 .ARM.attributes
                0x00000000       0x34 /usr/lib/gcc/arm-none-eabi/12.2.1/../../../arm-none-eabi/lib/thumb/v7e-m+fp/hard/libc_nano.a(lib_a-atexit.o)
 .text          0x00000000       0x28 /usr/lib/gcc/arm-none-eabi/12.2.1/../../../arm-none-eabi/lib/thumb/v7e-m+fp/hard/libc_nano.a(lib_a-exit.o)
 .data          0x00000000        0x0 /usr/lib/gcc/arm-none-eabi/12.2.1/../../../arm-none-eabi/lib/thumb/v7e-m+fp/hard/libc_nano.a(lib_a-exit.o)
 .bss           0x00000000        0x0 /usr/lib/gcc/arm-none-eabi/12.2.1/../../../arm-none-eabi/lib/thumb/v7e-m+fp/hard/libc_nano.a(lib_a-exit.o)
 .debug_info    0x00000000      0x7c5 /usr/lib/gcc/arm-none-eabi/12.2.1/../../../arm-none-eabi/lib/thumb/v7e-m+fp/hard/libc_nano.a(lib_a-exit.o)
 .debug_abbrev  0x00000000      0x1c0 /usr/lib/gcc/arm-none-eabi/12.2.1/../../../arm-none-eabi/lib/thumb/v7e-m+fp/hard/libc_nano.a(lib_a-exit.o)
 .debug_loclists
                0x00000000       0x1b /usr/lib/gcc/arm-none-eabi/12.2.1/../../../arm-none-eabi/lib/thumb/v7e-m+fp/hard/libc_nano.a(lib_a-exit.o)
 .debug_aranges
                0x00000000       0x20 /usr/lib/gcc/arm-none-eabi/12.2.1/../../../arm-none-eabi/lib/thumb/v7e-m+fp/hard/libc_nano.a(lib_a-exit.o)
 .debug_line    0x00000000      0x161 /usr/lib/gcc/arm-none-eabi/12.2.1/../../../arm-none-eabi/lib/thumb/v7e-m+fp/hard/libc_nano.a(lib_a-exit.o)
 .debug_str     0x00000000      0x518 /usr/lib/gcc/arm-none-eabi/12.2.1/../../../arm-none-eabi/lib/thumb/v7e-m+fp/hard/libc_nano.a(lib_a-exit.o)
 .comment       0x00000000       0x27 /usr/lib/gcc/arm-none-eabi/12.2.1/../../../arm-none-eabi/lib/thumb/v7e-m+fp/hard/libc_nano.a(lib_a-exit.o)
 .debug_frame   0x00000000       0x28 /usr/lib/gcc/arm-none-eabi/12.2.1/../../../arm-none-eabi/lib/thumb/v7e-m+fp/hard/libc_nano.a(lib_a-exit.o)
 .ARM.attributes
                0x00000000       0x34 /usr/lib/gcc/arm-none-eabi/12.2.1/../../../arm-none-eabi/lib/thumb/v7e-m+fp/hard/libc_nano.a(lib_a-exit.o)
 .text          0x00000000       0x28 /usr/lib/gcc/arm-none-eabi/12.2.1/../../../arm-none-eabi/lib/thumb/v7e-m+fp/hard/libc_nano.a(lib_a-fini.o)
 .data          0x00000000        0x0 /usr/lib/gcc/arm-none-eabi/12.2.1/../../../arm-none-eabi/lib/thumb/v7e-m+fp/hard/libc_nano.a(lib_a-fini.o)
 .bss           0x00000000        0x0 /usr/lib/gcc/arm-none-eabi/12.2.1/../../../arm-none-eabi/lib/thumb/v7e-m+fp/hard/libc_nano.a(lib_a-fini.o)
 .debug_info    0x00000000       0xf7 /usr/lib/gcc/arm-none-eabi/12.2.1/../../../arm-none-eabi/lib/thumb/v7e-m+fp/hard/libc_nano.a(lib_a-fini.o)
 .debug_abbrev  0x00000000       0xcc /usr/lib/gcc/arm-none-eabi/12.2.1/../../../arm-none-eabi/lib/thumb/v7e-m+fp/hard/libc_nano.a(lib_a-fini.o)
 .debug_loclists
                0x00000000       0x42 /usr/lib/gcc/arm-none-eabi/12.2.1/../../../arm-none-eabi/lib/thumb/v7e-m+fp/hard/libc_nano.a(lib_a-fini.o)
 .debug_aranges
                0x00000000       0x20 /usr/lib/gcc/arm-none-eabi/12.2.1/../../../arm-none-eabi/lib/thumb/v7e-m+fp/hard/libc_nano.a(lib_a-fini.o)
 .debug_line    0x00000000       0xdc /usr/lib/gcc/arm-none-eabi/12.2.1/../../../arm-none-eabi/lib/thumb/v7e-m+fp/hard/libc_nano.a(lib_a-fini.o)
 .debug_str     0x00000000      0x1d1 /usr/lib/gcc/arm-none-eabi/12.2.1/../../../arm-none-eabi/lib/thumb/v7e-m+fp/hard/libc_nano.a(lib_a-fini.o)
 .comment       0x00000000       0x27 /usr/lib/gcc/arm-none-eabi/12.2.1/../../../arm-none-eabi/lib/thumb/v7e-m+fp/hard/libc_nano.a(lib_a-fini.o)
 .debug_frame   0x00000000       0x34 /usr/lib/gcc/arm-none-eabi/12.2.1/../../../arm-none-eabi/lib/thumb/v7e-m+fp/hard/libc_nano.a(lib_a-fini.o)
 .ARM.attributes
                0x00000000       0x34 /usr/lib/gcc/arm-none-eabi/12.2.1/../../../arm-none-eabi/lib/thumb/v7e-m+fp/hard/libc_nano.a(lib_a-fini.o)
 .text          0x00000000        0x0 /usr/lib/gcc/arm-none-eabi/12.2.1/../../../arm-none-eabi/lib/thumb/v7e-m+fp/hard/libc_nano.a(lib_a-impure.o)
 .data          0x00000000       0x64 /usr/lib/gcc/arm-none-eabi/12.2.1/../../../arm-none-eabi/lib/thumb/v7e-m+fp/hard/libc_nano.a(lib_a-impure.o)
 .bss           0x00000000        0x0 /usr/lib/gcc/arm-none-eabi/12.2.1/../../../arm-none-eabi/lib/thumb/v7e-m+fp/hard/libc_nano.a(lib_a-impure.o)
 .rodata        0x00000000        0x4 /usr/lib/gcc/arm-none-eabi/12.2.1/../../../arm-none-eabi/lib/thumb/v7e-m+fp/hard/libc_nano.a(lib_a-impure.o)
 .debug_info    0x00000000      0x7fc /usr/lib/gcc/arm-none-eabi/12.2.1/../../../arm-none-eabi/lib/thumb/v7e-m+fp/hard/libc_nano.a(lib_a-impure.o)
 .debug_abbrev  0x00000000      0x15a /usr/lib/gcc/arm-none-eabi/12.2.1/../../../arm-none-eabi/lib/thumb/v7e-m+fp/hard/libc_nano.a(lib_a-impure.o)
 .debug_aranges
                0x00000000       0x18 /usr/lib/gcc/arm-none-eabi/12.2.1/../../../arm-none-eabi/lib/thumb/v7e-m+fp/hard/libc_nano.a(lib_a-impure.o)
 .debug_line    0x00000000       0xde /usr/lib/gcc/arm-none-eabi/12.2.1/../../../arm-none-eabi/lib/thumb/v7e-m+fp/hard/libc_nano.a(lib_a-impure.o)
 .debug_str     0x00000000      0x54e /usr/lib/gcc/arm-none-eabi/12.2.1/../../../arm-none-eabi/lib/thumb/v7e-m+fp/hard/libc_nano.a(lib_a-impure.o)
 .comment       0x00000000       0x27 /usr/lib/gcc/arm-none-eabi/12.2.1/../../../arm-none-eabi/lib/thumb/v7e-m+fp/hard/libc_nano.a(lib_a-impure.o)
 .ARM.attributes
                0x00000000       0x34 /usr/lib/gcc/arm-none-eabi/12.2.1/../../../arm-none-eabi/lib/thumb/v7e-m+fp/hard/libc_nano.a(lib_a-impure.o)
 .data          0x00000000        0x0 /usr/lib/gcc/arm-none-eabi/12.2.1/../../../arm-none-eabi/lib/thumb/v7e-m+fp/hard/libc_nano.a(lib_a-init.o)
 .bss           0x00000000        0x0 /usr/lib/gcc/arm-none-eabi/12.2.1/../../../arm-none-eabi/lib/thumb/v7e-m+fp/hard/libc_nano.a(lib_a-init.o)
 .text          0x00000000       0xb0 /usr/lib/gcc/arm-none-eabi/12.2.1/../../../arm-none-eabi/lib/thumb/v7e-m+fp/hard/libc_nano.a(lib_a-__atexit.o)
 .data          0x00000000        0x4 /usr/lib/gcc/arm-none-eabi/12.2.1/../../../arm-none-eabi/lib/thumb/v7e-m+fp/hard/libc_nano.a(lib_a-__atexit.o)
 .bss           0x00000000       0x8c /usr/lib/gcc/arm-none-eabi/12.2.1/../../../arm-none-eabi/lib/thumb/v7e-m+fp/hard/libc_nano.a(lib_a-__atexit.o)
 .debug_info    0x00000000      0x280 /usr/lib/gcc/arm-none-eabi/12.2.1/../../../arm-none-eabi/lib/thumb/v7e-m+fp/hard/libc_nano.a(lib_a-__atexit.o)
 .debug_abbrev  0x00000000      0x1db /usr/lib/gcc/arm-none-eabi/12.2.1/../../../arm-none-eabi/lib/thumb/v7e-m+fp/hard/libc_nano.a(lib_a-__atexit.o)
 .debug_loclists
                0x00000000      0x103 /usr/lib/gcc/arm-none-eabi/12.2.1/../../../arm-none-eabi/lib/thumb/v7e-m+fp/hard/libc_nano.a(lib_a-__atexit.o)
 .debug_aranges
                0x00000000       0x20 /usr/lib/gcc/arm-none-eabi/12.2.1/../../../arm-none-eabi/lib/thumb/v7e-m+fp/hard/libc_nano.a(lib_a-__atexit.o)
 .debug_line    0x00000000      0x218 /usr/lib/gcc/arm-none-eabi/12.2.1/../../../arm-none-eabi/lib/thumb/v7e-m+fp/hard/libc_nano.a(lib_a-__atexit.o)
 .debug_str     0x00000000      0x29f /usr/lib/gcc/arm-none-eabi/12.2.1/../../../arm-none-eabi/lib/thumb/v7e-m+fp/hard/libc_nano.a(lib_a-__atexit.o)
 .comment       0x00000000       0x27 /usr/lib/gcc/arm-none-eabi/12.2.1/../../../arm-none-eabi/lib/thumb/v7e-m+fp/hard/libc_nano.a(lib_a-__atexit.o)
 .debug_frame   0x00000000       0x38 /usr/lib/gcc/arm-none-eabi/12.2.1/../../../arm-none-eabi/lib/thumb/v7e-m+fp/hard/libc_nano.a(lib_a-__atexit.o)
 .ARM.attributes
                0x00000000       0x34 /usr/lib/gcc/arm-none-eabi/12.2.1/../../../arm-none-eabi/lib/thumb/v7e-m+fp/hard/libc_nano.a(lib_a-__atexit.o)
 .text          0x00000000       0xbc /usr/lib/gcc/arm-none-eabi/12.2.1/../../../arm-none-eabi/lib/thumb/v7e-m+fp/hard/libc_nano.a(lib_a-__call_atexit.o)
 .data          0x00000000        0x0 /usr/lib/gcc/arm-none-eabi/12.2.1/../../../arm-none-eabi/lib/thumb/v7e-m+fp/hard/libc_nano.a(lib_a-__call_atexit.o)
 .bss           0x00000000        0x4 /usr/lib/gcc/arm-none-eabi/12.2.1/../../../arm-none-eabi/lib/thumb/v7e-m+fp/hard/libc_nano.a(lib_a-__call_atexit.o)
 .debug_info    0x00000000      0x235 /usr/lib/gcc/arm-none-eabi/12.2.1/../../../arm-none-eabi/lib/thumb/v7e-m+fp/hard/libc_nano.a(lib_a-__call_atexit.o)
 .debug_abbrev  0x00000000      0x179 /usr/lib/gcc/arm-none-eabi/12.2.1/../../../arm-none-eabi/lib/thumb/v7e-m+fp/hard/libc_nano.a(lib_a-__call_atexit.o)
 .debug_loclists
                0x00000000       0xeb /usr/lib/gcc/arm-none-eabi/12.2.1/../../../arm-none-eabi/lib/thumb/v7e-m+fp/hard/libc_nano.a(lib_a-__call_atexit.o)
 .debug_aranges
                0x00000000       0x20 /usr/lib/gcc/arm-none-eabi/12.2.1/../../../arm-none-eabi/lib/thumb/v7e-m+fp/hard/libc_nano.a(lib_a-__call_atexit.o)
 .debug_rnglists
                0x00000000       0x23 /usr/lib/gcc/arm-none-eabi/12.2.1/../../../arm-none-eabi/lib/thumb/v7e-m+fp/hard/libc_nano.a(lib_a-__call_atexit.o)
 .debug_line    0x00000000      0x1e6 /usr/lib/gcc/arm-none-eabi/12.2.1/../../../arm-none-eabi/lib/thumb/v7e-m+fp/hard/libc_nano.a(lib_a-__call_atexit.o)
 .debug_str     0x00000000      0x24b /usr/lib/gcc/arm-none-eabi/12.2.1/../../../arm-none-eabi/lib/thumb/v7e-m+fp/hard/libc_nano.a(lib_a-__call_atexit.o)
 .comment       0x00000000       0x27 /usr/lib/gcc/arm-none-eabi/12.2.1/../../../arm-none-eabi/lib/thumb/v7e-m+fp/hard/libc_nano.a(lib_a-__call_atexit.o)
 .debug_frame   0x00000000       0x40 /usr/lib/gcc/arm-none-eabi/12.2.1/../../../arm-none-eabi/lib/thumb/v7e-m+fp/hard/libc_nano.a(lib_a-__call_atexit.o)
 .ARM.attributes
                0x00000000       0x34 /usr/lib/gcc/arm-none-eabi/12.2.1/../../../arm-none-eabi/lib/thumb/v7e-m+fp/hard/libc_nano.a(lib_a-__call_atexit.o)
 .data          0x00000000        0x0 /usr/lib/gcc/arm-none-eabi/12.2.1/../../../arm-none-eabi/lib/thumb/v7e-m+fp/hard/libm.a(lib_a-sf_atan.o)
 .bss           0x00000000        0x0 /usr/lib/gcc/arm-none-eabi/12.2.1/../../../arm-none-eabi/lib/thumb/v7e-m+fp/hard/libm.a(lib_a-sf_atan.o)
 .data          0x00000000        0x0 /usr/lib/gcc/arm-none-eabi/12.2.1/../../../arm-none-eabi/lib/thumb/v7e-m+fp/hard/libm.a(lib_a-sf_cos.o)
 .bss           0x00000000        0x0 /usr/lib/gcc/arm-none-eabi/12.2.1/../../../arm-none-eabi/lib/thumb/v7e-m+fp/hard/libm.a(lib_a-sf_cos.o)
 .data          0x00000000        0x0 /usr/lib/gcc/arm-none-eabi/12.2.1/../../../arm-none-eabi/lib/thumb/v7e-m+fp/hard/libm.a(lib_a-sf_fabs.o)
 .bss           0x00000000        0x0 /usr/lib/gcc/arm-none-eabi/12.2.1/../../../arm-none-eabi/lib/thumb/v7e-m+fp/hard/libm.a(lib_a-sf_fabs.o)
 .data          0x00000000        0x0 /usr/lib/gcc/arm-none-eabi/12.2.1/../../../arm-none-eabi/lib/thumb/v7e-m+fp/hard/libm.a(lib_a-sf_sin.o)
 .bss           0x00000000        0x0 /usr/lib/gcc/arm-none-eabi/12.2.1/../../../arm-none-eabi/lib/thumb/v7e-m+fp/hard/libm.a(lib_a-sf_sin.o)
 .text          0x00000000        0x4 /usr/lib/gcc/arm-none-eabi/12.2.1/../../../arm-none-eabi/lib/thumb/v7e-m+fp/hard/libm.a(lib_a-w_atan2.o)
 .data          0x00000000        0x0 /usr/lib/gcc/arm-none-eabi/12.2.1/../../../arm-none-eabi/lib/thumb/v7e-m+fp/hard/libm.a(lib_a-w_atan2.o)
 .bss           0x00000000        0x0 /usr/lib/gcc/arm-none-eabi/12.2.1/../../../arm-none-eabi/lib/thumb/v7e-m+fp/hard/libm.a(lib_a-w_atan2.o)
 .debug_info    0x00000000      0x107 /usr/lib/gcc/arm-none-eabi/12.2.1/../../../arm-none-eabi/lib/thumb/v7e-m+fp/hard/libm.a(lib_a-w_atan2.o)
 .debug_abbrev  0x00000000       0x8d /usr/lib/gcc/arm-none-eabi/12.2.1/../../../arm-none-eabi/lib/thumb/v7e-m+fp/hard/libm.a(lib_a-w_atan2.o)
 .debug_loclists
                0x00000000       0x42 /usr/lib/gcc/arm-none-eabi/12.2.1/../../../arm-none-eabi/lib/thumb/v7e-m+fp/hard/libm.a(lib_a-w_atan2.o)
 .debug_aranges
                0x00000000       0x20 /usr/lib/gcc/arm-none-eabi/12.2.1/../../../arm-none-eabi/lib/thumb/v7e-m+fp/hard/libm.a(lib_a-w_atan2.o)
 .debug_line    0x00000000       0xe4 /usr/lib/gcc/arm-none-eabi/12.2.1/../../../arm-none-eabi/lib/thumb/v7e-m+fp/hard/libm.a(lib_a-w_atan2.o)
 .debug_str     0x00000000      0x1a9 /usr/lib/gcc/arm-none-eabi/12.2.1/../../../arm-none-eabi/lib/thumb/v7e-m+fp/hard/libm.a(lib_a-w_atan2.o)
 .comment       0x00000000       0x27 /usr/lib/gcc/arm-none-eabi/12.2.1/../../../arm-none-eabi/lib/thumb/v7e-m+fp/hard/libm.a(lib_a-w_atan2.o)
 .debug_frame   0x00000000       0x20 /usr/lib/gcc/arm-none-eabi/12.2.1/../../../arm-none-eabi/lib/thumb/v7e-m+fp/hard/libm.a(lib_a-w_atan2.o)
 .ARM.attributes
                0x00000000       0x34 /usr/lib/gcc/arm-none-eabi/12.2.1/../../../arm-none-eabi/lib/thumb/v7e-m+fp/hard/libm.a(lib_a-w_atan2.o)
 .data          0x00000000        0x0 /usr/lib/gcc/arm-none-eabi/12.2.1/../../../arm-none-eabi/lib/thumb/v7e-m+fp/hard/libm.a(lib_a-w_sqrt.o)
 .bss           0x00000000        0x0 /usr/lib/gcc/arm-none-eabi/12.2.1/../../../arm-none-eabi/lib/thumb/v7e-m+fp/hard/libm.a(lib_a-w_sqrt.o)
 .data          0x00000000        0x0 /usr/lib/gcc/arm-none-eabi/12.2.1/../../../arm-none-eabi/lib/thumb/v7e-m+fp/hard/libm.a(lib_a-wf_acos.o)
 .bss           0x00000000        0x0 /usr/lib/gcc/arm-none-eabi/12.2.1/../../../arm-none-eabi/lib/thumb/v7e-m+fp/hard/libm.a(lib_a-wf_acos.o)
 .data          0x00000000        0x0 /usr/lib/gcc/arm-none-eabi/12.2.1/../../../arm-none-eabi/lib/thumb/v7e-m+fp/hard/libm.a(lib_a-wf_asin.o)
 .bss           0x00000000        0x0 /usr/lib/gcc/arm-none-eabi/12.2.1/../../../arm-none-eabi/lib/thumb/v7e-m+fp/hard/libm.a(lib_a-wf_asin.o)
 .data          0x00000000        0x0 /usr/lib/gcc/arm-none-eabi/12.2.1/../../../arm-none-eabi/lib/thumb/v7e-m+fp/hard/libm.a(lib_a-wf_atan2.o)
 .bss           0x00000000        0x0 /usr/lib/gcc/arm-none-eabi/12.2.1/../../../arm-none-eabi/lib/thumb/v7e-m+fp/hard/libm.a(lib_a-wf_atan2.o)
 .data          0x00000000        0x0 /usr/lib/gcc/arm-none-eabi/12.2.1/../../../arm-none-eabi/lib/thumb/v7e-m+fp/hard/libm.a(lib_a-wf_fmod.o)
 .bss           0x00000000        0x0 /usr/lib/gcc/arm-none-eabi/12.2.1/../../../arm-none-eabi/lib/thumb/v7e-m+fp/hard/libm.a(lib_a-wf_fmod.o)
 .data          0x00000000        0x0 /usr/lib/gcc/arm-none-eabi/12.2.1/../../../arm-none-eabi/lib/thumb/v7e-m+fp/hard/libm.a(lib_a-wf_sqrt.o)
 .bss           0x00000000        0x0 /usr/lib/gcc/arm-none-eabi/12.2.1/../../../arm-none-eabi/lib/thumb/v7e-m+fp/hard/libm.a(lib_a-wf_sqrt.o)
 .text          0x00000000      0x1a8 /usr/lib/gcc/arm-none-eabi/12.2.1/../../../arm-none-eabi/lib/thumb/v7e-m+fp/hard/libm.a(lib_a-e_atan2.o)
 .data          0x00000000        0x0 /usr/lib/gcc/arm-none-eabi/12.2.1/../../../arm-none-eabi/lib/thumb/v7e-m+fp/hard/libm.a(lib_a-e_atan2.o)
 .bss           0x00000000        0x0 /usr/lib/gcc/arm-none-eabi/12.2.1/../../../arm-none-eabi/lib/thumb/v7e-m+fp/hard/libm.a(lib_a-e_atan2.o)
 .rodata        0x00000000       0x30 /usr/lib/gcc/arm-none-eabi/12.2.1/../../../arm-none-eabi/lib/thumb/v7e-m+fp/hard/libm.a(lib_a-e_atan2.o)
 .debug_info    0x00000000      0x331 /usr/lib/gcc/arm-none-eabi/12.2.1/../../../arm-none-eabi/lib/thumb/v7e-m+fp/hard/libm.a(lib_a-e_atan2.o)
 .debug_abbrev  0x00000000      0x197 /usr/lib/gcc/arm-none-eabi/12.2.1/../../../arm-none-eabi/lib/thumb/v7e-m+fp/hard/libm.a(lib_a-e_atan2.o)
 .debug_loclists
                0x00000000      0x251 /usr/lib/gcc/arm-none-eabi/12.2.1/../../../arm-none-eabi/lib/thumb/v7e-m+fp/hard/libm.a(lib_a-e_atan2.o)
 .debug_aranges
                0x00000000       0x20 /usr/lib/gcc/arm-none-eabi/12.2.1/../../../arm-none-eabi/lib/thumb/v7e-m+fp/hard/libm.a(lib_a-e_atan2.o)
 .debug_rnglists
                0x00000000       0x1e /usr/lib/gcc/arm-none-eabi/12.2.1/../../../arm-none-eabi/lib/thumb/v7e-m+fp/hard/libm.a(lib_a-e_atan2.o)
 .debug_line    0x00000000      0x2ab /usr/lib/gcc/arm-none-eabi/12.2.1/../../../arm-none-eabi/lib/thumb/v7e-m+fp/hard/libm.a(lib_a-e_atan2.o)
 .debug_str     0x00000000      0x239 /usr/lib/gcc/arm-none-eabi/12.2.1/../../../arm-none-eabi/lib/thumb/v7e-m+fp/hard/libm.a(lib_a-e_atan2.o)
 .comment       0x00000000       0x27 /usr/lib/gcc/arm-none-eabi/12.2.1/../../../arm-none-eabi/lib/thumb/v7e-m+fp/hard/libm.a(lib_a-e_atan2.o)
 .debug_frame   0x00000000       0x44 /usr/lib/gcc/arm-none-eabi/12.2.1/../../../arm-none-eabi/lib/thumb/v7e-m+fp/hard/libm.a(lib_a-e_atan2.o)
 .ARM.attributes
                0x00000000       0x34 /usr/lib/gcc/arm-none-eabi/12.2.1/../../../arm-none-eabi/lib/thumb/v7e-m+fp/hard/libm.a(lib_a-e_atan2.o)
 .data          0x00000000        0x0 /usr/lib/gcc/arm-none-eabi/12.2.1/../../../arm-none-eabi/lib/thumb/v7e-m+fp/hard/libm.a(lib_a-e_sqrt.o)
 .bss           0x00000000        0x0 /usr/lib/gcc/arm-none-eabi/12.2.1/../../../arm-none-eabi/lib/thumb/v7e-m+fp/hard/libm.a(lib_a-e_sqrt.o)
 .data          0x00000000        0x0 /usr/lib/gcc/arm-none-eabi/12.2.1/../../../arm-none-eabi/lib/thumb/v7e-m+fp/hard/libm.a(lib_a-ef_acos.o)
 .bss           0x00000000        0x0 /usr/lib/gcc/arm-none-eabi/12.2.1/../../../arm-none-eabi/lib/thumb/v7e-m+fp/hard/libm.a(lib_a-ef_acos.o)
 .data          0x00000000        0x0 /usr/lib/gcc/arm-none-eabi/12.2.1/../../../arm-none-eabi/lib/thumb/v7e-m+fp/hard/libm.a(lib_a-ef_asin.o)
 .bss           0x00000000        0x0 /usr/lib/gcc/arm-none-eabi/12.2.1/../../../arm-none-eabi/lib/thumb/v7e-m+fp/hard/libm.a(lib_a-ef_asin.o)
 .data          0x00000000        0x0 /usr/lib/gcc/arm-none-eabi/12.2.1/../../../arm-none-eabi/lib/thumb/v7e-m+fp/hard/libm.a(lib_a-ef_atan2.o)
 .bss           0x00000000        0x0 /usr/lib/gcc/arm-none-eabi/12.2.1/../../../arm-none-eabi/lib/thumb/v7e-m+fp/hard/libm.a(lib_a-ef_atan2.o)
 .data          0x00000000        0x0 /usr/lib/gcc/arm-none-eabi/12.2.1/../../../arm-none-eabi/lib/thumb/v7e-m+fp/hard/libm.a(lib_a-ef_fmod.o)
 .bss           0x00000000        0x0 /usr/lib/gcc/arm-none-eabi/12.2.1/../../../arm-none-eabi/lib/thumb/v7e-m+fp/hard/libm.a(lib_a-ef_fmod.o)
 .data          0x00000000        0x0 /usr/lib/gcc/arm-none-eabi/12.2.1/../../../arm-none-eabi/lib/thumb/v7e-m+fp/hard/libm.a(lib_a-ef_rem_pio2.o)
 .bss           0x00000000        0x0 /usr/lib/gcc/arm-none-eabi/12.2.1/../../../arm-none-eabi/lib/thumb/v7e-m+fp/hard/libm.a(lib_a-ef_rem_pio2.o)
 .data          0x00000000        0x0 /usr/lib/gcc/arm-none-eabi/12.2.1/../../../arm-none-eabi/lib/thumb/v7e-m+fp/hard/libm.a(lib_a-ef_sqrt.o)
 .bss           0x00000000        0x0 /usr/lib/gcc/arm-none-eabi/12.2.1/../../../arm-none-eabi/lib/thumb/v7e-m+fp/hard/libm.a(lib_a-ef_sqrt.o)
 .data          0x00000000        0x0 /usr/lib/gcc/arm-none-eabi/12.2.1/../../../arm-none-eabi/lib/thumb/v7e-m+fp/hard/libm.a(lib_a-kf_cos.o)
 .bss           0x00000000        0x0 /usr/lib/gcc/arm-none-eabi/12.2.1/../../../arm-none-eabi/lib/thumb/v7e-m+fp/hard/libm.a(lib_a-kf_cos.o)
 .data          0x00000000        0x0 /usr/lib/gcc/arm-none-eabi/12.2.1/../../../arm-none-eabi/lib/thumb/v7e-m+fp/hard/libm.a(lib_a-kf_rem_pio2.o)
 .bss           0x00000000        0x0 /usr/lib/gcc/arm-none-eabi/12.2.1/../../../arm-none-eabi/lib/thumb/v7e-m+fp/hard/libm.a(lib_a-kf_rem_pio2.o)
 .data          0x00000000        0x0 /usr/lib/gcc/arm-none-eabi/12.2.1/../../../arm-none-eabi/lib/thumb/v7e-m+fp/hard/libm.a(lib_a-kf_sin.o)
 .bss           0x00000000        0x0 /usr/lib/gcc/arm-none-eabi/12.2.1/../../../arm-none-eabi/lib/thumb/v7e-m+fp/hard/libm.a(lib_a-kf_sin.o)
 .text          0x00000000      0x32c /usr/lib/gcc/arm-none-eabi/12.2.1/../../../arm-none-eabi/lib/thumb/v7e-m+fp/hard/libm.a(lib_a-s_atan.o)
 .data          0x00000000        0x0 /usr/lib/gcc/arm-none-eabi/12.2.1/../../../arm-none-eabi/lib/thumb/v7e-m+fp/hard/libm.a(lib_a-s_atan.o)
 .bss           0x00000000        0x0 /usr/lib/gcc/arm-none-eabi/12.2.1/../../../arm-none-eabi/lib/thumb/v7e-m+fp/hard/libm.a(lib_a-s_atan.o)
 .rodata        0x00000000       0x40 /usr/lib/gcc/arm-none-eabi/12.2.1/../../../arm-none-eabi/lib/thumb/v7e-m+fp/hard/libm.a(lib_a-s_atan.o)
 .debug_info    0x00000000      0x473 /usr/lib/gcc/arm-none-eabi/12.2.1/../../../arm-none-eabi/lib/thumb/v7e-m+fp/hard/libm.a(lib_a-s_atan.o)
 .debug_abbrev  0x00000000      0x18d /usr/lib/gcc/arm-none-eabi/12.2.1/../../../arm-none-eabi/lib/thumb/v7e-m+fp/hard/libm.a(lib_a-s_atan.o)
 .debug_loclists
                0x00000000      0x1a7 /usr/lib/gcc/arm-none-eabi/12.2.1/../../../arm-none-eabi/lib/thumb/v7e-m+fp/hard/libm.a(lib_a-s_atan.o)
 .debug_aranges
                0x00000000       0x20 /usr/lib/gcc/arm-none-eabi/12.2.1/../../../arm-none-eabi/lib/thumb/v7e-m+fp/hard/libm.a(lib_a-s_atan.o)
 .debug_rnglists
                0x00000000       0x1b /usr/lib/gcc/arm-none-eabi/12.2.1/../../../arm-none-eabi/lib/thumb/v7e-m+fp/hard/libm.a(lib_a-s_atan.o)
 .debug_line    0x00000000      0x309 /usr/lib/gcc/arm-none-eabi/12.2.1/../../../arm-none-eabi/lib/thumb/v7e-m+fp/hard/libm.a(lib_a-s_atan.o)
 .debug_str     0x00000000      0x234 /usr/lib/gcc/arm-none-eabi/12.2.1/../../../arm-none-eabi/lib/thumb/v7e-m+fp/hard/libm.a(lib_a-s_atan.o)
 .comment       0x00000000       0x27 /usr/lib/gcc/arm-none-eabi/12.2.1/../../../arm-none-eabi/lib/thumb/v7e-m+fp/hard/libm.a(lib_a-s_atan.o)
 .debug_frame   0x00000000       0x38 /usr/lib/gcc/arm-none-eabi/12.2.1/../../../arm-none-eabi/lib/thumb/v7e-m+fp/hard/libm.a(lib_a-s_atan.o)
 .ARM.attributes
                0x00000000       0x34 /usr/lib/gcc/arm-none-eabi/12.2.1/../../../arm-none-eabi/lib/thumb/v7e-m+fp/hard/libm.a(lib_a-s_atan.o)
 .text          0x00000000       0x10 /usr/lib/gcc/arm-none-eabi/12.2.1/../../../arm-none-eabi/lib/thumb/v7e-m+fp/hard/libm.a(lib_a-s_fabs.o)
 .data          0x00000000        0x0 /usr/lib/gcc/arm-none-eabi/12.2.1/../../../arm-none-eabi/lib/thumb/v7e-m+fp/hard/libm.a(lib_a-s_fabs.o)
 .bss           0x00000000        0x0 /usr/lib/gcc/arm-none-eabi/12.2.1/../../../arm-none-eabi/lib/thumb/v7e-m+fp/hard/libm.a(lib_a-s_fabs.o)
 .debug_info    0x00000000      0x14b /usr/lib/gcc/arm-none-eabi/12.2.1/../../../arm-none-eabi/lib/thumb/v7e-m+fp/hard/libm.a(lib_a-s_fabs.o)
 .debug_abbrev  0x00000000       0xec /usr/lib/gcc/arm-none-eabi/12.2.1/../../../arm-none-eabi/lib/thumb/v7e-m+fp/hard/libm.a(lib_a-s_fabs.o)
 .debug_loclists
                0x00000000       0x34 /usr/lib/gcc/arm-none-eabi/12.2.1/../../../arm-none-eabi/lib/thumb/v7e-m+fp/hard/libm.a(lib_a-s_fabs.o)
 .debug_aranges
                0x00000000       0x20 /usr/lib/gcc/arm-none-eabi/12.2.1/../../../arm-none-eabi/lib/thumb/v7e-m+fp/hard/libm.a(lib_a-s_fabs.o)
 .debug_line    0x00000000      0x148 /usr/lib/gcc/arm-none-eabi/12.2.1/../../../arm-none-eabi/lib/thumb/v7e-m+fp/hard/libm.a(lib_a-s_fabs.o)
 .debug_str     0x00000000      0x1d4 /usr/lib/gcc/arm-none-eabi/12.2.1/../../../arm-none-eabi/lib/thumb/v7e-m+fp/hard/libm.a(lib_a-s_fabs.o)
 .comment       0x00000000       0x27 /usr/lib/gcc/arm-none-eabi/12.2.1/../../../arm-none-eabi/lib/thumb/v7e-m+fp/hard/libm.a(lib_a-s_fabs.o)
 .debug_frame   0x00000000       0x20 /usr/lib/gcc/arm-none-eabi/12.2.1/../../../arm-none-eabi/lib/thumb/v7e-m+fp/hard/libm.a(lib_a-s_fabs.o)
 .ARM.attributes
                0x00000000       0x34 /usr/lib/gcc/arm-none-eabi/12.2.1/../../../arm-none-eabi/lib/thumb/v7e-m+fp/hard/libm.a(lib_a-s_fabs.o)
 .text          0x00000000        0x0 /usr/lib/gcc/arm-none-eabi/12.2.1/../../../arm-none-eabi/lib/thumb/v7e-m+fp/hard/libm.a(lib_a-s_lib_ver.o)
 .bss           0x00000000        0x0 /usr/lib/gcc/arm-none-eabi/12.2.1/../../../arm-none-eabi/lib/thumb/v7e-m+fp/hard/libm.a(lib_a-s_lib_ver.o)
 .data          0x00000000        0x0 /usr/lib/gcc/arm-none-eabi/12.2.1/../../../arm-none-eabi/lib/thumb/v7e-m+fp/hard/libm.a(lib_a-sf_floor.o)
 .bss           0x00000000        0x0 /usr/lib/gcc/arm-none-eabi/12.2.1/../../../arm-none-eabi/lib/thumb/v7e-m+fp/hard/libm.a(lib_a-sf_floor.o)
 .data          0x00000000        0x0 /usr/lib/gcc/arm-none-eabi/12.2.1/../../../arm-none-eabi/lib/thumb/v7e-m+fp/hard/libm.a(lib_a-sf_nan.o)
 .bss           0x00000000        0x0 /usr/lib/gcc/arm-none-eabi/12.2.1/../../../arm-none-eabi/lib/thumb/v7e-m+fp/hard/libm.a(lib_a-sf_nan.o)
 .data          0x00000000        0x0 /usr/lib/gcc/arm-none-eabi/12.2.1/../../../arm-none-eabi/lib/thumb/v7e-m+fp/hard/libm.a(lib_a-sf_scalbn.o)
 .bss           0x00000000        0x0 /usr/lib/gcc/arm-none-eabi/12.2.1/../../../arm-none-eabi/lib/thumb/v7e-m+fp/hard/libm.a(lib_a-sf_scalbn.o)
 .text          0x00000000      0x254 /usr/lib/gcc/arm-none-eabi/12.2.1/thumb/v7e-m+fp/hard/libgcc.a(_arm_muldf3.o)
 .data          0x00000000        0x0 /usr/lib/gcc/arm-none-eabi/12.2.1/thumb/v7e-m+fp/hard/libgcc.a(_arm_muldf3.o)
 .bss           0x00000000        0x0 /usr/lib/gcc/arm-none-eabi/12.2.1/thumb/v7e-m+fp/hard/libgcc.a(_arm_muldf3.o)
 .debug_line    0x00000000       0xf5 /usr/lib/gcc/arm-none-eabi/12.2.1/thumb/v7e-m+fp/hard/libgcc.a(_arm_muldf3.o)
 .debug_line_str
                0x00000000       0x9c /usr/lib/gcc/arm-none-eabi/12.2.1/thumb/v7e-m+fp/hard/libgcc.a(_arm_muldf3.o)
 .debug_info    0x00000000       0x3c /usr/lib/gcc/arm-none-eabi/12.2.1/thumb/v7e-m+fp/hard/libgcc.a(_arm_muldf3.o)
 .debug_abbrev  0x00000000       0x1f /usr/lib/gcc/arm-none-eabi/12.2.1/thumb/v7e-m+fp/hard/libgcc.a(_arm_muldf3.o)
 .debug_aranges
                0x00000000       0x20 /usr/lib/gcc/arm-none-eabi/12.2.1/thumb/v7e-m+fp/hard/libgcc.a(_arm_muldf3.o)
 .debug_str     0x00000000       0xbe /usr/lib/gcc/arm-none-eabi/12.2.1/thumb/v7e-m+fp/hard/libgcc.a(_arm_muldf3.o)
 .debug_frame   0x00000000       0x30 /usr/lib/gcc/arm-none-eabi/12.2.1/thumb/v7e-m+fp/hard/libgcc.a(_arm_muldf3.o)
 .ARM.attributes
                0x00000000       0x22 /usr/lib/gcc/arm-none-eabi/12.2.1/thumb/v7e-m+fp/hard/libgcc.a(_arm_muldf3.o)
 .data          0x00000000        0x0 /usr/lib/gcc/arm-none-eabi/12.2.1/thumb/v7e-m+fp/hard/libgcc.a(_arm_addsubdf3.o)
 .bss           0x00000000        0x0 /usr/lib/gcc/arm-none-eabi/12.2.1/thumb/v7e-m+fp/hard/libgcc.a(_arm_addsubdf3.o)
 .data          0x00000000        0x0 /usr/lib/gcc/arm-none-eabi/12.2.1/thumb/v7e-m+fp/hard/libgcc.a(_arm_muldivdf3.o)
 .bss           0x00000000        0x0 /usr/lib/gcc/arm-none-eabi/12.2.1/thumb/v7e-m+fp/hard/libgcc.a(_arm_muldivdf3.o)
 .data          0x00000000        0x0 /usr/lib/gcc/arm-none-eabi/12.2.1/thumb/v7e-m+fp/hard/libgcc.a(_arm_cmpdf2.o)
 .bss           0x00000000        0x0 /usr/lib/gcc/arm-none-eabi/12.2.1/thumb/v7e-m+fp/hard/libgcc.a(_arm_cmpdf2.o)
 .data          0x00000000        0x0 /usr/lib/gcc/arm-none-eabi/12.2.1/thumb/v7e-m+fp/hard/libgcc.a(_arm_unorddf2.o)
 .bss           0x00000000        0x0 /usr/lib/gcc/arm-none-eabi/12.2.1/thumb/v7e-m+fp/hard/libgcc.a(_arm_unorddf2.o)
 .data          0x00000000        0x0 /usr/lib/gcc/arm-none-eabi/12.2.1/thumb/v7e-m+fp/hard/libgcc.a(_arm_fixdfsi.o)
 .bss           0x00000000        0x0 /usr/lib/gcc/arm-none-eabi/12.2.1/thumb/v7e-m+fp/hard/libgcc.a(_arm_fixdfsi.o)
 .data          0x00000000        0x0 /usr/lib/gcc/arm-none-eabi/12.2.1/thumb/v7e-m+fp/hard/libgcc.a(_arm_fixunsdfsi.o)
 .bss           0x00000000        0x0 /usr/lib/gcc/arm-none-eabi/12.2.1/thumb/v7e-m+fp/hard/libgcc.a(_arm_fixunsdfsi.o)
 .data          0x00000000        0x0 /usr/lib/gcc/arm-none-eabi/12.2.1/thumb/v7e-m+fp/hard/libgcc.a(_arm_truncdfsf2.o)
 .bss           0x00000000        0x0 /usr/lib/gcc/arm-none-eabi/12.2.1/thumb/v7e-m+fp/hard/libgcc.a(_arm_truncdfsf2.o)
 .data          0x00000000        0x0 /usr/lib/gcc/arm-none-eabi/12.2.1/thumb/v7e-m+fp/hard/libgcc.a(_aeabi_uldivmod.o)
 .bss           0x00000000        0x0 /usr/lib/gcc/arm-none-eabi/12.2.1/thumb/v7e-m+fp/hard/libgcc.a(_aeabi_uldivmod.o)
 .data          0x00000000        0x0 /usr/lib/gcc/arm-none-eabi/12.2.1/thumb/v7e-m+fp/hard/libgcc.a(_udivmoddi4.o)
 .bss           0x00000000        0x0 /usr/lib/gcc/arm-none-eabi/12.2.1/thumb/v7e-m+fp/hard/libgcc.a(_udivmoddi4.o)
 .ARM.extab     0x00000000        0x0 /usr/lib/gcc/arm-none-eabi/12.2.1/thumb/v7e-m+fp/hard/libgcc.a(_udivmoddi4.o)
 .data          0x00000000        0x0 /usr/lib/gcc/arm-none-eabi/12.2.1/thumb/v7e-m+fp/hard/libgcc.a(_dvmd_tls.o)
 .bss           0x00000000        0x0 /usr/lib/gcc/arm-none-eabi/12.2.1/thumb/v7e-m+fp/hard/libgcc.a(_dvmd_tls.o)
 .text          0x00000000        0x0 /usr/lib/gcc/arm-none-eabi/12.2.1/thumb/v7e-m+fp/hard/crtend.o
 .data          0x00000000        0x0 /usr/lib/gcc/arm-none-eabi/12.2.1/thumb/v7e-m+fp/hard/crtend.o
 .bss           0x00000000        0x0 /usr/lib/gcc/arm-none-eabi/12.2.1/thumb/v7e-m+fp/hard/crtend.o
 .rodata        0x00000000       0x24 /usr/lib/gcc/arm-none-eabi/12.2.1/thumb/v7e-m+fp/hard/crtend.o
 .eh_frame      0x00000000        0x4 /usr/lib/gcc/arm-none-eabi/12.2.1/thumb/v7e-m+fp/hard/crtend.o
 .text          0x00000000        0x0 /usr/lib/gcc/arm-none-eabi/12.2.1/thumb/v7e-m+fp/hard/crtn.o
 .data          0x00000000        0x0 /usr/lib/gcc/arm-none-eabi/12.2.1/thumb/v7e-m+fp/hard/crtn.o
 .bss           0x00000000        0x0 /usr/lib/gcc/arm-none-eabi/12.2.1/thumb/v7e-m+fp/hard/crtn.o

Memory Configuration

Name             Origin             Length             Attributes
RAM              0x20000000         0x00020000         xrw
RAM2             0x10000000         0x00008000         xrw
FLASH            0x08000000         0x00080000         xr
*default*        0x00000000         0xffffffff

Linker script and memory map

LOAD /usr/lib/gcc/arm-none-eabi/12.2.1/thumb/v7e-m+fp/hard/crti.o
LOAD /usr/lib/gcc/arm-none-eabi/12.2.1/thumb/v7e-m+fp/hard/crtbegin.o
LOAD /usr/lib/gcc/arm-none-eabi/12.2.1/../../../arm-none-eabi/lib/thumb/v7e-m+fp/hard/crt0.o
LOAD build/main.o
LOAD build/freertos.o
LOAD build/stm32l4xx_it.o
LOAD build/stm32l4xx_hal_msp.o
LOAD build/stm32l4xx_hal_timebase_tim.o
LOAD build/stm32l4xx_ll_utils.o
LOAD build/stm32l4xx_ll_exti.o
LOAD build/stm32l4xx_hal_tim.o
LOAD build/stm32l4xx_hal_tim_ex.o
LOAD build/stm32l4xx_ll_gpio.o
LOAD build/stm32l4xx_hal_adc.o
LOAD build/stm32l4xx_hal_adc_ex.o
LOAD build/stm32l4xx_hal.o
LOAD build/stm32l4xx_hal_rcc.o
LOAD build/stm32l4xx_hal_rcc_ex.o
LOAD build/stm32l4xx_hal_flash.o
LOAD build/stm32l4xx_hal_flash_ex.o
LOAD build/stm32l4xx_hal_flash_ramfunc.o
LOAD build/stm32l4xx_hal_gpio.o
LOAD build/stm32l4xx_hal_i2c.o
LOAD build/stm32l4xx_hal_i2c_ex.o
LOAD build/stm32l4xx_hal_dma.o
LOAD build/stm32l4xx_hal_dma_ex.o
LOAD build/stm32l4xx_hal_pwr.o
LOAD build/stm32l4xx_hal_pwr_ex.o
LOAD build/stm32l4xx_hal_cortex.o
LOAD build/stm32l4xx_hal_exti.o
LOAD build/stm32l4xx_hal_spi.o
LOAD build/stm32l4xx_hal_spi_ex.o
LOAD build/stm32l4xx_hal_uart.o
LOAD build/stm32l4xx_hal_uart_ex.o
LOAD build/system_stm32l4xx.o
LOAD build/croutine.o
LOAD build/event_groups.o
LOAD build/list.o
LOAD build/queue.o
LOAD build/stream_buffer.o
LOAD build/tasks.o
LOAD build/timers.o
LOAD build/cmsis_os2.o
LOAD build/heap_4.o
LOAD build/port.o
LOAD build/sysmem.o
LOAD build/syscalls.o
LOAD build/rlib.o
LOAD build/rbuffer.o
LOAD build/printf.o
LOAD build/mems.o
LOAD build/service.o
LOAD build/apmain.o
LOAD build/apdialog.o
LOAD build/motor.o
LOAD build/autopilot.o
LOAD build/imu.o
LOAD build/geom.o
LOAD build/madgwick.o
LOAD build/quat.o
LOAD build/matrix3f.o
LOAD build/startup_stm32l452xx.o
LOAD /usr/lib/gcc/arm-none-eabi/12.2.1/../../../arm-none-eabi/lib/thumb/v7e-m+fp/hard/libc_nano.a
LOAD /usr/lib/gcc/arm-none-eabi/12.2.1/../../../arm-none-eabi/lib/thumb/v7e-m+fp/hard/libm.a
LOAD /usr/lib/gcc/arm-none-eabi/12.2.1/../../../arm-none-eabi/lib/thumb/v7e-m+fp/hard/libnosys.a
START GROUP
LOAD /usr/lib/gcc/arm-none-eabi/12.2.1/thumb/v7e-m+fp/hard/libgcc.a
LOAD /usr/lib/gcc/arm-none-eabi/12.2.1/../../../arm-none-eabi/lib/thumb/v7e-m+fp/hard/libc_nano.a
END GROUP
START GROUP
LOAD /usr/lib/gcc/arm-none-eabi/12.2.1/thumb/v7e-m+fp/hard/libgcc.a
LOAD /usr/lib/gcc/arm-none-eabi/12.2.1/../../../arm-none-eabi/lib/thumb/v7e-m+fp/hard/libc_nano.a
END GROUP
LOAD /usr/lib/gcc/arm-none-eabi/12.2.1/thumb/v7e-m+fp/hard/crtend.o
LOAD /usr/lib/gcc/arm-none-eabi/12.2.1/thumb/v7e-m+fp/hard/crtn.o
                0x20020000                        _estack = (ORIGIN (RAM) + LENGTH (RAM))
                0x00000200                        _Min_Heap_Size = 0x200
                0x00000400                        _Min_Stack_Size = 0x400

.isr_vector     0x08000000      0x198
                0x08000000                        . = ALIGN (0x8)
 *(.isr_vector)
 .isr_vector    0x08000000      0x194 build/startup_stm32l452xx.o
                0x08000000                g_pfnVectors
                0x08000198                        . = ALIGN (0x8)
 *fill*         0x08000194        0x4 

.text           0x080001a0     0xddb0
                0x080001a0                        . = ALIGN (0x8)
 *(.text)
 .text          0x080001a0       0x88 /usr/lib/gcc/arm-none-eabi/12.2.1/thumb/v7e-m+fp/hard/crtbegin.o
 .text          0x08000228       0x50 /usr/lib/gcc/arm-none-eabi/12.2.1/../../../arm-none-eabi/lib/thumb/v7e-m+fp/hard/libc_nano.a(lib_a-init.o)
                0x08000228                __libc_init_array
 .text          0x08000278      0x1a8 /usr/lib/gcc/arm-none-eabi/12.2.1/../../../arm-none-eabi/lib/thumb/v7e-m+fp/hard/libm.a(lib_a-sf_atan.o)
                0x08000278                atanf
 .text          0x08000420       0x70 /usr/lib/gcc/arm-none-eabi/12.2.1/../../../arm-none-eabi/lib/thumb/v7e-m+fp/hard/libm.a(lib_a-sf_cos.o)
                0x08000420                cosf
 .text          0x08000490       0x10 /usr/lib/gcc/arm-none-eabi/12.2.1/../../../arm-none-eabi/lib/thumb/v7e-m+fp/hard/libm.a(lib_a-sf_fabs.o)
                0x08000490                fabsf
 .text          0x080004a0       0x74 /usr/lib/gcc/arm-none-eabi/12.2.1/../../../arm-none-eabi/lib/thumb/v7e-m+fp/hard/libm.a(lib_a-sf_sin.o)
                0x080004a0                sinf
 .text          0x08000514       0x74 /usr/lib/gcc/arm-none-eabi/12.2.1/../../../arm-none-eabi/lib/thumb/v7e-m+fp/hard/libm.a(lib_a-w_sqrt.o)
                0x08000514                sqrt
 .text          0x08000588       0x68 /usr/lib/gcc/arm-none-eabi/12.2.1/../../../arm-none-eabi/lib/thumb/v7e-m+fp/hard/libm.a(lib_a-wf_acos.o)
                0x08000588                acosf
 .text          0x080005f0       0x68 /usr/lib/gcc/arm-none-eabi/12.2.1/../../../arm-none-eabi/lib/thumb/v7e-m+fp/hard/libm.a(lib_a-wf_asin.o)
                0x080005f0                asinf
 .text          0x08000658        0x4 /usr/lib/gcc/arm-none-eabi/12.2.1/../../../arm-none-eabi/lib/thumb/v7e-m+fp/hard/libm.a(lib_a-wf_atan2.o)
                0x08000658                atan2f
 .text          0x0800065c       0x54 /usr/lib/gcc/arm-none-eabi/12.2.1/../../../arm-none-eabi/lib/thumb/v7e-m+fp/hard/libm.a(lib_a-wf_fmod.o)
                0x0800065c                fmodf
 .text          0x080006b0       0x50 /usr/lib/gcc/arm-none-eabi/12.2.1/../../../arm-none-eabi/lib/thumb/v7e-m+fp/hard/libm.a(lib_a-wf_sqrt.o)
                0x080006b0                sqrtf
 .text          0x08000700      0x198 /usr/lib/gcc/arm-none-eabi/12.2.1/../../../arm-none-eabi/lib/thumb/v7e-m+fp/hard/libm.a(lib_a-e_sqrt.o)
                0x08000700                __ieee754_sqrt
 .text          0x08000898      0x24c /usr/lib/gcc/arm-none-eabi/12.2.1/../../../arm-none-eabi/lib/thumb/v7e-m+fp/hard/libm.a(lib_a-ef_acos.o)
                0x08000898                __ieee754_acosf
 .text          0x08000ae4      0x1fc /usr/lib/gcc/arm-none-eabi/12.2.1/../../../arm-none-eabi/lib/thumb/v7e-m+fp/hard/libm.a(lib_a-ef_asin.o)
                0x08000ae4                __ieee754_asinf
 .text          0x08000ce0      0x14c /usr/lib/gcc/arm-none-eabi/12.2.1/../../../arm-none-eabi/lib/thumb/v7e-m+fp/hard/libm.a(lib_a-ef_atan2.o)
                0x08000ce0                __ieee754_atan2f
 .text          0x08000e2c      0x164 /usr/lib/gcc/arm-none-eabi/12.2.1/../../../arm-none-eabi/lib/thumb/v7e-m+fp/hard/libm.a(lib_a-ef_fmod.o)
                0x08000e2c                __ieee754_fmodf
 .text          0x08000f90      0x260 /usr/lib/gcc/arm-none-eabi/12.2.1/../../../arm-none-eabi/lib/thumb/v7e-m+fp/hard/libm.a(lib_a-ef_rem_pio2.o)
                0x08000f90                __ieee754_rem_pio2f
 .text          0x080011f0        0x8 /usr/lib/gcc/arm-none-eabi/12.2.1/../../../arm-none-eabi/lib/thumb/v7e-m+fp/hard/libm.a(lib_a-ef_sqrt.o)
                0x080011f0                __ieee754_sqrtf
 .text          0x080011f8      0x104 /usr/lib/gcc/arm-none-eabi/12.2.1/../../../arm-none-eabi/lib/thumb/v7e-m+fp/hard/libm.a(lib_a-kf_cos.o)
                0x080011f8                __kernel_cosf
 .text          0x080012fc      0x67c /usr/lib/gcc/arm-none-eabi/12.2.1/../../../arm-none-eabi/lib/thumb/v7e-m+fp/hard/libm.a(lib_a-kf_rem_pio2.o)
                0x080012fc                __kernel_rem_pio2f
 .text          0x08001978       0x90 /usr/lib/gcc/arm-none-eabi/12.2.1/../../../arm-none-eabi/lib/thumb/v7e-m+fp/hard/libm.a(lib_a-kf_sin.o)
                0x08001978                __kernel_sinf
 .text          0x08001a08       0x94 /usr/lib/gcc/arm-none-eabi/12.2.1/../../../arm-none-eabi/lib/thumb/v7e-m+fp/hard/libm.a(lib_a-sf_floor.o)
                0x08001a08                floorf
 .text          0x08001a9c        0xc /usr/lib/gcc/arm-none-eabi/12.2.1/../../../arm-none-eabi/lib/thumb/v7e-m+fp/hard/libm.a(lib_a-sf_nan.o)
                0x08001a9c                nanf
 .text          0x08001aa8       0xdc /usr/lib/gcc/arm-none-eabi/12.2.1/../../../arm-none-eabi/lib/thumb/v7e-m+fp/hard/libm.a(lib_a-sf_scalbn.o)
                0x08001aa8                scalbnf
 .text          0x08001b84      0x378 /usr/lib/gcc/arm-none-eabi/12.2.1/thumb/v7e-m+fp/hard/libgcc.a(_arm_addsubdf3.o)
                0x08001b84                __aeabi_drsub
                0x08001b8c                __aeabi_dsub
                0x08001b8c                __subdf3
                0x08001b90                __adddf3
                0x08001b90                __aeabi_dadd
                0x08001e08                __aeabi_ui2d
                0x08001e08                __floatunsidf
                0x08001e28                __floatsidf
                0x08001e28                __aeabi_i2d
                0x08001e4c                __extendsfdf2
                0x08001e4c                __aeabi_f2d
                0x08001e90                __aeabi_ul2d
                0x08001e90                __floatundidf
                0x08001ea0                __floatdidf
                0x08001ea0                __aeabi_l2d
 .text          0x08001efc      0x424 /usr/lib/gcc/arm-none-eabi/12.2.1/thumb/v7e-m+fp/hard/libgcc.a(_arm_muldivdf3.o)
                0x08001efc                __aeabi_dmul
                0x08001efc                __muldf3
                0x08002150                __aeabi_ddiv
                0x08002150                __divdf3
 .text          0x08002320      0x110 /usr/lib/gcc/arm-none-eabi/12.2.1/thumb/v7e-m+fp/hard/libgcc.a(_arm_cmpdf2.o)
                0x08002320                __gtdf2
                0x08002320                __gedf2
                0x08002328                __ltdf2
                0x08002328                __ledf2
                0x08002330                __cmpdf2
                0x08002330                __eqdf2
                0x08002330                __nedf2
                0x080023ac                __aeabi_cdrcmple
                0x080023bc                __aeabi_cdcmple
                0x080023bc                __aeabi_cdcmpeq
                0x080023cc                __aeabi_dcmpeq
                0x080023e0                __aeabi_dcmplt
                0x080023f4                __aeabi_dcmple
                0x08002408                __aeabi_dcmpge
                0x0800241c                __aeabi_dcmpgt
 .text          0x08002430       0x2c /usr/lib/gcc/arm-none-eabi/12.2.1/thumb/v7e-m+fp/hard/libgcc.a(_arm_unorddf2.o)
                0x08002430                __aeabi_dcmpun
                0x08002430                __unorddf2
 .text          0x0800245c       0x50 /usr/lib/gcc/arm-none-eabi/12.2.1/thumb/v7e-m+fp/hard/libgcc.a(_arm_fixdfsi.o)
                0x0800245c                __fixdfsi
                0x0800245c                __aeabi_d2iz
 .text          0x080024ac       0x40 /usr/lib/gcc/arm-none-eabi/12.2.1/thumb/v7e-m+fp/hard/libgcc.a(_arm_fixunsdfsi.o)
                0x080024ac                __fixunsdfsi
                0x080024ac                __aeabi_d2uiz
 .text          0x080024ec       0xa0 /usr/lib/gcc/arm-none-eabi/12.2.1/thumb/v7e-m+fp/hard/libgcc.a(_arm_truncdfsf2.o)
                0x080024ec                __aeabi_d2f
                0x080024ec                __truncdfsf2
 .text          0x0800258c       0x30 /usr/lib/gcc/arm-none-eabi/12.2.1/thumb/v7e-m+fp/hard/libgcc.a(_aeabi_uldivmod.o)
                0x0800258c                __aeabi_uldivmod
 .text          0x080025bc      0x2bc /usr/lib/gcc/arm-none-eabi/12.2.1/thumb/v7e-m+fp/hard/libgcc.a(_udivmoddi4.o)
                0x080025bc                __udivmoddi4
 .text          0x08002878        0x4 /usr/lib/gcc/arm-none-eabi/12.2.1/thumb/v7e-m+fp/hard/libgcc.a(_dvmd_tls.o)
                0x08002878                __aeabi_ldiv0
                0x08002878                __aeabi_idiv0
 *(.text*)
 .text.NVIC_EncodePriority
                0x0800287c       0x3e build/main.o
 .text.LL_GPIO_SetPinMode
                0x080028ba       0x3c build/main.o
 .text.LL_GPIO_SetPinPull
                0x080028f6       0x3c build/main.o
 *fill*         0x08002932        0x2 
 .text.MX_GPIO_Init
                0x08002934      0x320 build/main.o
 .text.MX_DMA_Init
                0x08002c54       0xa4 build/main.o
 .text.StartDefaultTask
                0x08002cf8        0xa build/main.o
                0x08002cf8                StartDefaultTask
 .text.HAL_TIM_PeriodElapsedCallback
                0x08002d02       0x12 build/main.o
                0x08002d02                HAL_TIM_PeriodElapsedCallback
 .text.Error_Handler
                0x08002d14        0x4 build/main.o
                0x08002d14                Error_Handler
 .text.MX_USART2_UART_Init
                0x08002d18       0x38 build/main.o
 .text.MX_USART1_UART_Init
                0x08002d50       0x38 build/main.o
 .text.MX_ADC1_Init
                0x08002d88       0xa4 build/main.o
 .text.MX_TIM3_Init
                0x08002e2c       0x6c build/main.o
 .text.MX_SPI2_Init
                0x08002e98       0x4c build/main.o
 .text.MX_UART4_Init
                0x08002ee4       0x38 build/main.o
 .text.MX_USART3_UART_Init
                0x08002f1c       0x38 build/main.o
 .text.SystemClock_Config
                0x08002f54       0x88 build/main.o
                0x08002f54                SystemClock_Config
 .text.main     0x08002fdc       0x58 build/main.o
                0x08002fdc                main
 .text.NMI_Handler
                0x08003034        0x2 build/stm32l4xx_it.o
                0x08003034                NMI_Handler
 .text.HardFault_Handler
                0x08003036        0x2 build/stm32l4xx_it.o
                0x08003036                HardFault_Handler
 .text.MemManage_Handler
                0x08003038        0x2 build/stm32l4xx_it.o
                0x08003038                MemManage_Handler
 .text.BusFault_Handler
                0x0800303a        0x2 build/stm32l4xx_it.o
                0x0800303a                BusFault_Handler
 .text.UsageFault_Handler
                0x0800303c        0x2 build/stm32l4xx_it.o
                0x0800303c                UsageFault_Handler
 .text.DebugMon_Handler
                0x0800303e        0x2 build/stm32l4xx_it.o
                0x0800303e                DebugMon_Handler
 .text.EXTI0_IRQHandler
                0x08003040       0x18 build/stm32l4xx_it.o
                0x08003040                EXTI0_IRQHandler
 .text.EXTI1_IRQHandler
                0x08003058       0x18 build/stm32l4xx_it.o
                0x08003058                EXTI1_IRQHandler
 .text.EXTI2_IRQHandler
                0x08003070       0x18 build/stm32l4xx_it.o
                0x08003070                EXTI2_IRQHandler
 .text.DMA1_Channel1_IRQHandler
                0x08003088       0x10 build/stm32l4xx_it.o
                0x08003088                DMA1_Channel1_IRQHandler
 .text.DMA1_Channel4_IRQHandler
                0x08003098       0x10 build/stm32l4xx_it.o
                0x08003098                DMA1_Channel4_IRQHandler
 .text.DMA1_Channel5_IRQHandler
                0x080030a8       0x10 build/stm32l4xx_it.o
                0x080030a8                DMA1_Channel5_IRQHandler
 .text.DMA1_Channel6_IRQHandler
                0x080030b8       0x10 build/stm32l4xx_it.o
                0x080030b8                DMA1_Channel6_IRQHandler
 .text.DMA1_Channel7_IRQHandler
                0x080030c8       0x10 build/stm32l4xx_it.o
                0x080030c8                DMA1_Channel7_IRQHandler
 .text.ADC1_IRQHandler
                0x080030d8       0x10 build/stm32l4xx_it.o
                0x080030d8                ADC1_IRQHandler
 .text.TIM2_IRQHandler
                0x080030e8       0x10 build/stm32l4xx_it.o
                0x080030e8                TIM2_IRQHandler
 .text.SPI2_IRQHandler
                0x080030f8       0x10 build/stm32l4xx_it.o
                0x080030f8                SPI2_IRQHandler
 .text.USART1_IRQHandler
                0x08003108       0x10 build/stm32l4xx_it.o
                0x08003108                USART1_IRQHandler
 .text.USART2_IRQHandler
                0x08003118       0x10 build/stm32l4xx_it.o
                0x08003118                USART2_IRQHandler
 .text.DMA2_Channel6_IRQHandler
                0x08003128       0x10 build/stm32l4xx_it.o
                0x08003128                DMA2_Channel6_IRQHandler
 .text.DMA2_Channel7_IRQHandler
                0x08003138       0x10 build/stm32l4xx_it.o
                0x08003138                DMA2_Channel7_IRQHandler
 .text.HAL_MspInit
                0x08003148       0x40 build/stm32l4xx_hal_msp.o
                0x08003148                HAL_MspInit
 .text.HAL_ADC_MspInit
                0x08003188       0xf0 build/stm32l4xx_hal_msp.o
                0x08003188                HAL_ADC_MspInit
 .text.HAL_SPI_MspInit
                0x08003278       0xe8 build/stm32l4xx_hal_msp.o
                0x08003278                HAL_SPI_MspInit
 .text.HAL_TIM_Base_MspInit
                0x08003360       0x64 build/stm32l4xx_hal_msp.o
                0x08003360                HAL_TIM_Base_MspInit
 .text.HAL_UART_MspInit
                0x080033c4      0x2ac build/stm32l4xx_hal_msp.o
                0x080033c4                HAL_UART_MspInit
 .text.HAL_InitTick
                0x08003670       0xa0 build/stm32l4xx_hal_timebase_tim.o
                0x08003670                HAL_InitTick
 .text.LL_EXTI_Init
                0x08003710      0x19c build/stm32l4xx_ll_exti.o
                0x08003710                LL_EXTI_Init
 .text.TIM_TI1_ConfigInputStage
                0x080038ac       0x26 build/stm32l4xx_hal_tim.o
 .text.TIM_TI2_ConfigInputStage
                0x080038d2       0x28 build/stm32l4xx_hal_tim.o
 .text.TIM_ITRx_SetConfig
                0x080038fa       0x10 build/stm32l4xx_hal_tim.o
 *fill*         0x0800390a        0x2 
 .text.HAL_TIM_Base_Start
                0x0800390c       0x6c build/stm32l4xx_hal_tim.o
                0x0800390c                HAL_TIM_Base_Start
 .text.HAL_TIM_Base_Start_IT
                0x08003978       0x74 build/stm32l4xx_hal_tim.o
                0x08003978                HAL_TIM_Base_Start_IT
 .text.HAL_TIM_OC_DelayElapsedCallback
                0x080039ec        0x2 build/stm32l4xx_hal_tim.o
                0x080039ec                HAL_TIM_OC_DelayElapsedCallback
 .text.HAL_TIM_IC_CaptureCallback
                0x080039ee        0x2 build/stm32l4xx_hal_tim.o
                0x080039ee                HAL_TIM_IC_CaptureCallback
 .text.HAL_TIM_PWM_PulseFinishedCallback
                0x080039f0        0x2 build/stm32l4xx_hal_tim.o
                0x080039f0                HAL_TIM_PWM_PulseFinishedCallback
 .text.HAL_TIM_TriggerCallback
                0x080039f2        0x2 build/stm32l4xx_hal_tim.o
                0x080039f2                HAL_TIM_TriggerCallback
 .text.HAL_TIM_IRQHandler
                0x080039f4      0x17a build/stm32l4xx_hal_tim.o
                0x080039f4                HAL_TIM_IRQHandler
 *fill*         0x08003b6e        0x2 
 .text.TIM_Base_SetConfig
                0x08003b70       0x90 build/stm32l4xx_hal_tim.o
                0x08003b70                TIM_Base_SetConfig
 .text.HAL_TIM_Base_Init
                0x08003c00       0x60 build/stm32l4xx_hal_tim.o
                0x08003c00                HAL_TIM_Base_Init
 .text.TIM_ETR_SetConfig
                0x08003c60       0x1a build/stm32l4xx_hal_tim.o
                0x08003c60                TIM_ETR_SetConfig
 *fill*         0x08003c7a        0x2 
 .text.HAL_TIM_ConfigClockSource
                0x08003c7c      0x100 build/stm32l4xx_hal_tim.o
                0x08003c7c                HAL_TIM_ConfigClockSource
 .text.HAL_TIMEx_MasterConfigSynchronization
                0x08003d7c       0x78 build/stm32l4xx_hal_tim_ex.o
                0x08003d7c                HAL_TIMEx_MasterConfigSynchronization
 .text.HAL_TIMEx_CommutCallback
                0x08003df4        0x2 build/stm32l4xx_hal_tim_ex.o
                0x08003df4                HAL_TIMEx_CommutCallback
 .text.HAL_TIMEx_BreakCallback
                0x08003df6        0x2 build/stm32l4xx_hal_tim_ex.o
                0x08003df6                HAL_TIMEx_BreakCallback
 .text.HAL_TIMEx_Break2Callback
                0x08003df8        0x2 build/stm32l4xx_hal_tim_ex.o
                0x08003df8                HAL_TIMEx_Break2Callback
 .text.LL_GPIO_SetPinMode
                0x08003dfa       0x3c build/stm32l4xx_ll_gpio.o
 .text.LL_GPIO_SetPinSpeed
                0x08003e36       0x3c build/stm32l4xx_ll_gpio.o
 .text.LL_GPIO_SetPinPull
                0x08003e72       0x3c build/stm32l4xx_ll_gpio.o
 .text.LL_GPIO_SetAFPin_0_7
                0x08003eae       0x3c build/stm32l4xx_ll_gpio.o
 .text.LL_GPIO_SetAFPin_8_15
                0x08003eea       0x3e build/stm32l4xx_ll_gpio.o
 .text.LL_GPIO_Init
                0x08003f28       0x88 build/stm32l4xx_ll_gpio.o
                0x08003f28                LL_GPIO_Init
 .text.LL_ADC_REG_SetSequencerRanks
                0x08003fb0       0x30 build/stm32l4xx_hal_adc.o
 .text.LL_ADC_SetChannelSamplingTime
                0x08003fe0       0x2c build/stm32l4xx_hal_adc.o
 .text.HAL_ADC_Init
                0x0800400c      0x1d4 build/stm32l4xx_hal_adc.o
                0x0800400c                HAL_ADC_Init
 .text.HAL_ADC_ConvHalfCpltCallback
                0x080041e0        0x2 build/stm32l4xx_hal_adc.o
                0x080041e0                HAL_ADC_ConvHalfCpltCallback
 .text.ADC_DMAHalfConvCplt
                0x080041e2        0xa build/stm32l4xx_hal_adc.o
                0x080041e2                ADC_DMAHalfConvCplt
 .text.HAL_ADC_LevelOutOfWindowCallback
                0x080041ec        0x2 build/stm32l4xx_hal_adc.o
                0x080041ec                HAL_ADC_LevelOutOfWindowCallback
 .text.HAL_ADC_ErrorCallback
                0x080041ee        0x2 build/stm32l4xx_hal_adc.o
                0x080041ee                HAL_ADC_ErrorCallback
 .text.HAL_ADC_IRQHandler
                0x080041f0      0x234 build/stm32l4xx_hal_adc.o
                0x080041f0                HAL_ADC_IRQHandler
 .text.ADC_DMAConvCplt
                0x08004424       0x88 build/stm32l4xx_hal_adc.o
                0x08004424                ADC_DMAConvCplt
 .text.ADC_DMAError
                0x080044ac       0x1a build/stm32l4xx_hal_adc.o
                0x080044ac                ADC_DMAError
 *fill*         0x080044c6        0x2 
 .text.HAL_ADC_ConfigChannel
                0x080044c8      0x440 build/stm32l4xx_hal_adc.o
                0x080044c8                HAL_ADC_ConfigChannel
 .text.ADC_Enable
                0x08004908       0xdc build/stm32l4xx_hal_adc.o
                0x08004908                ADC_Enable
 .text.HAL_ADC_Start_DMA
                0x080049e4       0xc0 build/stm32l4xx_hal_adc.o
                0x080049e4                HAL_ADC_Start_DMA
 .text.HAL_ADCEx_InjectedConvCpltCallback
                0x08004aa4        0x2 build/stm32l4xx_hal_adc_ex.o
                0x08004aa4                HAL_ADCEx_InjectedConvCpltCallback
 .text.HAL_ADCEx_InjectedQueueOverflowCallback
                0x08004aa6        0x2 build/stm32l4xx_hal_adc_ex.o
                0x08004aa6                HAL_ADCEx_InjectedQueueOverflowCallback
 .text.HAL_ADCEx_LevelOutOfWindow2Callback
                0x08004aa8        0x2 build/stm32l4xx_hal_adc_ex.o
                0x08004aa8                HAL_ADCEx_LevelOutOfWindow2Callback
 .text.HAL_ADCEx_LevelOutOfWindow3Callback
                0x08004aaa        0x2 build/stm32l4xx_hal_adc_ex.o
                0x08004aaa                HAL_ADCEx_LevelOutOfWindow3Callback
 .text.HAL_ADCEx_EndOfSamplingCallback
                0x08004aac        0x2 build/stm32l4xx_hal_adc_ex.o
                0x08004aac                HAL_ADCEx_EndOfSamplingCallback
 *fill*         0x08004aae        0x2 
 .text.HAL_Init
                0x08004ab0       0x2c build/stm32l4xx_hal.o
                0x08004ab0                HAL_Init
 .text.HAL_IncTick
                0x08004adc       0x18 build/stm32l4xx_hal.o
                0x08004adc                HAL_IncTick
 .text.HAL_GetTick
                0x08004af4        0xc build/stm32l4xx_hal.o
                0x08004af4                HAL_GetTick
 .text.RCC_SetFlashLatencyFromMSIRange
                0x08004b00       0x90 build/stm32l4xx_hal_rcc.o
 .text.HAL_RCC_MCOConfig
                0x08004b90       0x4c build/stm32l4xx_hal_rcc.o
                0x08004b90                HAL_RCC_MCOConfig
 .text.HAL_RCC_GetSysClockFreq
                0x08004bdc       0xb4 build/stm32l4xx_hal_rcc.o
                0x08004bdc                HAL_RCC_GetSysClockFreq
 .text.HAL_RCC_OscConfig
                0x08004c90      0x66c build/stm32l4xx_hal_rcc.o
                0x08004c90                HAL_RCC_OscConfig
 .text.HAL_RCC_ClockConfig
                0x080052fc      0x188 build/stm32l4xx_hal_rcc.o
                0x080052fc                HAL_RCC_ClockConfig
 .text.HAL_RCC_GetHCLKFreq
                0x08005484        0xc build/stm32l4xx_hal_rcc.o
                0x08005484                HAL_RCC_GetHCLKFreq
 .text.HAL_RCC_GetPCLK1Freq
                0x08005490       0x24 build/stm32l4xx_hal_rcc.o
                0x08005490                HAL_RCC_GetPCLK1Freq
 .text.HAL_RCC_GetPCLK2Freq
                0x080054b4       0x24 build/stm32l4xx_hal_rcc.o
                0x080054b4                HAL_RCC_GetPCLK2Freq
 .text.HAL_RCC_GetClockConfig
                0x080054d8       0x3c build/stm32l4xx_hal_rcc.o
                0x080054d8                HAL_RCC_GetClockConfig
 .text.RCCEx_PLLSAI1_Config
                0x08005514      0x16c build/stm32l4xx_hal_rcc_ex.o
 .text.HAL_RCCEx_PeriphCLKConfig
                0x08005680      0x398 build/stm32l4xx_hal_rcc_ex.o
                0x08005680                HAL_RCCEx_PeriphCLKConfig
 .text.HAL_GPIO_Init
                0x08005a18      0x1c8 build/stm32l4xx_hal_gpio.o
                0x08005a18                HAL_GPIO_Init
 .text.DMA_SetConfig
                0x08005be0       0x32 build/stm32l4xx_hal_dma.o
 *fill*         0x08005c12        0x2 
 .text.HAL_DMA_Init
                0x08005c14      0x108 build/stm32l4xx_hal_dma.o
                0x08005c14                HAL_DMA_Init
 .text.HAL_DMA_Start_IT
                0x08005d1c       0x76 build/stm32l4xx_hal_dma.o
                0x08005d1c                HAL_DMA_Start_IT
 .text.HAL_DMA_Abort
                0x08005d92       0x4a build/stm32l4xx_hal_dma.o
                0x08005d92                HAL_DMA_Abort
 .text.HAL_DMA_Abort_IT
                0x08005ddc       0x50 build/stm32l4xx_hal_dma.o
                0x08005ddc                HAL_DMA_Abort_IT
 .text.HAL_DMA_IRQHandler
                0x08005e2c       0xc4 build/stm32l4xx_hal_dma.o
                0x08005e2c                HAL_DMA_IRQHandler
 .text.HAL_PWREx_GetVoltageRange
                0x08005ef0       0x10 build/stm32l4xx_hal_pwr_ex.o
                0x08005ef0                HAL_PWREx_GetVoltageRange
 .text.HAL_PWREx_ControlVoltageScaling
                0x08005f00       0x90 build/stm32l4xx_hal_pwr_ex.o
                0x08005f00                HAL_PWREx_ControlVoltageScaling
 .text.__NVIC_EnableIRQ
                0x08005f90       0x1c build/stm32l4xx_hal_cortex.o
 .text.__NVIC_SetPriority
                0x08005fac       0x28 build/stm32l4xx_hal_cortex.o
 .text.NVIC_EncodePriority
                0x08005fd4       0x3e build/stm32l4xx_hal_cortex.o
 *fill*         0x08006012        0x2 
 .text.HAL_NVIC_SetPriorityGrouping
                0x08006014       0x24 build/stm32l4xx_hal_cortex.o
                0x08006014                HAL_NVIC_SetPriorityGrouping
 .text.HAL_NVIC_SetPriority
                0x08006038       0x20 build/stm32l4xx_hal_cortex.o
                0x08006038                HAL_NVIC_SetPriority
 .text.HAL_NVIC_EnableIRQ
                0x08006058        0x8 build/stm32l4xx_hal_cortex.o
                0x08006058                HAL_NVIC_EnableIRQ
 .text.SPI_WaitFlagStateUntilTimeout
                0x08006060       0xc8 build/stm32l4xx_hal_spi.o
 .text.SPI_WaitFifoStateUntilTimeout
                0x08006128       0xf0 build/stm32l4xx_hal_spi.o
 .text.SPI_EndRxTxTransaction
                0x08006218       0x62 build/stm32l4xx_hal_spi.o
 .text.SPI_EndRxTransaction
                0x0800627a       0x82 build/stm32l4xx_hal_spi.o
 .text.HAL_SPI_Init
                0x080062fc       0xde build/stm32l4xx_hal_spi.o
                0x080062fc                HAL_SPI_Init
 *fill*         0x080063da        0x2 
 .text.HAL_SPI_TransmitReceive_DMA
                0x080063dc      0x218 build/stm32l4xx_hal_spi.o
                0x080063dc                HAL_SPI_TransmitReceive_DMA
 .text.HAL_SPI_RxCpltCallback
                0x080065f4        0x2 build/stm32l4xx_hal_spi.o
                0x080065f4                HAL_SPI_RxCpltCallback
 .text.HAL_SPI_RxHalfCpltCallback
                0x080065f6        0x2 build/stm32l4xx_hal_spi.o
                0x080065f6                HAL_SPI_RxHalfCpltCallback
 .text.SPI_DMAHalfReceiveCplt
                0x080065f8        0xa build/stm32l4xx_hal_spi.o
 .text.HAL_SPI_TxRxHalfCpltCallback
                0x08006602        0x2 build/stm32l4xx_hal_spi.o
                0x08006602                HAL_SPI_TxRxHalfCpltCallback
 .text.SPI_DMAHalfTransmitReceiveCplt
                0x08006604        0xa build/stm32l4xx_hal_spi.o
 .text.SPI_DMAError
                0x0800660e       0x22 build/stm32l4xx_hal_spi.o
 .text.SPI_DMAReceiveCplt
                0x08006630       0x70 build/stm32l4xx_hal_spi.o
 .text.SPI_DMATransmitReceiveCplt
                0x080066a0       0x5e build/stm32l4xx_hal_spi.o
 *fill*         0x080066fe        0x2 
 .text.HAL_SPI_IRQHandler
                0x08006700      0x118 build/stm32l4xx_hal_spi.o
                0x08006700                HAL_SPI_IRQHandler
 .text.SPI_DMAAbortOnError
                0x08006818       0x12 build/stm32l4xx_hal_spi.o
 .text.UART_EndTxTransfer
                0x0800682a       0x18 build/stm32l4xx_hal_uart.o
 .text.UART_EndRxTransfer
                0x08006842       0x52 build/stm32l4xx_hal_uart.o
 .text.HAL_UART_Transmit_DMA
                0x08006894       0x98 build/stm32l4xx_hal_uart.o
                0x08006894                HAL_UART_Transmit_DMA
 .text.UART_DMATransmitCplt
                0x0800692c       0x48 build/stm32l4xx_hal_uart.o
 .text.UART_EndTransmit_IT
                0x08006974       0x22 build/stm32l4xx_hal_uart.o
 .text.HAL_UART_TxHalfCpltCallback
                0x08006996        0x2 build/stm32l4xx_hal_uart.o
                0x08006996                HAL_UART_TxHalfCpltCallback
 .text.UART_DMATxHalfCplt
                0x08006998        0xa build/stm32l4xx_hal_uart.o
 .text.HAL_UART_ErrorCallback
                0x080069a2        0x2 build/stm32l4xx_hal_uart.o
                0x080069a2                HAL_UART_ErrorCallback
 .text.UART_DMAError
                0x080069a4       0x56 build/stm32l4xx_hal_uart.o
 .text.UART_DMAAbortOnError
                0x080069fa       0x14 build/stm32l4xx_hal_uart.o
 .text.HAL_UARTEx_RxEventCallback
                0x08006a0e        0x2 build/stm32l4xx_hal_uart.o
                0x08006a0e                HAL_UARTEx_RxEventCallback
 .text.HAL_UART_IRQHandler
                0x08006a10      0x308 build/stm32l4xx_hal_uart.o
                0x08006a10                HAL_UART_IRQHandler
 .text.UART_RxISR_8BIT
                0x08006d18       0xdc build/stm32l4xx_hal_uart.o
 .text.UART_RxISR_16BIT
                0x08006df4       0xdc build/stm32l4xx_hal_uart.o
 .text.HAL_UART_GetState
                0x08006ed0        0xa build/stm32l4xx_hal_uart.o
                0x08006ed0                HAL_UART_GetState
 *fill*         0x08006eda        0x2 
 .text.UART_SetConfig
                0x08006edc      0x2e0 build/stm32l4xx_hal_uart.o
                0x08006edc                UART_SetConfig
 .text.UART_AdvFeatureConfig
                0x080071bc       0xca build/stm32l4xx_hal_uart.o
                0x080071bc                UART_AdvFeatureConfig
 .text.UART_WaitOnFlagUntilTimeout
                0x08007286       0x9e build/stm32l4xx_hal_uart.o
                0x08007286                UART_WaitOnFlagUntilTimeout
 .text.UART_CheckIdleState
                0x08007324       0xc6 build/stm32l4xx_hal_uart.o
                0x08007324                UART_CheckIdleState
 .text.HAL_UART_Init
                0x080073ea       0x62 build/stm32l4xx_hal_uart.o
                0x080073ea                HAL_UART_Init
 .text.UART_Start_Receive_IT
                0x0800744c       0xd4 build/stm32l4xx_hal_uart.o
                0x0800744c                UART_Start_Receive_IT
 .text.HAL_UART_Receive_IT
                0x08007520       0x4c build/stm32l4xx_hal_uart.o
                0x08007520                HAL_UART_Receive_IT
 .text.HAL_UARTEx_WakeupCallback
                0x0800756c        0x2 build/stm32l4xx_hal_uart_ex.o
                0x0800756c                HAL_UARTEx_WakeupCallback
 *fill*         0x0800756e        0x2 
 .text.SystemInit
                0x08007570       0x14 build/system_stm32l4xx.o
                0x08007570                SystemInit
 .text.vListInitialise
                0x08007584       0x16 build/list.o
                0x08007584                vListInitialise
 .text.vListInitialiseItem
                0x0800759a        0x6 build/list.o
                0x0800759a                vListInitialiseItem
 .text.vListInsertEnd
                0x080075a0       0x16 build/list.o
                0x080075a0                vListInsertEnd
 .text.vListInsert
                0x080075b6       0x32 build/list.o
                0x080075b6                vListInsert
 .text.uxListRemove
                0x080075e8       0x26 build/list.o
                0x080075e8                uxListRemove
 .text.prvGetDisinheritPriorityAfterTimeout
                0x0800760e       0x10 build/queue.o
 .text.prvIsQueueFull
                0x0800761e       0x1e build/queue.o
 .text.prvIsQueueEmpty
                0x0800763c       0x1a build/queue.o
 .text.prvCopyDataToQueue
                0x08007656       0x76 build/queue.o
 .text.prvCopyDataFromQueue
                0x080076cc       0x24 build/queue.o
 .text.prvUnlockQueue
                0x080076f0       0x6e build/queue.o
 .text.xQueueGenericReset
                0x0800775e       0x84 build/queue.o
                0x0800775e                xQueueGenericReset
 .text.prvInitialiseNewQueue
                0x080077e2       0x22 build/queue.o
 .text.xQueueGenericCreateStatic
                0x08007804       0x94 build/queue.o
                0x08007804                xQueueGenericCreateStatic
 .text.xQueueGenericCreate
                0x08007898       0x48 build/queue.o
                0x08007898                xQueueGenericCreate
 .text.xQueueGenericSend
                0x080078e0      0x188 build/queue.o
                0x080078e0                xQueueGenericSend
 .text.prvInitialiseMutex
                0x08007a68       0x18 build/queue.o
 .text.xQueueCreateMutex
                0x08007a80       0x16 build/queue.o
                0x08007a80                xQueueCreateMutex
 .text.xQueueGenericSendFromISR
                0x08007a96       0xce build/queue.o
                0x08007a96                xQueueGenericSendFromISR
 .text.xQueueGiveFromISR
                0x08007b64       0xb2 build/queue.o
                0x08007b64                xQueueGiveFromISR
 .text.xQueueReceive
                0x08007c16      0x15e build/queue.o
                0x08007c16                xQueueReceive
 .text.xQueueSemaphoreTake
                0x08007d74      0x1a6 build/queue.o
                0x08007d74                xQueueSemaphoreTake
 *fill*         0x08007f1a        0x2 
 .text.vQueueAddToRegistry
                0x08007f1c       0x28 build/queue.o
                0x08007f1c                vQueueAddToRegistry
 .text.vQueueWaitForMessageRestricted
                0x08007f44       0x52 build/queue.o
                0x08007f44                vQueueWaitForMessageRestricted
 .text.prvBytesInBuffer
                0x08007f96       0x12 build/stream_buffer.o
 .text.prvInitialiseNewStreamBuffer
                0x08007fa8       0x40 build/stream_buffer.o
 .text.prvWriteBytesToBuffer
                0x08007fe8       0x8c build/stream_buffer.o
 .text.prvWriteMessageToBuffer
                0x08008074       0x44 build/stream_buffer.o
 .text.prvReadBytesFromBuffer
                0x080080b8       0x82 build/stream_buffer.o
 .text.prvReadMessageFromBuffer
                0x0800813a       0x4c build/stream_buffer.o
 .text.xStreamBufferGenericCreate
                0x08008186       0x74 build/stream_buffer.o
                0x08008186                xStreamBufferGenericCreate
 .text.xStreamBufferSpacesAvailable
                0x080081fa       0x2a build/stream_buffer.o
                0x080081fa                xStreamBufferSpacesAvailable
 .text.xStreamBufferSendFromISR
                0x08008224       0xa4 build/stream_buffer.o
                0x08008224                xStreamBufferSendFromISR
 .text.xStreamBufferReceive
                0x080082c8       0xea build/stream_buffer.o
                0x080082c8                xStreamBufferReceive
 *fill*         0x080083b2        0x2 
 .text.prvResetNextTaskUnblockTime
                0x080083b4       0x2c build/tasks.o
 .text.prvInitialiseNewTask
                0x080083e0       0xa2 build/tasks.o
 *fill*         0x08008482        0x2 
 .text.prvInitialiseTaskLists
                0x08008484       0x68 build/tasks.o
 .text.prvAddNewTaskToReadyList
                0x080084ec       0xac build/tasks.o
 .text.prvDeleteTCB
                0x08008598       0x38 build/tasks.o
 .text.prvCheckTasksWaitingTermination
                0x080085d0       0x4c build/tasks.o
 .text.prvIdleTask
                0x0800861c       0x28 build/tasks.o
 .text.prvAddCurrentTaskToDelayedList
                0x08008644       0x7c build/tasks.o
 .text.xTaskCreateStatic
                0x080086c0       0x76 build/tasks.o
                0x080086c0                xTaskCreateStatic
 .text.xTaskCreate
                0x08008736       0x64 build/tasks.o
                0x08008736                xTaskCreate
 *fill*         0x0800879a        0x2 
 .text.vTaskStartScheduler
                0x0800879c       0x98 build/tasks.o
                0x0800879c                vTaskStartScheduler
 .text.vTaskSuspendAll
                0x08008834       0x10 build/tasks.o
                0x08008834                vTaskSuspendAll
 .text.xTaskGetTickCount
                0x08008844        0xc build/tasks.o
                0x08008844                xTaskGetTickCount
 .text.xTaskIncrementTick
                0x08008850      0x118 build/tasks.o
                0x08008850                xTaskIncrementTick
 .text.xTaskResumeAll
                0x08008968       0xf8 build/tasks.o
                0x08008968                xTaskResumeAll
 .text.vTaskDelay
                0x08008a60       0x4c build/tasks.o
                0x08008a60                vTaskDelay
 .text.vTaskSwitchContext
                0x08008aac       0x98 build/tasks.o
                0x08008aac                vTaskSwitchContext
 .text.vTaskPlaceOnEventList
                0x08008b44       0x30 build/tasks.o
                0x08008b44                vTaskPlaceOnEventList
 .text.vTaskPlaceOnEventListRestricted
                0x08008b74       0x38 build/tasks.o
                0x08008b74                vTaskPlaceOnEventListRestricted
 .text.xTaskRemoveFromEventList
                0x08008bac       0x8c build/tasks.o
                0x08008bac                xTaskRemoveFromEventList
 .text.vTaskInternalSetTimeOutState
                0x08008c38       0x18 build/tasks.o
                0x08008c38                vTaskInternalSetTimeOutState
 .text.xTaskCheckForTimeOut
                0x08008c50       0x84 build/tasks.o
                0x08008c50                xTaskCheckForTimeOut
 .text.vTaskMissedYield
                0x08008cd4        0xc build/tasks.o
                0x08008cd4                vTaskMissedYield
 .text.xTaskGetCurrentTaskHandle
                0x08008ce0        0xc build/tasks.o
                0x08008ce0                xTaskGetCurrentTaskHandle
 .text.xTaskGetSchedulerState
                0x08008cec       0x20 build/tasks.o
                0x08008cec                xTaskGetSchedulerState
 .text.xTaskPriorityInherit
                0x08008d0c       0x98 build/tasks.o
                0x08008d0c                xTaskPriorityInherit
 .text.xTaskPriorityDisinherit
                0x08008da4       0x90 build/tasks.o
                0x08008da4                xTaskPriorityDisinherit
 .text.vTaskPriorityDisinheritAfterTimeout
                0x08008e34       0xa0 build/tasks.o
                0x08008e34                vTaskPriorityDisinheritAfterTimeout
 .text.pvTaskIncrementMutexHeldCount
                0x08008ed4       0x1c build/tasks.o
                0x08008ed4                pvTaskIncrementMutexHeldCount
 .text.xTaskNotifyWait
                0x08008ef0       0x98 build/tasks.o
                0x08008ef0                xTaskNotifyWait
 .text.xTaskGenericNotify
                0x08008f88       0xf8 build/tasks.o
                0x08008f88                xTaskGenericNotify
 .text.xTaskGenericNotifyFromISR
                0x08009080      0x128 build/tasks.o
                0x08009080                xTaskGenericNotifyFromISR
 .text.xTaskNotifyStateClear
                0x080091a8       0x34 build/tasks.o
                0x080091a8                xTaskNotifyStateClear
 .text.prvGetNextExpireTime
                0x080091dc       0x20 build/timers.o
 .text.prvInsertTimerInActiveList
                0x080091fc       0x48 build/timers.o
 .text.prvCheckForValidListAndQueue
                0x08009244       0x70 build/timers.o
 .text.prvInitialiseNewTimer
                0x080092b4       0x4c build/timers.o
 .text.xTimerCreateTimerTask
                0x08009300       0x64 build/timers.o
                0x08009300                xTimerCreateTimerTask
 .text.xTimerCreate
                0x08009364       0x38 build/timers.o
                0x08009364                xTimerCreate
 .text.xTimerGenericCommand
                0x0800939c       0x6c build/timers.o
                0x0800939c                xTimerGenericCommand
 .text.prvSwitchTimerLists
                0x08009408       0x7c build/timers.o
 .text.prvSampleTimeNow
                0x08009484       0x2c build/timers.o
 .text.prvProcessExpiredTimer
                0x080094b0       0x6c build/timers.o
 .text.prvProcessTimerOrBlockTask
                0x0800951c       0x74 build/timers.o
 .text.prvProcessReceivedCommands
                0x08009590      0x10c build/timers.o
 .text.prvTimerTask
                0x0800969c       0x16 build/timers.o
 .text.SysTick_Handler
                0x080096b2       0x18 build/cmsis_os2.o
                0x080096b2                SysTick_Handler
 *fill*         0x080096ca        0x2 
 .text.osKernelInitialize
                0x080096cc       0x24 build/cmsis_os2.o
                0x080096cc                osKernelInitialize
 .text.osKernelStart
                0x080096f0       0x38 build/cmsis_os2.o
                0x080096f0                osKernelStart
 .text.osThreadNew
                0x08009728       0xbc build/cmsis_os2.o
                0x08009728                osThreadNew
 .text.osDelay  0x080097e4       0x1c build/cmsis_os2.o
                0x080097e4                osDelay
 .text.vApplicationGetIdleTaskMemory
                0x08009800       0x18 build/cmsis_os2.o
                0x08009800                vApplicationGetIdleTaskMemory
 .text.vApplicationGetTimerTaskMemory
                0x08009818       0x18 build/cmsis_os2.o
                0x08009818                vApplicationGetTimerTaskMemory
 .text.prvHeapInit
                0x08009830       0x64 build/heap_4.o
 .text.prvInsertBlockIntoFreeList
                0x08009894       0x64 build/heap_4.o
 .text.pvPortMalloc
                0x080098f8      0x104 build/heap_4.o
                0x080098f8                pvPortMalloc
 .text.vPortFree
                0x080099fc       0x7c build/heap_4.o
                0x080099fc                vPortFree
 .text.prvTaskExitError
                0x08009a78       0x40 build/port.o
 .text.prvPortStartFirstTask
                0x08009ab8       0x28 build/port.o
 .text.vPortEnableVFP
                0x08009ae0       0x14 build/port.o
 .text.pxPortInitialiseStack
                0x08009af4       0x2c build/port.o
                0x08009af4                pxPortInitialiseStack
 .text.SVC_Handler
                0x08009b20       0x24 build/port.o
                0x08009b20                SVC_Handler
 .text.vPortEnterCritical
                0x08009b44       0x44 build/port.o
                0x08009b44                vPortEnterCritical
 .text.vPortExitCritical
                0x08009b88       0x2c build/port.o
                0x08009b88                vPortExitCritical
 *fill*         0x08009bb4        0xc 
 .text.PendSV_Handler
                0x08009bc0       0x64 build/port.o
                0x08009bc0                PendSV_Handler
 .text.xPortSysTickHandler
                0x08009c24       0x2c build/port.o
                0x08009c24                xPortSysTickHandler
 .text.vPortSetupTimerInterrupt
                0x08009c50       0x28 build/port.o
                0x08009c50                vPortSetupTimerInterrupt
 .text.xPortStartScheduler
                0x08009c78      0x118 build/port.o
                0x08009c78                xPortStartScheduler
 .text.vPortValidateInterruptPriority
                0x08009d90       0x5c build/port.o
                0x08009d90                vPortValidateInterruptPriority
 .text.memset   0x08009dec       0x14 build/rlib.o
                0x08009dec                memset
 .text.memcpy   0x08009e00       0x18 build/rlib.o
                0x08009e00                memcpy
 .text.strlen   0x08009e18       0x10 build/rlib.o
                0x08009e18                strlen
 .text.rbuffer_init
                0x08009e28        0xe build/rbuffer.o
                0x08009e28                rbuffer_init
 .text.rbuffer_skip
                0x08009e36       0x12 build/rbuffer.o
                0x08009e36                rbuffer_skip
 .text.rbuffer_getAvailSpace
                0x08009e48       0x1a build/rbuffer.o
                0x08009e48                rbuffer_getAvailSpace
 .text.rbuffer_write
                0x08009e62       0x36 build/rbuffer.o
                0x08009e62                rbuffer_write
 .text.rbuffer_isEmpty
                0x08009e98       0x12 build/rbuffer.o
                0x08009e98                rbuffer_isEmpty
 .text.rbuffer_getNextBlock
                0x08009eaa       0x46 build/rbuffer.o
                0x08009eaa                rbuffer_getNextBlock
 .text._out_buffer
                0x08009ef0        0x8 build/printf.o
 .text._out_null
                0x08009ef8        0x2 build/printf.o
 .text._atoi    0x08009efa       0x26 build/printf.o
 .text._out_rev
                0x08009f20       0x7e build/printf.o
 .text._ntoa_format
                0x08009f9e      0x136 build/printf.o
 .text._ntoa_long
                0x0800a0d4       0x94 build/printf.o
 .text._ntoa_long_long
                0x0800a168       0xc2 build/printf.o
 *fill*         0x0800a22a        0x6 
 .text._etoa    0x0800a230      0x3f0 build/printf.o
 .text._ftoa    0x0800a620      0x398 build/printf.o
 .text._vsnprintf
                0x0800a9b8      0x6b8 build/printf.o
 .text.snprintf_
                0x0800b070       0x28 build/printf.o
                0x0800b070                snprintf_
 .text.timerMEMsCallback
                0x0800b098       0x1c build/mems.o
                0x0800b098                timerMEMsCallback
 .text.timerPOLLCallback
                0x0800b0b4       0x1c build/mems.o
                0x0800b0b4                timerPOLLCallback
 .text.imu_correct
                0x0800b0d0      0x168 build/mems.o
                0x0800b0d0                imu_correct
 .text.SPI_DMA_Transfer
                0x0800b238       0x40 build/mems.o
                0x0800b238                SPI_DMA_Transfer
 .text.HAL_SPI_TxRxCpltCallback
                0x0800b278       0x44 build/mems.o
                0x0800b278                HAL_SPI_TxRxCpltCallback
 .text.HAL_SPI_ErrorCallback
                0x0800b2bc       0x44 build/mems.o
                0x0800b2bc                HAL_SPI_ErrorCallback
 .text.LSM9DS1_WriteRegister
                0x0800b300       0x40 build/mems.o
                0x0800b300                LSM9DS1_WriteRegister
 .text.LSM9DS1_ReadRegister
                0x0800b340       0x7c build/mems.o
                0x0800b340                LSM9DS1_ReadRegister
 .text.LSM9DS1_ReadVec
                0x0800b3bc       0xdc build/mems.o
                0x0800b3bc                LSM9DS1_ReadVec
 .text.LSM9DS1_ReadAcc
                0x0800b498        0xc build/mems.o
                0x0800b498                LSM9DS1_ReadAcc
 .text.LSM9DS1_ReadGyr
                0x0800b4a4        0xc build/mems.o
                0x0800b4a4                LSM9DS1_ReadGyr
 .text.LSM9DS1_ReadMag
                0x0800b4b0        0xc build/mems.o
                0x0800b4b0                LSM9DS1_ReadMag
 .text.init_taskMEMs
                0x0800b4bc       0x78 build/mems.o
                0x0800b4bc                init_taskMEMs
 .text.LSM9DS1_init
                0x0800b534       0xf8 build/mems.o
                0x0800b534                LSM9DS1_init
 *fill*         0x0800b62c        0x4 
 .text.taskMEMs
                0x0800b630      0x514 build/mems.o
                0x0800b630                taskMEMs
 .text.svc_internal_UART_EndWriteDMA
                0x0800bb44       0x52 build/service.o
                0x0800bb44                svc_internal_UART_EndWriteDMA
 *fill*         0x0800bb96        0x2 
 .text.svc_internal_UART_Write
                0x0800bb98       0x68 build/service.o
                0x0800bb98                svc_internal_UART_Write
 .text.svc_init_UART
                0x0800bc00       0x54 build/service.o
                0x0800bc00                svc_init_UART
 .text.init_taskService
                0x0800bc54       0x34 build/service.o
                0x0800bc54                init_taskService
 .text.taskService
                0x0800bc88       0x58 build/service.o
                0x0800bc88                taskService
 .text.svc_UART_Write
                0x0800bce0       0x7c build/service.o
                0x0800bce0                svc_UART_Write
 .text.svc_UART_getc
                0x0800bd5c       0x24 build/service.o
                0x0800bd5c                svc_UART_getc
 .text.HAL_UART_TxCpltCallback
                0x0800bd80       0x64 build/service.o
                0x0800bd80                HAL_UART_TxCpltCallback
 .text.HAL_UART_RxCpltCallback
                0x0800bde4       0x64 build/service.o
                0x0800bde4                HAL_UART_RxCpltCallback
 .text.taskBlink
                0x0800be48       0x34 build/apmain.o
                0x0800be48                taskBlink
 .text.apmain   0x0800be7c       0xc4 build/apmain.o
                0x0800be7c                apmain
 .text.init_taskDialogIn
                0x0800bf40       0x3c build/apdialog.o
                0x0800bf40                init_taskDialogIn
 .text.convert_float
                0x0800bf7c       0xd0 build/apdialog.o
                0x0800bf7c                convert_float
 .text.convert_number
                0x0800c04c       0x50 build/apdialog.o
                0x0800c04c                convert_number
 .text.read_token
                0x0800c09c       0x5c build/apdialog.o
                0x0800c09c                read_token
 .text.lookup_token
                0x0800c0f8       0xa0 build/apdialog.o
                0x0800c0f8                lookup_token
 .text.parse_command_line
                0x0800c198      0x534 build/apdialog.o
                0x0800c198                parse_command_line
 .text.taskDialogIn
                0x0800c6cc        0x8 build/apdialog.o
                0x0800c6cc                taskDialogIn
 .text.MOTOR_MSG_letInClutch
                0x0800c6d4       0x1c build/motor.o
                0x0800c6d4                MOTOR_MSG_letInClutch
 .text.MOTOR_MSG_letOutClutch
                0x0800c6f0       0x1c build/motor.o
                0x0800c6f0                MOTOR_MSG_letOutClutch
 .text.MOTOR_MSG_setHelmAngle
                0x0800c70c       0x20 build/motor.o
                0x0800c70c                MOTOR_MSG_setHelmAngle
 .text.MOTOR_MSG_moveTime
                0x0800c72c       0x20 build/motor.o
                0x0800c72c                MOTOR_MSG_moveTime
 .text.MOTOR_MSG_set_cvt_angle_time
                0x0800c74c       0x20 build/motor.o
                0x0800c74c                MOTOR_MSG_set_cvt_angle_time
 .text.Motor_set_cvt_angle_time
                0x0800c76c        0xc build/motor.o
                0x0800c76c                Motor_set_cvt_angle_time
 .text.Motor_newValues
                0x0800c778      0x19c build/motor.o
                0x0800c778                Motor_newValues
 .text.Motor_moveTime
                0x0800c914       0xb0 build/motor.o
                0x0800c914                Motor_moveTime
 *fill*         0x0800c9c4        0x4 
 .text.Motor_setHelmAngle
                0x0800c9c8       0xa4 build/motor.o
                0x0800c9c8                Motor_setHelmAngle
 .text.Motor_engageTiller
                0x0800ca6c       0x20 build/motor.o
                0x0800ca6c                Motor_engageTiller
 .text.Motor_disengageTiller
                0x0800ca8c       0x18 build/motor.o
                0x0800ca8c                Motor_disengageTiller
 .text.init_taskMotor
                0x0800caa4       0x20 build/motor.o
                0x0800caa4                init_taskMotor
 *fill*         0x0800cac4        0x4 
 .text.taskMotor
                0x0800cac8      0x248 build/motor.o
                0x0800cac8                taskMotor
 .text.HAL_ADC_ConvCpltCallback
                0x0800cd10       0x50 build/motor.o
                0x0800cd10                HAL_ADC_ConvCpltCallback
 .text.AP_MSG_MotorStalled
                0x0800cd60       0x34 build/autopilot.o
                0x0800cd60                AP_MSG_MotorStalled
 .text.AP_init  0x0800cd94       0x38 build/autopilot.o
                0x0800cd94                AP_init
 .text.init_taskAutoPilot
                0x0800cdcc       0x2c build/autopilot.o
                0x0800cdcc                init_taskAutoPilot
 .text.AP_set_mode_idle
                0x0800cdf8       0x14 build/autopilot.o
                0x0800cdf8                AP_set_mode_idle
 .text.AP_set_mode_heading
                0x0800ce0c       0x20 build/autopilot.o
                0x0800ce0c                AP_set_mode_heading
 .text.AP_turn  0x0800ce2c       0x38 build/autopilot.o
                0x0800ce2c                AP_turn
 .text.AP_get_engaged
                0x0800ce64        0x4 build/autopilot.o
                0x0800ce64                AP_get_engaged
 .text.AP_get_heading_dir
                0x0800ce68        0x6 build/autopilot.o
                0x0800ce68                AP_get_heading_dir
 *fill*         0x0800ce6e        0x2 
 .text.AP_new_values
                0x0800ce70      0x11c build/autopilot.o
                0x0800ce70                AP_new_values
 *fill*         0x0800cf8c        0x4 
 .text.taskAutoPilot
                0x0800cf90      0x38c build/autopilot.o
                0x0800cf90                taskAutoPilot
 .text.IMU_init_status
                0x0800d31c       0x58 build/imu.o
                0x0800d31c                IMU_init_status
 .text.IMU_get_roll
                0x0800d374        0x6 build/imu.o
                0x0800d374                IMU_get_roll
 .text.IMU_get_pitch
                0x0800d37a        0x6 build/imu.o
                0x0800d37a                IMU_get_pitch
 .text.IMU_get_heading
                0x0800d380        0x6 build/imu.o
                0x0800d380                IMU_get_heading
 .text.IMU_get_yawRate
                0x0800d386        0x6 build/imu.o
                0x0800d386                IMU_get_yawRate
 .text.IMU_getQuaternion
                0x0800d38c       0x22 build/imu.o
                0x0800d38c                IMU_getQuaternion
 .text.IMU_set_mag_vs_gyr_prop
                0x0800d3ae        0x8 build/imu.o
                0x0800d3ae                IMU_set_mag_vs_gyr_prop
 *fill*         0x0800d3b6        0x2 
 .text.IMU_new_values
                0x0800d3b8      0x228 build/imu.o
                0x0800d3b8                IMU_new_values
 .text.vector3f_add
                0x0800d5e0       0x4e build/geom.o
                0x0800d5e0                vector3f_add
 .text.vector3f_getCrossProduct
                0x0800d62e       0x66 build/geom.o
                0x0800d62e                vector3f_getCrossProduct
 .text.vector3f_getScaled
                0x0800d694       0x42 build/geom.o
                0x0800d694                vector3f_getScaled
 .text.vector3f_getNorm
                0x0800d6d6       0x2e build/geom.o
                0x0800d6d6                vector3f_getNorm
 .text.vector3f_getNormalized
                0x0800d704       0x6a build/geom.o
                0x0800d704                vector3f_getNormalized
 *fill*         0x0800d76e        0x2 
 .text.cvt_dir_rad_deg
                0x0800d770       0x68 build/geom.o
                0x0800d770                cvt_dir_rad_deg
 .text.madgwick_get_Euler_angles
                0x0800d7d8       0x20 build/madgwick.o
                0x0800d7d8                madgwick_get_Euler_angles
 .text.madgwick_update
                0x0800d7f8      0x6e4 build/madgwick.o
                0x0800d7f8                madgwick_update
 .text.Reset_Handler
                0x0800dedc       0x50 build/startup_stm32l452xx.o
                0x0800dedc                Reset_Handler
 .text.Default_Handler
                0x0800df2c        0x2 build/startup_stm32l452xx.o
                0x0800df2c                RTC_Alarm_IRQHandler
                0x0800df2c                TIM1_CC_IRQHandler
                0x0800df2c                TSC_IRQHandler
                0x0800df2c                TAMP_STAMP_IRQHandler
                0x0800df2c                EXTI3_IRQHandler
                0x0800df2c                LPTIM2_IRQHandler
                0x0800df2c                DFSDM1_FLT1_IRQHandler
                0x0800df2c                I2C3_ER_IRQHandler
                0x0800df2c                I2C2_EV_IRQHandler
                0x0800df2c                CAN1_RX0_IRQHandler
                0x0800df2c                FPU_IRQHandler
                0x0800df2c                TIM1_UP_TIM16_IRQHandler
                0x0800df2c                SPI1_IRQHandler
                0x0800df2c                TIM6_DAC_IRQHandler
                0x0800df2c                DMA2_Channel2_IRQHandler
                0x0800df2c                USART3_IRQHandler
                0x0800df2c                CAN1_RX1_IRQHandler
                0x0800df2c                DMA2_Channel1_IRQHandler
                0x0800df2c                QUADSPI_IRQHandler
                0x0800df2c                I2C1_EV_IRQHandler
                0x0800df2c                UART4_IRQHandler
                0x0800df2c                DMA2_Channel4_IRQHandler
                0x0800df2c                TIM3_IRQHandler
                0x0800df2c                RCC_IRQHandler
                0x0800df2c                TIM1_TRG_COM_IRQHandler
                0x0800df2c                Default_Handler
                0x0800df2c                EXTI15_10_IRQHandler
                0x0800df2c                SDMMC1_IRQHandler
                0x0800df2c                I2C3_EV_IRQHandler
                0x0800df2c                USB_IRQHandler
                0x0800df2c                EXTI9_5_IRQHandler
                0x0800df2c                RTC_WKUP_IRQHandler
                0x0800df2c                PVD_PVM_IRQHandler
                0x0800df2c                CAN1_TX_IRQHandler
                0x0800df2c                DMA2_Channel5_IRQHandler
                0x0800df2c                CRS_IRQHandler
                0x0800df2c                EXTI4_IRQHandler
                0x0800df2c                RNG_IRQHandler
                0x0800df2c                DMA1_Channel3_IRQHandler
                0x0800df2c                COMP_IRQHandler
                0x0800df2c                WWDG_IRQHandler
                0x0800df2c                I2C4_EV_IRQHandler
                0x0800df2c                LPUART1_IRQHandler
                0x0800df2c                DFSDM1_FLT0_IRQHandler
                0x0800df2c                I2C2_ER_IRQHandler
                0x0800df2c                DMA1_Channel2_IRQHandler
                0x0800df2c                CAN1_SCE_IRQHandler
                0x0800df2c                FLASH_IRQHandler
                0x0800df2c                SPI3_IRQHandler
                0x0800df2c                I2C1_ER_IRQHandler
                0x0800df2c                LPTIM1_IRQHandler
                0x0800df2c                I2C4_ER_IRQHandler
                0x0800df2c                SAI1_IRQHandler
                0x0800df2c                DMA2_Channel3_IRQHandler
                0x0800df2c                TIM1_BRK_TIM15_IRQHandler
 *(.glue_7)
 .glue_7        0x0800df2e        0x0 linker stubs
 *(.glue_7t)
 .glue_7t       0x0800df2e        0x0 linker stubs
 *(.eh_frame)
 *fill*         0x0800df2e        0x2 
 .eh_frame      0x0800df30        0x0 /usr/lib/gcc/arm-none-eabi/12.2.1/thumb/v7e-m+fp/hard/crtbegin.o
 *(.init)
 .init          0x0800df30        0x4 /usr/lib/gcc/arm-none-eabi/12.2.1/thumb/v7e-m+fp/hard/crti.o
                0x0800df30                _init
 .init          0x0800df34        0x8 /usr/lib/gcc/arm-none-eabi/12.2.1/thumb/v7e-m+fp/hard/crtn.o
 *(.fini)
 .fini          0x0800df3c        0x4 /usr/lib/gcc/arm-none-eabi/12.2.1/thumb/v7e-m+fp/hard/crti.o
                0x0800df3c                _fini
 .fini          0x0800df40        0x8 /usr/lib/gcc/arm-none-eabi/12.2.1/thumb/v7e-m+fp/hard/crtn.o
 .fini.__stub   0x0800df48        0x8 linker stubs
                0x0800df50                        . = ALIGN (0x8)
                0x0800df50                        _etext = .

.vfp11_veneer   0x0800df50        0x0
 .vfp11_veneer  0x0800df50        0x0 linker stubs

.v4_bx          0x0800df50        0x0
 .v4_bx         0x0800df50        0x0 linker stubs

.iplt           0x0800df50        0x0
 .iplt          0x0800df50        0x0 /usr/lib/gcc/arm-none-eabi/12.2.1/thumb/v7e-m+fp/hard/crtbegin.o

.rodata         0x0800df50      0xb20
                0x0800df50                        . = ALIGN (0x8)
 *(.rodata)
 .rodata        0x0800df50        0x7 build/mems.o
 *fill*         0x0800df57        0x1 
 .rodata        0x0800df58       0x20 /usr/lib/gcc/arm-none-eabi/12.2.1/../../../arm-none-eabi/lib/thumb/v7e-m+fp/hard/libm.a(lib_a-sf_atan.o)
 .rodata        0x0800df78       0x18 /usr/lib/gcc/arm-none-eabi/12.2.1/../../../arm-none-eabi/lib/thumb/v7e-m+fp/hard/libm.a(lib_a-ef_atan2.o)
 .rodata        0x0800df90        0x8 /usr/lib/gcc/arm-none-eabi/12.2.1/../../../arm-none-eabi/lib/thumb/v7e-m+fp/hard/libm.a(lib_a-ef_fmod.o)
 .rodata        0x0800df98      0x398 /usr/lib/gcc/arm-none-eabi/12.2.1/../../../arm-none-eabi/lib/thumb/v7e-m+fp/hard/libm.a(lib_a-ef_rem_pio2.o)
 .rodata        0x0800e330       0x38 /usr/lib/gcc/arm-none-eabi/12.2.1/../../../arm-none-eabi/lib/thumb/v7e-m+fp/hard/libm.a(lib_a-kf_rem_pio2.o)
 *(.rodata*)
 .rodata.str1.4
                0x0800e368        0xc build/main.o
 .rodata.defaultTask_attributes
                0x0800e374       0x24 build/main.o
                0x0800e374                defaultTask_attributes
 .rodata.MSIRangeTable
                0x0800e398       0x30 build/system_stm32l4xx.o
                0x0800e398                MSIRangeTable
 .rodata.APBPrescTable
                0x0800e3c8        0x8 build/system_stm32l4xx.o
                0x0800e3c8                APBPrescTable
 .rodata.AHBPrescTable
                0x0800e3d0       0x10 build/system_stm32l4xx.o
                0x0800e3d0                AHBPrescTable
 .rodata.vTaskStartScheduler.str1.4
                0x0800e3e0        0x5 build/tasks.o
 *fill*         0x0800e3e5        0x3 
 .rodata.prvCheckForValidListAndQueue.str1.4
                0x0800e3e8        0x5 build/timers.o
 *fill*         0x0800e3ed        0x3 
 .rodata.xTimerCreateTimerTask.str1.4
                0x0800e3f0        0x8 build/timers.o
 .rodata._ftoa.str1.4
                0x0800e3f8       0x15 build/printf.o
 *fill*         0x0800e40d        0x3 
 .rodata.pow10.0
                0x0800e410       0x50 build/printf.o
 .rodata.init_taskMEMs.str1.4
                0x0800e460        0x5 build/mems.o
 *fill*         0x0800e465        0x3 
 .rodata.taskMEMs.str1.4
                0x0800e468       0x47 build/mems.o
 *fill*         0x0800e4af        0x1 
 .rodata.apmain.str1.4
                0x0800e4b0       0x26 build/apmain.o
                                 0x2e (size before relaxing)
 *fill*         0x0800e4d6        0x2 
 .rodata.parse_command_line.str1.4
                0x0800e4d8      0x1e6 build/apdialog.o
 *fill*         0x0800e6be        0x2 
 .rodata.str1.4
                0x0800e6c0       0xd3 build/apdialog.o
 *fill*         0x0800e793        0x1 
 .rodata.tokenTable
                0x0800e794       0xb0 build/apdialog.o
 .rodata.taskMotor.str1.4
                0x0800e844       0xbe build/motor.o
 *fill*         0x0800e902        0x2 
 .rodata.AP_new_values.str1.4
                0x0800e904       0x1b build/autopilot.o
 *fill*         0x0800e91f        0x1 
 .rodata.taskAutoPilot.str1.4
                0x0800e920      0x120 build/autopilot.o
 .rodata.IMU_new_values.str1.4
                0x0800ea40       0x30 build/imu.o
 .rodata.str1.4
                0x0800ea70       0x30 /usr/lib/gcc/arm-none-eabi/12.2.1/../../../arm-none-eabi/lib/thumb/v7e-m+fp/hard/libm.a(lib_a-wf_acos.o)
                                  0x1 (size before relaxing)
 .rodata.str1.4
                0x0800ea70        0x1 /usr/lib/gcc/arm-none-eabi/12.2.1/../../../arm-none-eabi/lib/thumb/v7e-m+fp/hard/libm.a(lib_a-wf_asin.o)
                0x0800eaa0                        . = ALIGN (0x8)

.ARM.extab      0x0800ea70        0x0
                0x0800ea70                        . = ALIGN (0x8)
 *(.ARM.extab* .gnu.linkonce.armextab.*)
                0x0800ea70                        . = ALIGN (0x8)

.ARM            0x0800ea70        0x8
                0x0800ea70                        . = ALIGN (0x8)
                0x0800ea70                        __exidx_start = .
 *(.ARM.exidx*)
 .ARM.exidx     0x0800ea70        0x8 /usr/lib/gcc/arm-none-eabi/12.2.1/thumb/v7e-m+fp/hard/libgcc.a(_udivmoddi4.o)
                0x0800ea78                        __exidx_end = .
                0x0800ea78                        . = ALIGN (0x8)

.preinit_array  0x0800ea78        0x0
                0x0800ea78                        . = ALIGN (0x8)
                0x0800ea78                        PROVIDE (__preinit_array_start = .)
 *(.preinit_array*)
                0x0800ea78                        PROVIDE (__preinit_array_end = .)
                0x0800ea78                        . = ALIGN (0x8)

.init_array     0x0800ea78        0x8
                0x0800ea78                        . = ALIGN (0x8)
                0x0800ea78                        PROVIDE (__init_array_start = .)
 *(SORT_BY_NAME(.init_array.*))
 *(.init_array*)
 .init_array    0x0800ea78        0x4 /usr/lib/gcc/arm-none-eabi/12.2.1/thumb/v7e-m+fp/hard/crtbegin.o
                0x0800ea7c                        PROVIDE (__init_array_end = .)
                0x0800ea80                        . = ALIGN (0x8)
 *fill*         0x0800ea7c        0x4 

.fini_array     0x0800ea80        0x8
                0x0800ea80                        . = ALIGN (0x8)
                0x0800ea80                        PROVIDE (__fini_array_start = .)
 *(SORT_BY_NAME(.fini_array.*))
 *(.fini_array*)
 .fini_array    0x0800ea80        0x4 /usr/lib/gcc/arm-none-eabi/12.2.1/thumb/v7e-m+fp/hard/crtbegin.o
                0x0800ea84                        PROVIDE (__fini_array_end = .)
                0x0800ea88                        . = ALIGN (0x8)
 *fill*         0x0800ea84        0x4 
                0x0800ea88                        _sidata = LOADADDR (.data)

.rel.dyn        0x0800ea88        0x0
 .rel.iplt      0x0800ea88        0x0 /usr/lib/gcc/arm-none-eabi/12.2.1/thumb/v7e-m+fp/hard/crtbegin.o

.data           0x20000000      0x620 load address 0x0800ea88
                0x20000000                        . = ALIGN (0x8)
                0x20000000                        _sdata = .
 *(.data)
 .data          0x20000000        0x1 /usr/lib/gcc/arm-none-eabi/12.2.1/../../../arm-none-eabi/lib/thumb/v7e-m+fp/hard/libm.a(lib_a-s_lib_ver.o)
                0x20000000                __fdlib_version
 *(.data*)
 .data.uwTickFreq
                0x20000001        0x1 build/stm32l4xx_hal.o
                0x20000001                uwTickFreq
 *fill*         0x20000002        0x2 
 .data.uwTickPrio
                0x20000004        0x4 build/stm32l4xx_hal.o
                0x20000004                uwTickPrio
 .data.SystemCoreClock
                0x20000008        0x4 build/system_stm32l4xx.o
                0x20000008                SystemCoreClock
 .data.uxCriticalNesting
                0x2000000c        0x4 build/port.o
 .data._ctypes  0x20000010      0x100 build/rlib.o
                0x20000010                _ctypes
 .data.command.0
                0x20000110        0x8 build/mems.o
 .data.command.1
                0x20000118        0x8 build/mems.o
 .data.request.0
                0x20000120       0x14 build/service.o
 .data.fcts     0x20000134        0x8 build/service.o
                0x20000134                fcts
 .data.svc_uart2
                0x2000013c      0x220 build/service.o
                0x2000013c                svc_uart2
 .data.svc_uart1
                0x2000035c      0x220 build/service.o
                0x2000035c                svc_uart1
 .data.msg.0    0x2000057c        0x8 build/motor.o
 .data.msg.1    0x20000584        0x8 build/motor.o
 .data.msg.2    0x2000058c        0x8 build/motor.o
 .data.msg.3    0x20000594        0x8 build/motor.o
 .data.msg.4    0x2000059c        0x8 build/motor.o
 .data.motorData
                0x200005a4       0x48 build/motor.o
                0x200005a4                motorData
 .data.msgMEMs.1
                0x200005ec        0x8 build/autopilot.o
 .data.unitmzf  0x200005f4        0xc build/geom.o
                0x200005f4                unitmzf
 .data.unitzf   0x20000600        0xc build/geom.o
                0x20000600                unitzf
 .data.b_x      0x2000060c        0x4 build/madgwick.o
                0x2000060c                b_x
 .data.SEq_4    0x20000610        0x4 build/madgwick.o
                0x20000610                SEq_4
 .data.SEq_1    0x20000614        0x4 build/madgwick.o
                0x20000614                SEq_1
 .data.zeta     0x20000618        0x4 build/madgwick.o
 .data.beta     0x2000061c        0x4 build/madgwick.o
 *(.RamFunc)
 *(.RamFunc*)
                0x20000620                        . = ALIGN (0x8)
                0x20000620                        _edata = .

.tm_clone_table
                0x20000620        0x0 load address 0x0800f0a8
 .tm_clone_table
                0x20000620        0x0 /usr/lib/gcc/arm-none-eabi/12.2.1/thumb/v7e-m+fp/hard/crtbegin.o
 .tm_clone_table
                0x20000620        0x0 /usr/lib/gcc/arm-none-eabi/12.2.1/thumb/v7e-m+fp/hard/crtend.o

.igot.plt       0x20000620        0x0 load address 0x0800f0a8
 .igot.plt      0x20000620        0x0 /usr/lib/gcc/arm-none-eabi/12.2.1/thumb/v7e-m+fp/hard/crtbegin.o
                0x20000620                        . = ALIGN (0x4)

.bss            0x20000620    0x125bc load address 0x0800f0a8
                0x20000620                        _sbss = .
                0x20000620                        __bss_start__ = _sbss
 *(.bss)
 .bss           0x20000620       0x1c /usr/lib/gcc/arm-none-eabi/12.2.1/thumb/v7e-m+fp/hard/crtbegin.o
 *(.bss*)
 .bss.defaultTaskHandle
                0x2000063c        0x4 build/main.o
                0x2000063c                defaultTaskHandle
 .bss.hdma_usart2_tx
                0x20000640       0x48 build/main.o
                0x20000640                hdma_usart2_tx
 .bss.hdma_usart2_rx
                0x20000688       0x48 build/main.o
                0x20000688                hdma_usart2_rx
 .bss.hdma_usart1_tx
                0x200006d0       0x48 build/main.o
                0x200006d0                hdma_usart1_tx
 .bss.hdma_usart1_rx
                0x20000718       0x48 build/main.o
                0x20000718                hdma_usart1_rx
 .bss.huart3    0x20000760       0x88 build/main.o
                0x20000760                huart3
 .bss.huart2    0x200007e8       0x88 build/main.o
                0x200007e8                huart2
 .bss.huart1    0x20000870       0x88 build/main.o
                0x20000870                huart1
 .bss.huart4    0x200008f8       0x88 build/main.o
                0x200008f8                huart4
 .bss.htim3     0x20000980       0x4c build/main.o
                0x20000980                htim3
 .bss.hdma_spi2_tx
                0x200009cc       0x48 build/main.o
                0x200009cc                hdma_spi2_tx
 .bss.hdma_spi2_rx
                0x20000a14       0x48 build/main.o
                0x20000a14                hdma_spi2_rx
 .bss.hspi2     0x20000a5c       0x64 build/main.o
                0x20000a5c                hspi2
 .bss.hdma_adc1
                0x20000ac0       0x48 build/main.o
                0x20000ac0                hdma_adc1
 .bss.hadc1     0x20000b08       0x68 build/main.o
                0x20000b08                hadc1
 .bss.htim2     0x20000b70       0x4c build/stm32l4xx_hal_timebase_tim.o
                0x20000b70                htim2
 .bss.uwTick    0x20000bbc        0x4 build/stm32l4xx_hal.o
                0x20000bbc                uwTick
 .bss.xQueueRegistry
                0x20000bc0       0x40 build/queue.o
                0x20000bc0                xQueueRegistry
 .bss.uxSchedulerSuspended
                0x20000c00        0x4 build/tasks.o
 .bss.xIdleTaskHandle
                0x20000c04        0x4 build/tasks.o
 .bss.xNextTaskUnblockTime
                0x20000c08        0x4 build/tasks.o
 .bss.uxTaskNumber
                0x20000c0c        0x4 build/tasks.o
 .bss.xNumOfOverflows
                0x20000c10        0x4 build/tasks.o
 .bss.xYieldPending
                0x20000c14        0x4 build/tasks.o
 .bss.xPendedTicks
                0x20000c18        0x4 build/tasks.o
 .bss.xSchedulerRunning
                0x20000c1c        0x4 build/tasks.o
 .bss.uxTopReadyPriority
                0x20000c20        0x4 build/tasks.o
 .bss.xTickCount
                0x20000c24        0x4 build/tasks.o
 .bss.uxCurrentNumberOfTasks
                0x20000c28        0x4 build/tasks.o
 .bss.xSuspendedTaskList
                0x20000c2c       0x14 build/tasks.o
 .bss.uxDeletedTasksWaitingCleanUp
                0x20000c40        0x4 build/tasks.o
 .bss.xTasksWaitingTermination
                0x20000c44       0x14 build/tasks.o
 .bss.xPendingReadyList
                0x20000c58       0x14 build/tasks.o
 .bss.pxOverflowDelayedTaskList
                0x20000c6c        0x4 build/tasks.o
 .bss.pxDelayedTaskList
                0x20000c70        0x4 build/tasks.o
 .bss.xDelayedTaskList2
                0x20000c74       0x14 build/tasks.o
 .bss.xDelayedTaskList1
                0x20000c88       0x14 build/tasks.o
 .bss.pxReadyTasksLists
                0x20000c9c      0x460 build/tasks.o
 .bss.pxCurrentTCB
                0x200010fc        0x4 build/tasks.o
                0x200010fc                pxCurrentTCB
 .bss.xStaticTimerQueue.0
                0x20001100       0x50 build/timers.o
 .bss.ucStaticTimerQueueStorage.1
                0x20001150       0xa0 build/timers.o
 .bss.xLastTime.2
                0x200011f0        0x4 build/timers.o
 .bss.xTimerTaskHandle
                0x200011f4        0x4 build/timers.o
 .bss.xTimerQueue
                0x200011f8        0x4 build/timers.o
 .bss.pxOverflowTimerList
                0x200011fc        0x4 build/timers.o
 .bss.pxCurrentTimerList
                0x20001200        0x4 build/timers.o
 .bss.xActiveTimerList2
                0x20001204       0x14 build/timers.o
 .bss.xActiveTimerList1
                0x20001218       0x14 build/timers.o
 .bss.Timer_Stack.0
                0x2000122c      0x400 build/cmsis_os2.o
 .bss.Timer_TCB.1
                0x2000162c       0x5c build/cmsis_os2.o
 .bss.Idle_Stack.2
                0x20001688      0x200 build/cmsis_os2.o
 .bss.Idle_TCB.3
                0x20001888       0x5c build/cmsis_os2.o
 .bss.KernelState
                0x200018e4        0x4 build/cmsis_os2.o
 .bss.xBlockAllocatedBit
                0x200018e8        0x4 build/heap_4.o
 .bss.xNumberOfSuccessfulFrees
                0x200018ec        0x4 build/heap_4.o
 .bss.xNumberOfSuccessfulAllocations
                0x200018f0        0x4 build/heap_4.o
 .bss.xMinimumEverFreeBytesRemaining
                0x200018f4        0x4 build/heap_4.o
 .bss.xFreeBytesRemaining
                0x200018f8        0x4 build/heap_4.o
 .bss.pxEnd     0x200018fc        0x4 build/heap_4.o
 .bss.xStart    0x20001900        0x8 build/heap_4.o
 .bss.ucHeap    0x20001908    0x10000 build/heap_4.o
 .bss.ulMaxPRIGROUPValue
                0x20011908        0x4 build/port.o
 .bss.ucMaxSysCallPriority
                0x2001190c        0x1 build/port.o
 *fill*         0x2001190d        0x3 
 .bss.semspi2   0x20011910        0x4 build/mems.o
                0x20011910                semspi2
 .bss.timerPoll
                0x20011914        0x4 build/mems.o
 .bss.timerMEMs
                0x20011918        0x4 build/mems.o
 .bss.msgQueueMEMs
                0x2001191c        0x4 build/mems.o
                0x2001191c                msgQueueMEMs
 .bss.trop.1    0x20011920        0x4 build/service.o
 .bss.dejaoccupe.2
                0x20011924        0x4 build/service.o
 .bss.relance.3
                0x20011928        0x4 build/service.o
 .bss.svcQueueRequests
                0x2001192c        0x4 build/service.o
                0x2001192c                svcQueueRequests
 .bss.message.0
                0x20011930       0x64 build/apdialog.o
 .bss.msgQueueDialogOut
                0x20011994        0x4 build/apdialog.o
                0x20011994                msgQueueDialogOut
 .bss.msgQueueDialogIn
                0x20011998        0x4 build/apdialog.o
                0x20011998                msgQueueDialogIn
 .bss.adc_values
                0x2001199c        0x4 build/motor.o
 .bss.msgQueueMotor
                0x200119a0        0x4 build/motor.o
                0x200119a0                msgQueueMotor
 .bss.message.0
                0x200119a4       0x78 build/autopilot.o
 .bss.message.2
                0x20011a1c       0xc8 build/autopilot.o
 .bss.msgQueueAutoPilot
                0x20011ae4        0x4 build/autopilot.o
                0x20011ae4                msgQueueAutoPilot
 .bss.APStatus  0x20011ae8     0x105c build/autopilot.o
                0x20011ae8                APStatus
 .bss.message.0
                0x20012b44       0x64 build/imu.o
 .bss.Vector3f_null
                0x20012ba8        0xc build/geom.o
                0x20012ba8                Vector3f_null
 .bss.__errno   0x20012bb4        0x4 build/geom.o
                0x20012bb4                __errno
 .bss.yaw       0x20012bb8        0x4 build/madgwick.o
 .bss.pitch     0x20012bbc        0x4 build/madgwick.o
 .bss.roll      0x20012bc0        0x4 build/madgwick.o
 .bss.w_bz      0x20012bc4        0x4 build/madgwick.o
                0x20012bc4                w_bz
 .bss.w_by      0x20012bc8        0x4 build/madgwick.o
                0x20012bc8                w_by
 .bss.w_bx      0x20012bcc        0x4 build/madgwick.o
                0x20012bcc                w_bx
 .bss.b_z       0x20012bd0        0x4 build/madgwick.o
                0x20012bd0                b_z
 .bss.SEq_3     0x20012bd4        0x4 build/madgwick.o
                0x20012bd4                SEq_3
 .bss.SEq_2     0x20012bd8        0x4 build/madgwick.o
                0x20012bd8                SEq_2
 *(COMMON)
                0x20012bdc                        . = ALIGN (0x4)
                0x20012bdc                        _ebss = .
                0x20012bdc                        __bss_end__ = _ebss

._user_heap_stack
                0x20012bdc      0x604 load address 0x0800f0a8
                0x20012be0                        . = ALIGN (0x8)
 *fill*         0x20012bdc        0x4 
                [!provide]                        PROVIDE (end = .)
                0x20012be0                        PROVIDE (_end = .)
                0x20012de0                        . = (. + _Min_Heap_Size)
 *fill*         0x20012be0      0x200 
                0x200131e0                        . = (. + _Min_Stack_Size)
 *fill*         0x20012de0      0x400 
                0x200131e0                        . = ALIGN (0x8)

/DISCARD/
 libc.a(*)
 libm.a(*)
 libgcc.a(*)
OUTPUT(build/NauteffAutoPilot.elf elf32-littlearm)
LOAD linker stubs
LOAD /usr/lib/gcc/arm-none-eabi/12.2.1/../../../arm-none-eabi/lib/thumb/v7e-m+fp/hard/libc.a
LOAD /usr/lib/gcc/arm-none-eabi/12.2.1/../../../arm-none-eabi/lib/thumb/v7e-m+fp/hard/libm.a
LOAD /usr/lib/gcc/arm-none-eabi/12.2.1/thumb/v7e-m+fp/hard/libgcc.a

.ARM.attributes
                0x00000000       0x30
 .ARM.attributes
                0x00000000       0x22 /usr/lib/gcc/arm-none-eabi/12.2.1/thumb/v7e-m+fp/hard/crti.o
 .ARM.attributes
                0x00000022       0x34 /usr/lib/gcc/arm-none-eabi/12.2.1/thumb/v7e-m+fp/hard/crtbegin.o
 .ARM.attributes
                0x00000056       0x34 build/main.o
 .ARM.attributes
                0x0000008a       0x34 build/stm32l4xx_it.o
 .ARM.attributes
                0x000000be       0x34 build/stm32l4xx_hal_msp.o
 .ARM.attributes
                0x000000f2       0x34 build/stm32l4xx_hal_timebase_tim.o
 .ARM.attributes
                0x00000126       0x34 build/stm32l4xx_ll_exti.o
 .ARM.attributes
                0x0000015a       0x34 build/stm32l4xx_hal_tim.o
 .ARM.attributes
                0x0000018e       0x34 build/stm32l4xx_hal_tim_ex.o
 .ARM.attributes
                0x000001c2       0x34 build/stm32l4xx_ll_gpio.o
 .ARM.attributes
                0x000001f6       0x34 build/stm32l4xx_hal_adc.o
 .ARM.attributes
                0x0000022a       0x34 build/stm32l4xx_hal_adc_ex.o
 .ARM.attributes
                0x0000025e       0x34 build/stm32l4xx_hal.o
 .ARM.attributes
                0x00000292       0x34 build/stm32l4xx_hal_rcc.o
 .ARM.attributes
                0x000002c6       0x34 build/stm32l4xx_hal_rcc_ex.o
 .ARM.attributes
                0x000002fa       0x34 build/stm32l4xx_hal_gpio.o
 .ARM.attributes
                0x0000032e       0x34 build/stm32l4xx_hal_dma.o
 .ARM.attributes
                0x00000362       0x34 build/stm32l4xx_hal_pwr_ex.o
 .ARM.attributes
                0x00000396       0x34 build/stm32l4xx_hal_cortex.o
 .ARM.attributes
                0x000003ca       0x34 build/stm32l4xx_hal_spi.o
 .ARM.attributes
                0x000003fe       0x34 build/stm32l4xx_hal_uart.o
 .ARM.attributes
                0x00000432       0x34 build/stm32l4xx_hal_uart_ex.o
 .ARM.attributes
                0x00000466       0x34 build/system_stm32l4xx.o
 .ARM.attributes
                0x0000049a       0x34 build/list.o
 .ARM.attributes
                0x000004ce       0x34 build/queue.o
 .ARM.attributes
                0x00000502       0x34 build/stream_buffer.o
 .ARM.attributes
                0x00000536       0x34 build/tasks.o
 .ARM.attributes
                0x0000056a       0x34 build/timers.o
 .ARM.attributes
                0x0000059e       0x34 build/cmsis_os2.o
 .ARM.attributes
                0x000005d2       0x34 build/heap_4.o
 .ARM.attributes
                0x00000606       0x34 build/port.o
 .ARM.attributes
                0x0000063a       0x34 build/rlib.o
 .ARM.attributes
                0x0000066e       0x34 build/rbuffer.o
 .ARM.attributes
                0x000006a2       0x34 build/printf.o
 .ARM.attributes
                0x000006d6       0x34 build/mems.o
 .ARM.attributes
                0x0000070a       0x34 build/service.o
 .ARM.attributes
                0x0000073e       0x34 build/apmain.o
 .ARM.attributes
                0x00000772       0x34 build/apdialog.o
 .ARM.attributes
                0x000007a6       0x34 build/motor.o
 .ARM.attributes
                0x000007da       0x34 build/autopilot.o
 .ARM.attributes
                0x0000080e       0x34 build/imu.o
 .ARM.attributes
                0x00000842       0x34 build/geom.o
 .ARM.attributes
                0x00000876       0x34 build/madgwick.o
 .ARM.attributes
                0x000008aa       0x21 build/startup_stm32l452xx.o
 .ARM.attributes
                0x000008cb       0x34 /usr/lib/gcc/arm-none-eabi/12.2.1/../../../arm-none-eabi/lib/thumb/v7e-m+fp/hard/libc_nano.a(lib_a-init.o)
 .ARM.attributes
                0x000008ff       0x34 /usr/lib/gcc/arm-none-eabi/12.2.1/../../../arm-none-eabi/lib/thumb/v7e-m+fp/hard/libm.a(lib_a-sf_atan.o)
 .ARM.attributes
                0x00000933       0x34 /usr/lib/gcc/arm-none-eabi/12.2.1/../../../arm-none-eabi/lib/thumb/v7e-m+fp/hard/libm.a(lib_a-sf_cos.o)
 .ARM.attributes
                0x00000967       0x34 /usr/lib/gcc/arm-none-eabi/12.2.1/../../../arm-none-eabi/lib/thumb/v7e-m+fp/hard/libm.a(lib_a-sf_fabs.o)
 .ARM.attributes
                0x0000099b       0x34 /usr/lib/gcc/arm-none-eabi/12.2.1/../../../arm-none-eabi/lib/thumb/v7e-m+fp/hard/libm.a(lib_a-sf_sin.o)
 .ARM.attributes
                0x000009cf       0x34 /usr/lib/gcc/arm-none-eabi/12.2.1/../../../arm-none-eabi/lib/thumb/v7e-m+fp/hard/libm.a(lib_a-w_sqrt.o)
 .ARM.attributes
                0x00000a03       0x34 /usr/lib/gcc/arm-none-eabi/12.2.1/../../../arm-none-eabi/lib/thumb/v7e-m+fp/hard/libm.a(lib_a-wf_acos.o)
 .ARM.attributes
                0x00000a37       0x34 /usr/lib/gcc/arm-none-eabi/12.2.1/../../../arm-none-eabi/lib/thumb/v7e-m+fp/hard/libm.a(lib_a-wf_asin.o)
 .ARM.attributes
                0x00000a6b       0x34 /usr/lib/gcc/arm-none-eabi/12.2.1/../../../arm-none-eabi/lib/thumb/v7e-m+fp/hard/libm.a(lib_a-wf_atan2.o)
 .ARM.attributes
                0x00000a9f       0x34 /usr/lib/gcc/arm-none-eabi/12.2.1/../../../arm-none-eabi/lib/thumb/v7e-m+fp/hard/libm.a(lib_a-wf_fmod.o)
 .ARM.attributes
                0x00000ad3       0x34 /usr/lib/gcc/arm-none-eabi/12.2.1/../../../arm-none-eabi/lib/thumb/v7e-m+fp/hard/libm.a(lib_a-wf_sqrt.o)
 .ARM.attributes
                0x00000b07       0x34 /usr/lib/gcc/arm-none-eabi/12.2.1/../../../arm-none-eabi/lib/thumb/v7e-m+fp/hard/libm.a(lib_a-e_sqrt.o)
 .ARM.attributes
                0x00000b3b       0x34 /usr/lib/gcc/arm-none-eabi/12.2.1/../../../arm-none-eabi/lib/thumb/v7e-m+fp/hard/libm.a(lib_a-ef_acos.o)
 .ARM.attributes
                0x00000b6f       0x34 /usr/lib/gcc/arm-none-eabi/12.2.1/../../../arm-none-eabi/lib/thumb/v7e-m+fp/hard/libm.a(lib_a-ef_asin.o)
 .ARM.attributes
                0x00000ba3       0x34 /usr/lib/gcc/arm-none-eabi/12.2.1/../../../arm-none-eabi/lib/thumb/v7e-m+fp/hard/libm.a(lib_a-ef_atan2.o)
 .ARM.attributes
                0x00000bd7       0x34 /usr/lib/gcc/arm-none-eabi/12.2.1/../../../arm-none-eabi/lib/thumb/v7e-m+fp/hard/libm.a(lib_a-ef_fmod.o)
 .ARM.attributes
                0x00000c0b       0x34 /usr/lib/gcc/arm-none-eabi/12.2.1/../../../arm-none-eabi/lib/thumb/v7e-m+fp/hard/libm.a(lib_a-ef_rem_pio2.o)
 .ARM.attributes
                0x00000c3f       0x34 /usr/lib/gcc/arm-none-eabi/12.2.1/../../../arm-none-eabi/lib/thumb/v7e-m+fp/hard/libm.a(lib_a-ef_sqrt.o)
 .ARM.attributes
                0x00000c73       0x34 /usr/lib/gcc/arm-none-eabi/12.2.1/../../../arm-none-eabi/lib/thumb/v7e-m+fp/hard/libm.a(lib_a-kf_cos.o)
 .ARM.attributes
                0x00000ca7       0x34 /usr/lib/gcc/arm-none-eabi/12.2.1/../../../arm-none-eabi/lib/thumb/v7e-m+fp/hard/libm.a(lib_a-kf_rem_pio2.o)
 .ARM.attributes
                0x00000cdb       0x34 /usr/lib/gcc/arm-none-eabi/12.2.1/../../../arm-none-eabi/lib/thumb/v7e-m+fp/hard/libm.a(lib_a-kf_sin.o)
 .ARM.attributes
                0x00000d0f       0x34 /usr/lib/gcc/arm-none-eabi/12.2.1/../../../arm-none-eabi/lib/thumb/v7e-m+fp/hard/libm.a(lib_a-s_lib_ver.o)
 .ARM.attributes
                0x00000d43       0x34 /usr/lib/gcc/arm-none-eabi/12.2.1/../../../arm-none-eabi/lib/thumb/v7e-m+fp/hard/libm.a(lib_a-sf_floor.o)
 .ARM.attributes
                0x00000d77       0x34 /usr/lib/gcc/arm-none-eabi/12.2.1/../../../arm-none-eabi/lib/thumb/v7e-m+fp/hard/libm.a(lib_a-sf_nan.o)
 .ARM.attributes
                0x00000dab       0x34 /usr/lib/gcc/arm-none-eabi/12.2.1/../../../arm-none-eabi/lib/thumb/v7e-m+fp/hard/libm.a(lib_a-sf_scalbn.o)
 .ARM.attributes
                0x00000ddf       0x22 /usr/lib/gcc/arm-none-eabi/12.2.1/thumb/v7e-m+fp/hard/libgcc.a(_arm_addsubdf3.o)
 .ARM.attributes
                0x00000e01       0x22 /usr/lib/gcc/arm-none-eabi/12.2.1/thumb/v7e-m+fp/hard/libgcc.a(_arm_muldivdf3.o)
 .ARM.attributes
                0x00000e23       0x22 /usr/lib/gcc/arm-none-eabi/12.2.1/thumb/v7e-m+fp/hard/libgcc.a(_arm_cmpdf2.o)
 .ARM.attributes
                0x00000e45       0x22 /usr/lib/gcc/arm-none-eabi/12.2.1/thumb/v7e-m+fp/hard/libgcc.a(_arm_unorddf2.o)
 .ARM.attributes
                0x00000e67       0x22 /usr/lib/gcc/arm-none-eabi/12.2.1/thumb/v7e-m+fp/hard/libgcc.a(_arm_fixdfsi.o)
 .ARM.attributes
                0x00000e89       0x22 /usr/lib/gcc/arm-none-eabi/12.2.1/thumb/v7e-m+fp/hard/libgcc.a(_arm_fixunsdfsi.o)
 .ARM.attributes
                0x00000eab       0x22 /usr/lib/gcc/arm-none-eabi/12.2.1/thumb/v7e-m+fp/hard/libgcc.a(_arm_truncdfsf2.o)
 .ARM.attributes
                0x00000ecd       0x22 /usr/lib/gcc/arm-none-eabi/12.2.1/thumb/v7e-m+fp/hard/libgcc.a(_aeabi_uldivmod.o)
 .ARM.attributes
                0x00000eef       0x34 /usr/lib/gcc/arm-none-eabi/12.2.1/thumb/v7e-m+fp/hard/libgcc.a(_udivmoddi4.o)
 .ARM.attributes
                0x00000f23       0x22 /usr/lib/gcc/arm-none-eabi/12.2.1/thumb/v7e-m+fp/hard/libgcc.a(_dvmd_tls.o)
 .ARM.attributes
                0x00000f45       0x34 /usr/lib/gcc/arm-none-eabi/12.2.1/thumb/v7e-m+fp/hard/crtend.o
 .ARM.attributes
                0x00000f79       0x22 /usr/lib/gcc/arm-none-eabi/12.2.1/thumb/v7e-m+fp/hard/crtn.o

.comment        0x00000000       0x26
 .comment       0x00000000       0x26 /usr/lib/gcc/arm-none-eabi/12.2.1/thumb/v7e-m+fp/hard/crtbegin.o
                                 0x27 (size before relaxing)
 .comment       0x00000026       0x27 build/main.o
 .comment       0x00000026       0x27 build/stm32l4xx_it.o
 .comment       0x00000026       0x27 build/stm32l4xx_hal_msp.o
 .comment       0x00000026       0x27 build/stm32l4xx_hal_timebase_tim.o
 .comment       0x00000026       0x27 build/stm32l4xx_ll_exti.o
 .comment       0x00000026       0x27 build/stm32l4xx_hal_tim.o
 .comment       0x00000026       0x27 build/stm32l4xx_hal_tim_ex.o
 .comment       0x00000026       0x27 build/stm32l4xx_ll_gpio.o
 .comment       0x00000026       0x27 build/stm32l4xx_hal_adc.o
 .comment       0x00000026       0x27 build/stm32l4xx_hal_adc_ex.o
 .comment       0x00000026       0x27 build/stm32l4xx_hal.o
 .comment       0x00000026       0x27 build/stm32l4xx_hal_rcc.o
 .comment       0x00000026       0x27 build/stm32l4xx_hal_rcc_ex.o
 .comment       0x00000026       0x27 build/stm32l4xx_hal_gpio.o
 .comment       0x00000026       0x27 build/stm32l4xx_hal_dma.o
 .comment       0x00000026       0x27 build/stm32l4xx_hal_pwr_ex.o
 .comment       0x00000026       0x27 build/stm32l4xx_hal_cortex.o
 .comment       0x00000026       0x27 build/stm32l4xx_hal_spi.o
 .comment       0x00000026       0x27 build/stm32l4xx_hal_uart.o
 .comment       0x00000026       0x27 build/stm32l4xx_hal_uart_ex.o
 .comment       0x00000026       0x27 build/system_stm32l4xx.o
 .comment       0x00000026       0x27 build/list.o
 .comment       0x00000026       0x27 build/queue.o
 .comment       0x00000026       0x27 build/stream_buffer.o
 .comment       0x00000026       0x27 build/tasks.o
 .comment       0x00000026       0x27 build/timers.o
 .comment       0x00000026       0x27 build/cmsis_os2.o
 .comment       0x00000026       0x27 build/heap_4.o
 .comment       0x00000026       0x27 build/port.o
 .comment       0x00000026       0x27 build/rlib.o
 .comment       0x00000026       0x27 build/rbuffer.o
 .comment       0x00000026       0x27 build/printf.o
 .comment       0x00000026       0x27 build/mems.o
 .comment       0x00000026       0x27 build/service.o
 .comment       0x00000026       0x27 build/apmain.o
 .comment       0x00000026       0x27 build/apdialog.o
 .comment       0x00000026       0x27 build/motor.o
 .comment       0x00000026       0x27 build/autopilot.o
 .comment       0x00000026       0x27 build/imu.o
 .comment       0x00000026       0x27 build/geom.o
 .comment       0x00000026       0x27 build/madgwick.o
 .comment       0x00000026       0x27 /usr/lib/gcc/arm-none-eabi/12.2.1/../../../arm-none-eabi/lib/thumb/v7e-m+fp/hard/libc_nano.a(lib_a-init.o)
 .comment       0x00000026       0x27 /usr/lib/gcc/arm-none-eabi/12.2.1/../../../arm-none-eabi/lib/thumb/v7e-m+fp/hard/libm.a(lib_a-sf_atan.o)
 .comment       0x00000026       0x27 /usr/lib/gcc/arm-none-eabi/12.2.1/../../../arm-none-eabi/lib/thumb/v7e-m+fp/hard/libm.a(lib_a-sf_cos.o)
 .comment       0x00000026       0x27 /usr/lib/gcc/arm-none-eabi/12.2.1/../../../arm-none-eabi/lib/thumb/v7e-m+fp/hard/libm.a(lib_a-sf_fabs.o)
 .comment       0x00000026       0x27 /usr/lib/gcc/arm-none-eabi/12.2.1/../../../arm-none-eabi/lib/thumb/v7e-m+fp/hard/libm.a(lib_a-sf_sin.o)
 .comment       0x00000026       0x27 /usr/lib/gcc/arm-none-eabi/12.2.1/../../../arm-none-eabi/lib/thumb/v7e-m+fp/hard/libm.a(lib_a-w_sqrt.o)
 .comment       0x00000026       0x27 /usr/lib/gcc/arm-none-eabi/12.2.1/../../../arm-none-eabi/lib/thumb/v7e-m+fp/hard/libm.a(lib_a-wf_acos.o)
 .comment       0x00000026       0x27 /usr/lib/gcc/arm-none-eabi/12.2.1/../../../arm-none-eabi/lib/thumb/v7e-m+fp/hard/libm.a(lib_a-wf_asin.o)
 .comment       0x00000026       0x27 /usr/lib/gcc/arm-none-eabi/12.2.1/../../../arm-none-eabi/lib/thumb/v7e-m+fp/hard/libm.a(lib_a-wf_atan2.o)
 .comment       0x00000026       0x27 /usr/lib/gcc/arm-none-eabi/12.2.1/../../../arm-none-eabi/lib/thumb/v7e-m+fp/hard/libm.a(lib_a-wf_fmod.o)
 .comment       0x00000026       0x27 /usr/lib/gcc/arm-none-eabi/12.2.1/../../../arm-none-eabi/lib/thumb/v7e-m+fp/hard/libm.a(lib_a-wf_sqrt.o)
 .comment       0x00000026       0x27 /usr/lib/gcc/arm-none-eabi/12.2.1/../../../arm-none-eabi/lib/thumb/v7e-m+fp/hard/libm.a(lib_a-e_sqrt.o)
 .comment       0x00000026       0x27 /usr/lib/gcc/arm-none-eabi/12.2.1/../../../arm-none-eabi/lib/thumb/v7e-m+fp/hard/libm.a(lib_a-ef_acos.o)
 .comment       0x00000026       0x27 /usr/lib/gcc/arm-none-eabi/12.2.1/../../../arm-none-eabi/lib/thumb/v7e-m+fp/hard/libm.a(lib_a-ef_asin.o)
 .comment       0x00000026       0x27 /usr/lib/gcc/arm-none-eabi/12.2.1/../../../arm-none-eabi/lib/thumb/v7e-m+fp/hard/libm.a(lib_a-ef_atan2.o)
 .comment       0x00000026       0x27 /usr/lib/gcc/arm-none-eabi/12.2.1/../../../arm-none-eabi/lib/thumb/v7e-m+fp/hard/libm.a(lib_a-ef_fmod.o)
 .comment       0x00000026       0x27 /usr/lib/gcc/arm-none-eabi/12.2.1/../../../arm-none-eabi/lib/thumb/v7e-m+fp/hard/libm.a(lib_a-ef_rem_pio2.o)
 .comment       0x00000026       0x27 /usr/lib/gcc/arm-none-eabi/12.2.1/../../../arm-none-eabi/lib/thumb/v7e-m+fp/hard/libm.a(lib_a-ef_sqrt.o)
 .comment       0x00000026       0x27 /usr/lib/gcc/arm-none-eabi/12.2.1/../../../arm-none-eabi/lib/thumb/v7e-m+fp/hard/libm.a(lib_a-kf_cos.o)
 .comment       0x00000026       0x27 /usr/lib/gcc/arm-none-eabi/12.2.1/../../../arm-none-eabi/lib/thumb/v7e-m+fp/hard/libm.a(lib_a-kf_rem_pio2.o)
 .comment       0x00000026       0x27 /usr/lib/gcc/arm-none-eabi/12.2.1/../../../arm-none-eabi/lib/thumb/v7e-m+fp/hard/libm.a(lib_a-kf_sin.o)
 .comment       0x00000026       0x27 /usr/lib/gcc/arm-none-eabi/12.2.1/../../../arm-none-eabi/lib/thumb/v7e-m+fp/hard/libm.a(lib_a-s_lib_ver.o)
 .comment       0x00000026       0x27 /usr/lib/gcc/arm-none-eabi/12.2.1/../../../arm-none-eabi/lib/thumb/v7e-m+fp/hard/libm.a(lib_a-sf_floor.o)
 .comment       0x00000026       0x27 /usr/lib/gcc/arm-none-eabi/12.2.1/../../../arm-none-eabi/lib/thumb/v7e-m+fp/hard/libm.a(lib_a-sf_nan.o)
 .comment       0x00000026       0x27 /usr/lib/gcc/arm-none-eabi/12.2.1/../../../arm-none-eabi/lib/thumb/v7e-m+fp/hard/libm.a(lib_a-sf_scalbn.o)
 .comment       0x00000026       0x27 /usr/lib/gcc/arm-none-eabi/12.2.1/thumb/v7e-m+fp/hard/libgcc.a(_udivmoddi4.o)
 .comment       0x00000026       0x27 /usr/lib/gcc/arm-none-eabi/12.2.1/thumb/v7e-m+fp/hard/crtend.o

.debug_info     0x00000000    0x4621d
 .debug_info    0x00000000     0x37df build/main.o
 .debug_info    0x000037df     0x18b2 build/stm32l4xx_it.o
 .debug_info    0x00005091     0x2409 build/stm32l4xx_hal_msp.o
 .debug_info    0x0000749a      0xe56 build/stm32l4xx_hal_timebase_tim.o
 .debug_info    0x000082f0      0x8c2 build/stm32l4xx_ll_exti.o
 .debug_info    0x00008bb2     0x4208 build/stm32l4xx_hal_tim.o
 .debug_info    0x0000cdba     0x1fa0 build/stm32l4xx_hal_tim_ex.o
 .debug_info    0x0000ed5a      0xe1b build/stm32l4xx_ll_gpio.o
 .debug_info    0x0000fb75     0x3311 build/stm32l4xx_hal_adc.o
 .debug_info    0x00012e86     0x25d4 build/stm32l4xx_hal_adc_ex.o
 .debug_info    0x0001545a      0xdbf build/stm32l4xx_hal.o
 .debug_info    0x00016219     0x105f build/stm32l4xx_hal_rcc.o
 .debug_info    0x00017278     0x1458 build/stm32l4xx_hal_rcc_ex.o
 .debug_info    0x000186d0      0x915 build/stm32l4xx_hal_gpio.o
 .debug_info    0x00018fe5      0x8db build/stm32l4xx_hal_dma.o
 .debug_info    0x000198c0      0xb07 build/stm32l4xx_hal_pwr_ex.o
 .debug_info    0x0001a3c7     0x1129 build/stm32l4xx_hal_cortex.o
 .debug_info    0x0001b4f0     0x2202 build/stm32l4xx_hal_spi.o
 .debug_info    0x0001d6f2     0x5512 build/stm32l4xx_hal_uart.o
 .debug_info    0x00022c04     0x11c8 build/stm32l4xx_hal_uart_ex.o
 .debug_info    0x00023dcc      0x67b build/system_stm32l4xx.o
 .debug_info    0x00024447      0x303 build/list.o
 .debug_info    0x0002474a     0x29f1 build/queue.o
 .debug_info    0x0002713b     0x1d43 build/stream_buffer.o
 .debug_info    0x00028e7e     0x3372 build/tasks.o
 .debug_info    0x0002c1f0     0x1cef build/timers.o
 .debug_info    0x0002dedf     0x526b build/cmsis_os2.o
 .debug_info    0x0003314a      0x5f4 build/heap_4.o
 .debug_info    0x0003373e      0x5aa build/port.o
 .debug_info    0x00033ce8      0x25d build/rlib.o
 .debug_info    0x00033f45      0x3d1 build/rbuffer.o
 .debug_info    0x00034316     0x18b1 build/printf.o
 .debug_info    0x00035bc7     0x288d build/mems.o
 .debug_info    0x00038454     0x143c build/service.o
 .debug_info    0x00039890      0x898 build/apmain.o
 .debug_info    0x0003a128     0x1a39 build/apdialog.o
 .debug_info    0x0003bb61     0x239c build/motor.o
 .debug_info    0x0003defd     0x17da build/autopilot.o
 .debug_info    0x0003f6d7     0x1e34 build/imu.o
 .debug_info    0x0004150b      0x78a build/geom.o
 .debug_info    0x00041c95      0xa64 build/madgwick.o
 .debug_info    0x000426f9       0x30 build/startup_stm32l452xx.o
 .debug_info    0x00042729      0x10b /usr/lib/gcc/arm-none-eabi/12.2.1/../../../arm-none-eabi/lib/thumb/v7e-m+fp/hard/libc_nano.a(lib_a-init.o)
 .debug_info    0x00042834      0x252 /usr/lib/gcc/arm-none-eabi/12.2.1/../../../arm-none-eabi/lib/thumb/v7e-m+fp/hard/libm.a(lib_a-sf_atan.o)
 .debug_info    0x00042a86      0x219 /usr/lib/gcc/arm-none-eabi/12.2.1/../../../arm-none-eabi/lib/thumb/v7e-m+fp/hard/libm.a(lib_a-sf_cos.o)
 .debug_info    0x00042c9f      0x13e /usr/lib/gcc/arm-none-eabi/12.2.1/../../../arm-none-eabi/lib/thumb/v7e-m+fp/hard/libm.a(lib_a-sf_fabs.o)
 .debug_info    0x00042ddd      0x224 /usr/lib/gcc/arm-none-eabi/12.2.1/../../../arm-none-eabi/lib/thumb/v7e-m+fp/hard/libm.a(lib_a-sf_sin.o)
 .debug_info    0x00043001      0x178 /usr/lib/gcc/arm-none-eabi/12.2.1/../../../arm-none-eabi/lib/thumb/v7e-m+fp/hard/libm.a(lib_a-w_sqrt.o)
 .debug_info    0x00043179      0x195 /usr/lib/gcc/arm-none-eabi/12.2.1/../../../arm-none-eabi/lib/thumb/v7e-m+fp/hard/libm.a(lib_a-wf_acos.o)
 .debug_info    0x0004330e      0x195 /usr/lib/gcc/arm-none-eabi/12.2.1/../../../arm-none-eabi/lib/thumb/v7e-m+fp/hard/libm.a(lib_a-wf_asin.o)
 .debug_info    0x000434a3       0xfa /usr/lib/gcc/arm-none-eabi/12.2.1/../../../arm-none-eabi/lib/thumb/v7e-m+fp/hard/libm.a(lib_a-wf_atan2.o)
 .debug_info    0x0004359d      0x154 /usr/lib/gcc/arm-none-eabi/12.2.1/../../../arm-none-eabi/lib/thumb/v7e-m+fp/hard/libm.a(lib_a-wf_fmod.o)
 .debug_info    0x000436f1      0x139 /usr/lib/gcc/arm-none-eabi/12.2.1/../../../arm-none-eabi/lib/thumb/v7e-m+fp/hard/libm.a(lib_a-wf_sqrt.o)
 .debug_info    0x0004382a      0x2b3 /usr/lib/gcc/arm-none-eabi/12.2.1/../../../arm-none-eabi/lib/thumb/v7e-m+fp/hard/libm.a(lib_a-e_sqrt.o)
 .debug_info    0x00043add      0x33f /usr/lib/gcc/arm-none-eabi/12.2.1/../../../arm-none-eabi/lib/thumb/v7e-m+fp/hard/libm.a(lib_a-ef_acos.o)
 .debug_info    0x00043e1c      0x34b /usr/lib/gcc/arm-none-eabi/12.2.1/../../../arm-none-eabi/lib/thumb/v7e-m+fp/hard/libm.a(lib_a-ef_asin.o)
 .debug_info    0x00044167      0x2d3 /usr/lib/gcc/arm-none-eabi/12.2.1/../../../arm-none-eabi/lib/thumb/v7e-m+fp/hard/libm.a(lib_a-ef_atan2.o)
 .debug_info    0x0004443a      0x23c /usr/lib/gcc/arm-none-eabi/12.2.1/../../../arm-none-eabi/lib/thumb/v7e-m+fp/hard/libm.a(lib_a-ef_fmod.o)
 .debug_info    0x00044676      0x3fd /usr/lib/gcc/arm-none-eabi/12.2.1/../../../arm-none-eabi/lib/thumb/v7e-m+fp/hard/libm.a(lib_a-ef_rem_pio2.o)
 .debug_info    0x00044a73       0xc6 /usr/lib/gcc/arm-none-eabi/12.2.1/../../../arm-none-eabi/lib/thumb/v7e-m+fp/hard/libm.a(lib_a-ef_sqrt.o)
 .debug_info    0x00044b39      0x20e /usr/lib/gcc/arm-none-eabi/12.2.1/../../../arm-none-eabi/lib/thumb/v7e-m+fp/hard/libm.a(lib_a-kf_cos.o)
 .debug_info    0x00044d47      0x3df /usr/lib/gcc/arm-none-eabi/12.2.1/../../../arm-none-eabi/lib/thumb/v7e-m+fp/hard/libm.a(lib_a-kf_rem_pio2.o)
 .debug_info    0x00045126      0x1e0 /usr/lib/gcc/arm-none-eabi/12.2.1/../../../arm-none-eabi/lib/thumb/v7e-m+fp/hard/libm.a(lib_a-kf_sin.o)
 .debug_info    0x00045306       0xbc /usr/lib/gcc/arm-none-eabi/12.2.1/../../../arm-none-eabi/lib/thumb/v7e-m+fp/hard/libm.a(lib_a-s_lib_ver.o)
 .debug_info    0x000453c2      0x18a /usr/lib/gcc/arm-none-eabi/12.2.1/../../../arm-none-eabi/lib/thumb/v7e-m+fp/hard/libm.a(lib_a-sf_floor.o)
 .debug_info    0x0004554c       0xc9 /usr/lib/gcc/arm-none-eabi/12.2.1/../../../arm-none-eabi/lib/thumb/v7e-m+fp/hard/libm.a(lib_a-sf_nan.o)
 .debug_info    0x00045615      0x20d /usr/lib/gcc/arm-none-eabi/12.2.1/../../../arm-none-eabi/lib/thumb/v7e-m+fp/hard/libm.a(lib_a-sf_scalbn.o)
 .debug_info    0x00045822       0xb6 /usr/lib/gcc/arm-none-eabi/12.2.1/thumb/v7e-m+fp/hard/libgcc.a(_arm_addsubdf3.o)
 .debug_info    0x000458d8       0x52 /usr/lib/gcc/arm-none-eabi/12.2.1/thumb/v7e-m+fp/hard/libgcc.a(_arm_muldivdf3.o)
 .debug_info    0x0004592a       0xc0 /usr/lib/gcc/arm-none-eabi/12.2.1/thumb/v7e-m+fp/hard/libgcc.a(_arm_cmpdf2.o)
 .debug_info    0x000459ea       0x39 /usr/lib/gcc/arm-none-eabi/12.2.1/thumb/v7e-m+fp/hard/libgcc.a(_arm_unorddf2.o)
 .debug_info    0x00045a23       0x39 /usr/lib/gcc/arm-none-eabi/12.2.1/thumb/v7e-m+fp/hard/libgcc.a(_arm_fixdfsi.o)
 .debug_info    0x00045a5c       0x39 /usr/lib/gcc/arm-none-eabi/12.2.1/thumb/v7e-m+fp/hard/libgcc.a(_arm_fixunsdfsi.o)
 .debug_info    0x00045a95       0x3c /usr/lib/gcc/arm-none-eabi/12.2.1/thumb/v7e-m+fp/hard/libgcc.a(_arm_truncdfsf2.o)
 .debug_info    0x00045ad1       0x24 /usr/lib/gcc/arm-none-eabi/12.2.1/thumb/v7e-m+fp/hard/libgcc.a(_aeabi_uldivmod.o)
 .debug_info    0x00045af5      0x6ef /usr/lib/gcc/arm-none-eabi/12.2.1/thumb/v7e-m+fp/hard/libgcc.a(_udivmoddi4.o)
 .debug_info    0x000461e4       0x39 /usr/lib/gcc/arm-none-eabi/12.2.1/thumb/v7e-m+fp/hard/libgcc.a(_dvmd_tls.o)

.debug_abbrev   0x00000000     0x9418
 .debug_abbrev  0x00000000      0x441 build/main.o
 .debug_abbrev  0x00000441      0x256 build/stm32l4xx_it.o
 .debug_abbrev  0x00000697      0x266 build/stm32l4xx_hal_msp.o
 .debug_abbrev  0x000008fd      0x22d build/stm32l4xx_hal_timebase_tim.o
 .debug_abbrev  0x00000b2a      0x1d9 build/stm32l4xx_ll_exti.o
 .debug_abbrev  0x00000d03      0x2bd build/stm32l4xx_hal_tim.o
 .debug_abbrev  0x00000fc0      0x2b7 build/stm32l4xx_hal_tim_ex.o
 .debug_abbrev  0x00001277      0x2df build/stm32l4xx_ll_gpio.o
 .debug_abbrev  0x00001556      0x343 build/stm32l4xx_hal_adc.o
 .debug_abbrev  0x00001899      0x3b5 build/stm32l4xx_hal_adc_ex.o
 .debug_abbrev  0x00001c4e      0x284 build/stm32l4xx_hal.o
 .debug_abbrev  0x00001ed2      0x2de build/stm32l4xx_hal_rcc.o
 .debug_abbrev  0x000021b0      0x2c2 build/stm32l4xx_hal_rcc_ex.o
 .debug_abbrev  0x00002472      0x222 build/stm32l4xx_hal_gpio.o
 .debug_abbrev  0x00002694      0x23a build/stm32l4xx_hal_dma.o
 .debug_abbrev  0x000028ce      0x233 build/stm32l4xx_hal_pwr_ex.o
 .debug_abbrev  0x00002b01      0x3ca build/stm32l4xx_hal_cortex.o
 .debug_abbrev  0x00002ecb      0x2a4 build/stm32l4xx_hal_spi.o
 .debug_abbrev  0x0000316f      0x32f build/stm32l4xx_hal_uart.o
 .debug_abbrev  0x0000349e      0x31d build/stm32l4xx_hal_uart_ex.o
 .debug_abbrev  0x000037bb      0x11b build/system_stm32l4xx.o
 .debug_abbrev  0x000038d6      0x124 build/list.o
 .debug_abbrev  0x000039fa      0x431 build/queue.o
 .debug_abbrev  0x00003e2b      0x3db build/stream_buffer.o
 .debug_abbrev  0x00004206      0x400 build/tasks.o
 .debug_abbrev  0x00004606      0x3d4 build/timers.o
 .debug_abbrev  0x000049da      0x5ca build/cmsis_os2.o
 .debug_abbrev  0x00004fa4      0x27a build/heap_4.o
 .debug_abbrev  0x0000521e      0x2af build/port.o
 .debug_abbrev  0x000054cd      0x122 build/rlib.o
 .debug_abbrev  0x000055ef      0x163 build/rbuffer.o
 .debug_abbrev  0x00005752      0x369 build/printf.o
 .debug_abbrev  0x00005abb      0x36b build/mems.o
 .debug_abbrev  0x00005e26      0x3fe build/service.o
 .debug_abbrev  0x00006224      0x248 build/apmain.o
 .debug_abbrev  0x0000646c      0x3c3 build/apdialog.o
 .debug_abbrev  0x0000682f      0x449 build/motor.o
 .debug_abbrev  0x00006c78      0x390 build/autopilot.o
 .debug_abbrev  0x00007008      0x38b build/imu.o
 .debug_abbrev  0x00007393      0x1b3 build/geom.o
 .debug_abbrev  0x00007546      0x1ed build/madgwick.o
 .debug_abbrev  0x00007733       0x1d build/startup_stm32l452xx.o
 .debug_abbrev  0x00007750       0xc9 /usr/lib/gcc/arm-none-eabi/12.2.1/../../../arm-none-eabi/lib/thumb/v7e-m+fp/hard/libc_nano.a(lib_a-init.o)
 .debug_abbrev  0x00007819      0x13a /usr/lib/gcc/arm-none-eabi/12.2.1/../../../arm-none-eabi/lib/thumb/v7e-m+fp/hard/libm.a(lib_a-sf_atan.o)
 .debug_abbrev  0x00007953      0x151 /usr/lib/gcc/arm-none-eabi/12.2.1/../../../arm-none-eabi/lib/thumb/v7e-m+fp/hard/libm.a(lib_a-sf_cos.o)
 .debug_abbrev  0x00007aa4       0xd4 /usr/lib/gcc/arm-none-eabi/12.2.1/../../../arm-none-eabi/lib/thumb/v7e-m+fp/hard/libm.a(lib_a-sf_fabs.o)
 .debug_abbrev  0x00007b78      0x15a /usr/lib/gcc/arm-none-eabi/12.2.1/../../../arm-none-eabi/lib/thumb/v7e-m+fp/hard/libm.a(lib_a-sf_sin.o)
 .debug_abbrev  0x00007cd2      0x10f /usr/lib/gcc/arm-none-eabi/12.2.1/../../../arm-none-eabi/lib/thumb/v7e-m+fp/hard/libm.a(lib_a-w_sqrt.o)
 .debug_abbrev  0x00007de1      0x12d /usr/lib/gcc/arm-none-eabi/12.2.1/../../../arm-none-eabi/lib/thumb/v7e-m+fp/hard/libm.a(lib_a-wf_acos.o)
 .debug_abbrev  0x00007f0e      0x12d /usr/lib/gcc/arm-none-eabi/12.2.1/../../../arm-none-eabi/lib/thumb/v7e-m+fp/hard/libm.a(lib_a-wf_asin.o)
 .debug_abbrev  0x0000803b       0x8e /usr/lib/gcc/arm-none-eabi/12.2.1/../../../arm-none-eabi/lib/thumb/v7e-m+fp/hard/libm.a(lib_a-wf_atan2.o)
 .debug_abbrev  0x000080c9      0x102 /usr/lib/gcc/arm-none-eabi/12.2.1/../../../arm-none-eabi/lib/thumb/v7e-m+fp/hard/libm.a(lib_a-wf_fmod.o)
 .debug_abbrev  0x000081cb      0x100 /usr/lib/gcc/arm-none-eabi/12.2.1/../../../arm-none-eabi/lib/thumb/v7e-m+fp/hard/libm.a(lib_a-wf_sqrt.o)
 .debug_abbrev  0x000082cb      0x157 /usr/lib/gcc/arm-none-eabi/12.2.1/../../../arm-none-eabi/lib/thumb/v7e-m+fp/hard/libm.a(lib_a-e_sqrt.o)
 .debug_abbrev  0x00008422      0x132 /usr/lib/gcc/arm-none-eabi/12.2.1/../../../arm-none-eabi/lib/thumb/v7e-m+fp/hard/libm.a(lib_a-ef_acos.o)
 .debug_abbrev  0x00008554      0x15d /usr/lib/gcc/arm-none-eabi/12.2.1/../../../arm-none-eabi/lib/thumb/v7e-m+fp/hard/libm.a(lib_a-ef_asin.o)
 .debug_abbrev  0x000086b1      0x154 /usr/lib/gcc/arm-none-eabi/12.2.1/../../../arm-none-eabi/lib/thumb/v7e-m+fp/hard/libm.a(lib_a-ef_atan2.o)
 .debug_abbrev  0x00008805      0x129 /usr/lib/gcc/arm-none-eabi/12.2.1/../../../arm-none-eabi/lib/thumb/v7e-m+fp/hard/libm.a(lib_a-ef_fmod.o)
 .debug_abbrev  0x0000892e      0x194 /usr/lib/gcc/arm-none-eabi/12.2.1/../../../arm-none-eabi/lib/thumb/v7e-m+fp/hard/libm.a(lib_a-ef_rem_pio2.o)
 .debug_abbrev  0x00008ac2       0x6d /usr/lib/gcc/arm-none-eabi/12.2.1/../../../arm-none-eabi/lib/thumb/v7e-m+fp/hard/libm.a(lib_a-ef_sqrt.o)
 .debug_abbrev  0x00008b2f      0x100 /usr/lib/gcc/arm-none-eabi/12.2.1/../../../arm-none-eabi/lib/thumb/v7e-m+fp/hard/libm.a(lib_a-kf_cos.o)
 .debug_abbrev  0x00008c2f      0x169 /usr/lib/gcc/arm-none-eabi/12.2.1/../../../arm-none-eabi/lib/thumb/v7e-m+fp/hard/libm.a(lib_a-kf_rem_pio2.o)
 .debug_abbrev  0x00008d98      0x107 /usr/lib/gcc/arm-none-eabi/12.2.1/../../../arm-none-eabi/lib/thumb/v7e-m+fp/hard/libm.a(lib_a-kf_sin.o)
 .debug_abbrev  0x00008e9f       0x6f /usr/lib/gcc/arm-none-eabi/12.2.1/../../../arm-none-eabi/lib/thumb/v7e-m+fp/hard/libm.a(lib_a-s_lib_ver.o)
 .debug_abbrev  0x00008f0e       0xf9 /usr/lib/gcc/arm-none-eabi/12.2.1/../../../arm-none-eabi/lib/thumb/v7e-m+fp/hard/libm.a(lib_a-sf_floor.o)
 .debug_abbrev  0x00009007       0x77 /usr/lib/gcc/arm-none-eabi/12.2.1/../../../arm-none-eabi/lib/thumb/v7e-m+fp/hard/libm.a(lib_a-sf_nan.o)
 .debug_abbrev  0x0000907e      0x116 /usr/lib/gcc/arm-none-eabi/12.2.1/../../../arm-none-eabi/lib/thumb/v7e-m+fp/hard/libm.a(lib_a-sf_scalbn.o)
 .debug_abbrev  0x00009194       0x21 /usr/lib/gcc/arm-none-eabi/12.2.1/thumb/v7e-m+fp/hard/libgcc.a(_arm_addsubdf3.o)
 .debug_abbrev  0x000091b5       0x21 /usr/lib/gcc/arm-none-eabi/12.2.1/thumb/v7e-m+fp/hard/libgcc.a(_arm_muldivdf3.o)
 .debug_abbrev  0x000091d6       0x21 /usr/lib/gcc/arm-none-eabi/12.2.1/thumb/v7e-m+fp/hard/libgcc.a(_arm_cmpdf2.o)
 .debug_abbrev  0x000091f7       0x21 /usr/lib/gcc/arm-none-eabi/12.2.1/thumb/v7e-m+fp/hard/libgcc.a(_arm_unorddf2.o)
 .debug_abbrev  0x00009218       0x21 /usr/lib/gcc/arm-none-eabi/12.2.1/thumb/v7e-m+fp/hard/libgcc.a(_arm_fixdfsi.o)
 .debug_abbrev  0x00009239       0x21 /usr/lib/gcc/arm-none-eabi/12.2.1/thumb/v7e-m+fp/hard/libgcc.a(_arm_fixunsdfsi.o)
 .debug_abbrev  0x0000925a       0x21 /usr/lib/gcc/arm-none-eabi/12.2.1/thumb/v7e-m+fp/hard/libgcc.a(_arm_truncdfsf2.o)
 .debug_abbrev  0x0000927b       0x14 /usr/lib/gcc/arm-none-eabi/12.2.1/thumb/v7e-m+fp/hard/libgcc.a(_aeabi_uldivmod.o)
 .debug_abbrev  0x0000928f      0x16a /usr/lib/gcc/arm-none-eabi/12.2.1/thumb/v7e-m+fp/hard/libgcc.a(_udivmoddi4.o)
 .debug_abbrev  0x000093f9       0x1f /usr/lib/gcc/arm-none-eabi/12.2.1/thumb/v7e-m+fp/hard/libgcc.a(_dvmd_tls.o)

.debug_loc      0x00000000    0x31cf8
 .debug_loc     0x00000000      0xa51 build/main.o
 .debug_loc     0x00000a51      0x204 build/stm32l4xx_it.o
 .debug_loc     0x00000c55      0x3c7 build/stm32l4xx_hal_msp.o
 .debug_loc     0x0000101c      0x128 build/stm32l4xx_hal_timebase_tim.o
 .debug_loc     0x00001144      0x4a1 build/stm32l4xx_ll_exti.o
 .debug_loc     0x000015e5     0x60f0 build/stm32l4xx_hal_tim.o
 .debug_loc     0x000076d5     0x28fe build/stm32l4xx_hal_tim_ex.o
 .debug_loc     0x00009fd3      0x9d4 build/stm32l4xx_ll_gpio.o
 .debug_loc     0x0000a9a7     0x2834 build/stm32l4xx_hal_adc.o
 .debug_loc     0x0000d1db     0x1d23 build/stm32l4xx_hal_adc_ex.o
 .debug_loc     0x0000eefe      0x2af build/stm32l4xx_hal.o
 .debug_loc     0x0000f1ad      0x9e0 build/stm32l4xx_hal_rcc.o
 .debug_loc     0x0000fb8d     0x1a77 build/stm32l4xx_hal_rcc_ex.o
 .debug_loc     0x00011604      0x46f build/stm32l4xx_hal_gpio.o
 .debug_loc     0x00011a73      0x94e build/stm32l4xx_hal_dma.o
 .debug_loc     0x000123c1      0x7a9 build/stm32l4xx_hal_pwr_ex.o
 .debug_loc     0x00012b6a      0x7c7 build/stm32l4xx_hal_cortex.o
 .debug_loc     0x00013331     0x2596 build/stm32l4xx_hal_spi.o
 .debug_loc     0x000158c7     0x5166 build/stm32l4xx_hal_uart.o
 .debug_loc     0x0001aa2d      0xd61 build/stm32l4xx_hal_uart_ex.o
 .debug_loc     0x0001b78e      0x127 build/system_stm32l4xx.o
 .debug_loc     0x0001b8b5       0xe5 build/list.o
 .debug_loc     0x0001b99a     0x1f67 build/queue.o
 .debug_loc     0x0001d901     0x1d1d build/stream_buffer.o
 .debug_loc     0x0001f61e     0x2a51 build/tasks.o
 .debug_loc     0x0002206f     0x1596 build/timers.o
 .debug_loc     0x00023605     0x5ef8 build/cmsis_os2.o
 .debug_loc     0x000294fd      0x510 build/heap_4.o
 .debug_loc     0x00029a0d      0x1c0 build/port.o
 .debug_loc     0x00029bcd      0x1c1 build/rlib.o
 .debug_loc     0x00029d8e      0x30e build/rbuffer.o
 .debug_loc     0x0002a09c     0x1f87 build/printf.o
 .debug_loc     0x0002c023      0xe4c build/mems.o
 .debug_loc     0x0002ce6f      0x583 build/service.o
 .debug_loc     0x0002d3f2      0x12d build/apmain.o
 .debug_loc     0x0002d51f      0x94e build/apdialog.o
 .debug_loc     0x0002de6d      0x890 build/motor.o
 .debug_loc     0x0002e6fd      0x68e build/autopilot.o
 .debug_loc     0x0002ed8b     0x15ff build/imu.o
 .debug_loc     0x0003038a      0x514 build/geom.o
 .debug_loc     0x0003089e     0x145a build/madgwick.o

.debug_aranges  0x00000000     0x2678
 .debug_aranges
                0x00000000       0xa0 build/main.o
 .debug_aranges
                0x000000a0       0xc0 build/stm32l4xx_it.o
 .debug_aranges
                0x00000160       0x60 build/stm32l4xx_hal_msp.o
 .debug_aranges
                0x000001c0       0x30 build/stm32l4xx_hal_timebase_tim.o
 .debug_aranges
                0x000001f0       0x30 build/stm32l4xx_ll_exti.o
 .debug_aranges
                0x00000220      0x3e0 build/stm32l4xx_hal_tim.o
 .debug_aranges
                0x00000600      0x180 build/stm32l4xx_hal_tim_ex.o
 .debug_aranges
                0x00000780       0x58 build/stm32l4xx_ll_gpio.o
 .debug_aranges
                0x000007d8      0x110 build/stm32l4xx_hal_adc.o
 .debug_aranges
                0x000008e8       0xd8 build/stm32l4xx_hal_adc_ex.o
 .debug_aranges
                0x000009c0      0x130 build/stm32l4xx_hal.o
 .debug_aranges
                0x00000af0       0x90 build/stm32l4xx_hal_rcc.o
 .debug_aranges
                0x00000b80       0xf0 build/stm32l4xx_hal_rcc_ex.o
 .debug_aranges
                0x00000c70       0x58 build/stm32l4xx_hal_gpio.o
 .debug_aranges
                0x00000cc8       0x80 build/stm32l4xx_hal_dma.o
 .debug_aranges
                0x00000d48      0x128 build/stm32l4xx_hal_pwr_ex.o
 .debug_aranges
                0x00000e70       0xf0 build/stm32l4xx_hal_cortex.o
 .debug_aranges
                0x00000f60      0x1d8 build/stm32l4xx_hal_spi.o
 .debug_aranges
                0x00001138      0x228 build/stm32l4xx_hal_uart.o
 .debug_aranges
                0x00001360       0x80 build/stm32l4xx_hal_uart_ex.o
 .debug_aranges
                0x000013e0       0x28 build/system_stm32l4xx.o
 .debug_aranges
                0x00001408       0x40 build/list.o
 .debug_aranges
                0x00001448      0x158 build/queue.o
 .debug_aranges
                0x000015a0       0xe0 build/stream_buffer.o
 .debug_aranges
                0x00001680      0x208 build/tasks.o
 .debug_aranges
                0x00001888       0xf0 build/timers.o
 .debug_aranges
                0x00001978      0x2a0 build/cmsis_os2.o
 .debug_aranges
                0x00001c18       0x58 build/heap_4.o
 .debug_aranges
                0x00001c70       0x80 build/port.o
 .debug_aranges
                0x00001cf0       0x38 build/rlib.o
 .debug_aranges
                0x00001d28       0x58 build/rbuffer.o
 .debug_aranges
                0x00001d80       0x80 build/printf.o
 .debug_aranges
                0x00001e00       0x90 build/mems.o
 .debug_aranges
                0x00001e90       0x60 build/service.o
 .debug_aranges
                0x00001ef0       0x28 build/apmain.o
 .debug_aranges
                0x00001f18       0x50 build/apdialog.o
 .debug_aranges
                0x00001f68       0x88 build/motor.o
 .debug_aranges
                0x00001ff0       0x78 build/autopilot.o
 .debug_aranges
                0x00002068       0xb0 build/imu.o
 .debug_aranges
                0x00002118       0x88 build/geom.o
 .debug_aranges
                0x000021a0       0x58 build/madgwick.o
 .debug_aranges
                0x000021f8       0x28 build/startup_stm32l452xx.o
 .debug_aranges
                0x00002220       0x20 /usr/lib/gcc/arm-none-eabi/12.2.1/../../../arm-none-eabi/lib/thumb/v7e-m+fp/hard/libc_nano.a(lib_a-init.o)
 .debug_aranges
                0x00002240       0x20 /usr/lib/gcc/arm-none-eabi/12.2.1/../../../arm-none-eabi/lib/thumb/v7e-m+fp/hard/libm.a(lib_a-sf_atan.o)
 .debug_aranges
                0x00002260       0x20 /usr/lib/gcc/arm-none-eabi/12.2.1/../../../arm-none-eabi/lib/thumb/v7e-m+fp/hard/libm.a(lib_a-sf_cos.o)
 .debug_aranges
                0x00002280       0x20 /usr/lib/gcc/arm-none-eabi/12.2.1/../../../arm-none-eabi/lib/thumb/v7e-m+fp/hard/libm.a(lib_a-sf_fabs.o)
 .debug_aranges
                0x000022a0       0x20 /usr/lib/gcc/arm-none-eabi/12.2.1/../../../arm-none-eabi/lib/thumb/v7e-m+fp/hard/libm.a(lib_a-sf_sin.o)
 .debug_aranges
                0x000022c0       0x20 /usr/lib/gcc/arm-none-eabi/12.2.1/../../../arm-none-eabi/lib/thumb/v7e-m+fp/hard/libm.a(lib_a-w_sqrt.o)
 .debug_aranges
                0x000022e0       0x20 /usr/lib/gcc/arm-none-eabi/12.2.1/../../../arm-none-eabi/lib/thumb/v7e-m+fp/hard/libm.a(lib_a-wf_acos.o)
 .debug_aranges
                0x00002300       0x20 /usr/lib/gcc/arm-none-eabi/12.2.1/../../../arm-none-eabi/lib/thumb/v7e-m+fp/hard/libm.a(lib_a-wf_asin.o)
 .debug_aranges
                0x00002320       0x20 /usr/lib/gcc/arm-none-eabi/12.2.1/../../../arm-none-eabi/lib/thumb/v7e-m+fp/hard/libm.a(lib_a-wf_atan2.o)
 .debug_aranges
                0x00002340       0x20 /usr/lib/gcc/arm-none-eabi/12.2.1/../../../arm-none-eabi/lib/thumb/v7e-m+fp/hard/libm.a(lib_a-wf_fmod.o)
 .debug_aranges
                0x00002360       0x20 /usr/lib/gcc/arm-none-eabi/12.2.1/../../../arm-none-eabi/lib/thumb/v7e-m+fp/hard/libm.a(lib_a-wf_sqrt.o)
 .debug_aranges
                0x00002380       0x20 /usr/lib/gcc/arm-none-eabi/12.2.1/../../../arm-none-eabi/lib/thumb/v7e-m+fp/hard/libm.a(lib_a-e_sqrt.o)
 .debug_aranges
                0x000023a0       0x20 /usr/lib/gcc/arm-none-eabi/12.2.1/../../../arm-none-eabi/lib/thumb/v7e-m+fp/hard/libm.a(lib_a-ef_acos.o)
 .debug_aranges
                0x000023c0       0x20 /usr/lib/gcc/arm-none-eabi/12.2.1/../../../arm-none-eabi/lib/thumb/v7e-m+fp/hard/libm.a(lib_a-ef_asin.o)
 .debug_aranges
                0x000023e0       0x20 /usr/lib/gcc/arm-none-eabi/12.2.1/../../../arm-none-eabi/lib/thumb/v7e-m+fp/hard/libm.a(lib_a-ef_atan2.o)
 .debug_aranges
                0x00002400       0x20 /usr/lib/gcc/arm-none-eabi/12.2.1/../../../arm-none-eabi/lib/thumb/v7e-m+fp/hard/libm.a(lib_a-ef_fmod.o)
 .debug_aranges
                0x00002420       0x20 /usr/lib/gcc/arm-none-eabi/12.2.1/../../../arm-none-eabi/lib/thumb/v7e-m+fp/hard/libm.a(lib_a-ef_rem_pio2.o)
 .debug_aranges
                0x00002440       0x20 /usr/lib/gcc/arm-none-eabi/12.2.1/../../../arm-none-eabi/lib/thumb/v7e-m+fp/hard/libm.a(lib_a-ef_sqrt.o)
 .debug_aranges
                0x00002460       0x20 /usr/lib/gcc/arm-none-eabi/12.2.1/../../../arm-none-eabi/lib/thumb/v7e-m+fp/hard/libm.a(lib_a-kf_cos.o)
 .debug_aranges
                0x00002480       0x20 /usr/lib/gcc/arm-none-eabi/12.2.1/../../../arm-none-eabi/lib/thumb/v7e-m+fp/hard/libm.a(lib_a-kf_rem_pio2.o)
 .debug_aranges
                0x000024a0       0x20 /usr/lib/gcc/arm-none-eabi/12.2.1/../../../arm-none-eabi/lib/thumb/v7e-m+fp/hard/libm.a(lib_a-kf_sin.o)
 .debug_aranges
                0x000024c0       0x18 /usr/lib/gcc/arm-none-eabi/12.2.1/../../../arm-none-eabi/lib/thumb/v7e-m+fp/hard/libm.a(lib_a-s_lib_ver.o)
 .debug_aranges
                0x000024d8       0x20 /usr/lib/gcc/arm-none-eabi/12.2.1/../../../arm-none-eabi/lib/thumb/v7e-m+fp/hard/libm.a(lib_a-sf_floor.o)
 .debug_aranges
                0x000024f8       0x20 /usr/lib/gcc/arm-none-eabi/12.2.1/../../../arm-none-eabi/lib/thumb/v7e-m+fp/hard/libm.a(lib_a-sf_nan.o)
 .debug_aranges
                0x00002518       0x20 /usr/lib/gcc/arm-none-eabi/12.2.1/../../../arm-none-eabi/lib/thumb/v7e-m+fp/hard/libm.a(lib_a-sf_scalbn.o)
 .debug_aranges
                0x00002538       0x20 /usr/lib/gcc/arm-none-eabi/12.2.1/thumb/v7e-m+fp/hard/libgcc.a(_arm_addsubdf3.o)
 .debug_aranges
                0x00002558       0x20 /usr/lib/gcc/arm-none-eabi/12.2.1/thumb/v7e-m+fp/hard/libgcc.a(_arm_muldivdf3.o)
 .debug_aranges
                0x00002578       0x20 /usr/lib/gcc/arm-none-eabi/12.2.1/thumb/v7e-m+fp/hard/libgcc.a(_arm_cmpdf2.o)
 .debug_aranges
                0x00002598       0x20 /usr/lib/gcc/arm-none-eabi/12.2.1/thumb/v7e-m+fp/hard/libgcc.a(_arm_unorddf2.o)
 .debug_aranges
                0x000025b8       0x20 /usr/lib/gcc/arm-none-eabi/12.2.1/thumb/v7e-m+fp/hard/libgcc.a(_arm_fixdfsi.o)
 .debug_aranges
                0x000025d8       0x20 /usr/lib/gcc/arm-none-eabi/12.2.1/thumb/v7e-m+fp/hard/libgcc.a(_arm_fixunsdfsi.o)
 .debug_aranges
                0x000025f8       0x20 /usr/lib/gcc/arm-none-eabi/12.2.1/thumb/v7e-m+fp/hard/libgcc.a(_arm_truncdfsf2.o)
 .debug_aranges
                0x00002618       0x20 /usr/lib/gcc/arm-none-eabi/12.2.1/thumb/v7e-m+fp/hard/libgcc.a(_aeabi_uldivmod.o)
 .debug_aranges
                0x00002638       0x20 /usr/lib/gcc/arm-none-eabi/12.2.1/thumb/v7e-m+fp/hard/libgcc.a(_udivmoddi4.o)
 .debug_aranges
                0x00002658       0x20 /usr/lib/gcc/arm-none-eabi/12.2.1/thumb/v7e-m+fp/hard/libgcc.a(_dvmd_tls.o)

.debug_ranges   0x00000000     0x28f8
 .debug_ranges  0x00000000      0x1b0 build/main.o
 .debug_ranges  0x000001b0       0xb0 build/stm32l4xx_it.o
 .debug_ranges  0x00000260       0x50 build/stm32l4xx_hal_msp.o
 .debug_ranges  0x000002b0       0x20 build/stm32l4xx_hal_timebase_tim.o
 .debug_ranges  0x000002d0       0x68 build/stm32l4xx_ll_exti.o
 .debug_ranges  0x00000338      0x3d0 build/stm32l4xx_hal_tim.o
 .debug_ranges  0x00000708      0x170 build/stm32l4xx_hal_tim_ex.o
 .debug_ranges  0x00000878      0x1c8 build/stm32l4xx_ll_gpio.o
 .debug_ranges  0x00000a40      0x310 build/stm32l4xx_hal_adc.o
 .debug_ranges  0x00000d50      0x1a0 build/stm32l4xx_hal_adc_ex.o
 .debug_ranges  0x00000ef0      0x120 build/stm32l4xx_hal.o
 .debug_ranges  0x00001010       0x98 build/stm32l4xx_hal_rcc.o
 .debug_ranges  0x000010a8       0xf8 build/stm32l4xx_hal_rcc_ex.o
 .debug_ranges  0x000011a0       0x48 build/stm32l4xx_hal_gpio.o
 .debug_ranges  0x000011e8       0x70 build/stm32l4xx_hal_dma.o
 .debug_ranges  0x00001258      0x118 build/stm32l4xx_hal_pwr_ex.o
 .debug_ranges  0x00001370       0xe0 build/stm32l4xx_hal_cortex.o
 .debug_ranges  0x00001450      0x1c8 build/stm32l4xx_hal_spi.o
 .debug_ranges  0x00001618      0x230 build/stm32l4xx_hal_uart.o
 .debug_ranges  0x00001848       0x88 build/stm32l4xx_hal_uart_ex.o
 .debug_ranges  0x000018d0       0x18 build/system_stm32l4xx.o
 .debug_ranges  0x000018e8       0x30 build/list.o
 .debug_ranges  0x00001918      0x218 build/queue.o
 .debug_ranges  0x00001b30       0xd0 build/stream_buffer.o
 .debug_ranges  0x00001c00      0x338 build/tasks.o
 .debug_ranges  0x00001f38       0xe0 build/timers.o
 .debug_ranges  0x00002018      0x290 build/cmsis_os2.o
 .debug_ranges  0x000022a8       0x48 build/heap_4.o
 .debug_ranges  0x000022f0       0x88 build/port.o
 .debug_ranges  0x00002378       0x28 build/rlib.o
 .debug_ranges  0x000023a0       0x48 build/rbuffer.o
 .debug_ranges  0x000023e8      0x128 build/printf.o
 .debug_ranges  0x00002510       0x80 build/mems.o
 .debug_ranges  0x00002590       0x68 build/service.o
 .debug_ranges  0x000025f8       0x18 build/apmain.o
 .debug_ranges  0x00002610       0x88 build/apdialog.o
 .debug_ranges  0x00002698       0x78 build/motor.o
 .debug_ranges  0x00002710       0x68 build/autopilot.o
 .debug_ranges  0x00002778       0xa0 build/imu.o
 .debug_ranges  0x00002818       0x78 build/geom.o
 .debug_ranges  0x00002890       0x48 build/madgwick.o
 .debug_ranges  0x000028d8       0x20 build/startup_stm32l452xx.o

.debug_line     0x00000000    0x2de79
 .debug_line    0x00000000      0xeef build/main.o
 .debug_line    0x00000eef      0x46c build/stm32l4xx_it.o
 .debug_line    0x0000135b      0x8ae build/stm32l4xx_hal_msp.o
 .debug_line    0x00001c09      0x260 build/stm32l4xx_hal_timebase_tim.o
 .debug_line    0x00001e69      0x4d6 build/stm32l4xx_ll_exti.o
 .debug_line    0x0000233f     0x4cd9 build/stm32l4xx_hal_tim.o
 .debug_line    0x00007018     0x1e92 build/stm32l4xx_hal_tim_ex.o
 .debug_line    0x00008eaa      0x701 build/stm32l4xx_ll_gpio.o
 .debug_line    0x000095ab     0x20fc build/stm32l4xx_hal_adc.o
 .debug_line    0x0000b6a7     0x1671 build/stm32l4xx_hal_adc_ex.o
 .debug_line    0x0000cd18      0x610 build/stm32l4xx_hal.o
 .debug_line    0x0000d328      0xec7 build/stm32l4xx_hal_rcc.o
 .debug_line    0x0000e1ef     0x13c5 build/stm32l4xx_hal_rcc_ex.o
 .debug_line    0x0000f5b4      0x601 build/stm32l4xx_hal_gpio.o
 .debug_line    0x0000fbb5      0x9b2 build/stm32l4xx_hal_dma.o
 .debug_line    0x00010567      0x898 build/stm32l4xx_hal_pwr_ex.o
 .debug_line    0x00010dff      0x7a4 build/stm32l4xx_hal_cortex.o
 .debug_line    0x000115a3     0x2a1e build/stm32l4xx_hal_spi.o
 .debug_line    0x00013fc1     0x5147 build/stm32l4xx_hal_uart.o
 .debug_line    0x00019108      0xa93 build/stm32l4xx_hal_uart_ex.o
 .debug_line    0x00019b9b      0x20c build/system_stm32l4xx.o
 .debug_line    0x00019da7      0x2d0 build/list.o
 .debug_line    0x0001a077     0x1e72 build/queue.o
 .debug_line    0x0001bee9     0x13f9 build/stream_buffer.o
 .debug_line    0x0001d2e2     0x2b16 build/tasks.o
 .debug_line    0x0001fdf8      0xde6 build/timers.o
 .debug_line    0x00020bde     0x2982 build/cmsis_os2.o
 .debug_line    0x00023560      0x638 build/heap_4.o
 .debug_line    0x00023b98      0x646 build/port.o
 .debug_line    0x000241de      0x160 build/rlib.o
 .debug_line    0x0002433e      0x2ad build/rbuffer.o
 .debug_line    0x000245eb     0x1029 build/printf.o
 .debug_line    0x00025614      0xb3f build/mems.o
 .debug_line    0x00026153      0x55c build/service.o
 .debug_line    0x000266af      0x31b build/apmain.o
 .debug_line    0x000269ca      0xb2c build/apdialog.o
 .debug_line    0x000274f6      0x9cf build/motor.o
 .debug_line    0x00027ec5      0x6a8 build/autopilot.o
 .debug_line    0x0002856d      0xa84 build/imu.o
 .debug_line    0x00028ff1      0x397 build/geom.o
 .debug_line    0x00029388      0x6f8 build/madgwick.o
 .debug_line    0x00029a80       0x76 build/startup_stm32l452xx.o
 .debug_line    0x00029af6      0x12c /usr/lib/gcc/arm-none-eabi/12.2.1/../../../arm-none-eabi/lib/thumb/v7e-m+fp/hard/libc_nano.a(lib_a-init.o)
 .debug_line    0x00029c22      0x2bc /usr/lib/gcc/arm-none-eabi/12.2.1/../../../arm-none-eabi/lib/thumb/v7e-m+fp/hard/libm.a(lib_a-sf_atan.o)
 .debug_line    0x00029ede      0x1c8 /usr/lib/gcc/arm-none-eabi/12.2.1/../../../arm-none-eabi/lib/thumb/v7e-m+fp/hard/libm.a(lib_a-sf_cos.o)
 .debug_line    0x0002a0a6      0x146 /usr/lib/gcc/arm-none-eabi/12.2.1/../../../arm-none-eabi/lib/thumb/v7e-m+fp/hard/libm.a(lib_a-sf_fabs.o)
 .debug_line    0x0002a1ec      0x1c8 /usr/lib/gcc/arm-none-eabi/12.2.1/../../../arm-none-eabi/lib/thumb/v7e-m+fp/hard/libm.a(lib_a-sf_sin.o)
 .debug_line    0x0002a3b4      0x164 /usr/lib/gcc/arm-none-eabi/12.2.1/../../../arm-none-eabi/lib/thumb/v7e-m+fp/hard/libm.a(lib_a-w_sqrt.o)
 .debug_line    0x0002a518      0x16c /usr/lib/gcc/arm-none-eabi/12.2.1/../../../arm-none-eabi/lib/thumb/v7e-m+fp/hard/libm.a(lib_a-wf_acos.o)
 .debug_line    0x0002a684      0x16c /usr/lib/gcc/arm-none-eabi/12.2.1/../../../arm-none-eabi/lib/thumb/v7e-m+fp/hard/libm.a(lib_a-wf_asin.o)
 .debug_line    0x0002a7f0       0xe4 /usr/lib/gcc/arm-none-eabi/12.2.1/../../../arm-none-eabi/lib/thumb/v7e-m+fp/hard/libm.a(lib_a-wf_atan2.o)
 .debug_line    0x0002a8d4      0x15d /usr/lib/gcc/arm-none-eabi/12.2.1/../../../arm-none-eabi/lib/thumb/v7e-m+fp/hard/libm.a(lib_a-wf_fmod.o)
 .debug_line    0x0002aa31      0x15c /usr/lib/gcc/arm-none-eabi/12.2.1/../../../arm-none-eabi/lib/thumb/v7e-m+fp/hard/libm.a(lib_a-wf_sqrt.o)
 .debug_line    0x0002ab8d      0x40c /usr/lib/gcc/arm-none-eabi/12.2.1/../../../arm-none-eabi/lib/thumb/v7e-m+fp/hard/libm.a(lib_a-e_sqrt.o)
 .debug_line    0x0002af99      0x2eb /usr/lib/gcc/arm-none-eabi/12.2.1/../../../arm-none-eabi/lib/thumb/v7e-m+fp/hard/libm.a(lib_a-ef_acos.o)
 .debug_line    0x0002b284      0x2ef /usr/lib/gcc/arm-none-eabi/12.2.1/../../../arm-none-eabi/lib/thumb/v7e-m+fp/hard/libm.a(lib_a-ef_asin.o)
 .debug_line    0x0002b573      0x2a1 /usr/lib/gcc/arm-none-eabi/12.2.1/../../../arm-none-eabi/lib/thumb/v7e-m+fp/hard/libm.a(lib_a-ef_atan2.o)
 .debug_line    0x0002b814      0x31d /usr/lib/gcc/arm-none-eabi/12.2.1/../../../arm-none-eabi/lib/thumb/v7e-m+fp/hard/libm.a(lib_a-ef_fmod.o)
 .debug_line    0x0002bb31      0x482 /usr/lib/gcc/arm-none-eabi/12.2.1/../../../arm-none-eabi/lib/thumb/v7e-m+fp/hard/libm.a(lib_a-ef_rem_pio2.o)
 .debug_line    0x0002bfb3       0x77 /usr/lib/gcc/arm-none-eabi/12.2.1/../../../arm-none-eabi/lib/thumb/v7e-m+fp/hard/libm.a(lib_a-ef_sqrt.o)
 .debug_line    0x0002c02a      0x1d2 /usr/lib/gcc/arm-none-eabi/12.2.1/../../../arm-none-eabi/lib/thumb/v7e-m+fp/hard/libm.a(lib_a-kf_cos.o)
 .debug_line    0x0002c1fc      0xa19 /usr/lib/gcc/arm-none-eabi/12.2.1/../../../arm-none-eabi/lib/thumb/v7e-m+fp/hard/libm.a(lib_a-kf_rem_pio2.o)
 .debug_line    0x0002cc15      0x176 /usr/lib/gcc/arm-none-eabi/12.2.1/../../../arm-none-eabi/lib/thumb/v7e-m+fp/hard/libm.a(lib_a-kf_sin.o)
 .debug_line    0x0002cd8b       0x91 /usr/lib/gcc/arm-none-eabi/12.2.1/../../../arm-none-eabi/lib/thumb/v7e-m+fp/hard/libm.a(lib_a-s_lib_ver.o)
 .debug_line    0x0002ce1c      0x25f /usr/lib/gcc/arm-none-eabi/12.2.1/../../../arm-none-eabi/lib/thumb/v7e-m+fp/hard/libm.a(lib_a-sf_floor.o)
 .debug_line    0x0002d07b       0xa6 /usr/lib/gcc/arm-none-eabi/12.2.1/../../../arm-none-eabi/lib/thumb/v7e-m+fp/hard/libm.a(lib_a-sf_nan.o)
 .debug_line    0x0002d121      0x224 /usr/lib/gcc/arm-none-eabi/12.2.1/../../../arm-none-eabi/lib/thumb/v7e-m+fp/hard/libm.a(lib_a-sf_scalbn.o)
 .debug_line    0x0002d345      0x16f /usr/lib/gcc/arm-none-eabi/12.2.1/thumb/v7e-m+fp/hard/libgcc.a(_arm_addsubdf3.o)
 .debug_line    0x0002d4b4      0x184 /usr/lib/gcc/arm-none-eabi/12.2.1/thumb/v7e-m+fp/hard/libgcc.a(_arm_muldivdf3.o)
 .debug_line    0x0002d638       0xa6 /usr/lib/gcc/arm-none-eabi/12.2.1/thumb/v7e-m+fp/hard/libgcc.a(_arm_cmpdf2.o)
 .debug_line    0x0002d6de       0x57 /usr/lib/gcc/arm-none-eabi/12.2.1/thumb/v7e-m+fp/hard/libgcc.a(_arm_unorddf2.o)
 .debug_line    0x0002d735       0x62 /usr/lib/gcc/arm-none-eabi/12.2.1/thumb/v7e-m+fp/hard/libgcc.a(_arm_fixdfsi.o)
 .debug_line    0x0002d797       0x5e /usr/lib/gcc/arm-none-eabi/12.2.1/thumb/v7e-m+fp/hard/libgcc.a(_arm_fixunsdfsi.o)
 .debug_line    0x0002d7f5       0x76 /usr/lib/gcc/arm-none-eabi/12.2.1/thumb/v7e-m+fp/hard/libgcc.a(_arm_truncdfsf2.o)
 .debug_line    0x0002d86b       0x4e /usr/lib/gcc/arm-none-eabi/12.2.1/thumb/v7e-m+fp/hard/libgcc.a(_aeabi_uldivmod.o)
 .debug_line    0x0002d8b9      0x576 /usr/lib/gcc/arm-none-eabi/12.2.1/thumb/v7e-m+fp/hard/libgcc.a(_udivmoddi4.o)
 .debug_line    0x0002de2f       0x4a /usr/lib/gcc/arm-none-eabi/12.2.1/thumb/v7e-m+fp/hard/libgcc.a(_dvmd_tls.o)

.debug_str      0x00000000     0xcf3e
 .debug_str     0x00000000     0x1df9 build/main.o
                               0x2006 (size before relaxing)
 .debug_str     0x00001df9      0x29a build/stm32l4xx_it.o
                               0x1010 (size before relaxing)
 .debug_str     0x00002093      0x341 build/stm32l4xx_hal_msp.o
                               0x16e8 (size before relaxing)
 .debug_str     0x000023d4       0xec build/stm32l4xx_hal_timebase_tim.o
                                0xdbf (size before relaxing)
 .debug_str     0x000024c0      0x217 build/stm32l4xx_ll_exti.o
                                0x470 (size before relaxing)
 .debug_str     0x000026d7      0xeb3 build/stm32l4xx_hal_tim.o
                               0x16d9 (size before relaxing)
 .debug_str     0x0000358a      0x5d7 build/stm32l4xx_hal_tim_ex.o
                                0xfed (size before relaxing)
 .debug_str     0x00003b61       0xf3 build/stm32l4xx_ll_gpio.o
                                0x4a7 (size before relaxing)
 .debug_str     0x00003c54      0x923 build/stm32l4xx_hal_adc.o
                               0x10bd (size before relaxing)
 .debug_str     0x00004577      0x4d8 build/stm32l4xx_hal_adc_ex.o
                                0xf49 (size before relaxing)
 .debug_str     0x00004a4f      0x44b build/stm32l4xx_hal.o
                                0xc7a (size before relaxing)
 .debug_str     0x00004e9a      0x247 build/stm32l4xx_hal_rcc.o
                                0x816 (size before relaxing)
 .debug_str     0x000050e1      0x475 build/stm32l4xx_hal_rcc_ex.o
                                0xb8a (size before relaxing)
 .debug_str     0x00005556       0xfd build/stm32l4xx_hal_gpio.o
                                0x505 (size before relaxing)
 .debug_str     0x00005653      0x1fa build/stm32l4xx_hal_dma.o
                                0x60e (size before relaxing)
 .debug_str     0x0000584d      0x427 build/stm32l4xx_hal_pwr_ex.o
                                0x760 (size before relaxing)
 .debug_str     0x00005c74      0x392 build/stm32l4xx_hal_cortex.o
                                0xb6a (size before relaxing)
 .debug_str     0x00006006      0x542 build/stm32l4xx_hal_spi.o
                                0xb91 (size before relaxing)
 .debug_str     0x00006548      0x76c build/stm32l4xx_hal_uart.o
                                0xfc9 (size before relaxing)
 .debug_str     0x00006cb4      0x1f4 build/stm32l4xx_hal_uart_ex.o
                                0x913 (size before relaxing)
 .debug_str     0x00006ea8       0x3d build/system_stm32l4xx.o
                                0x3a4 (size before relaxing)
 .debug_str     0x00006ee5      0x14d build/list.o
                                0x2cd (size before relaxing)
 .debug_str     0x00007032      0xa19 build/queue.o
                                0xcd0 (size before relaxing)
 .debug_str     0x00007a4b      0x5f2 build/stream_buffer.o
                                0x99b (size before relaxing)
 .debug_str     0x0000803d      0xbdb build/tasks.o
                               0x129d (size before relaxing)
 .debug_str     0x00008c18      0x5d8 build/timers.o
                                0xc09 (size before relaxing)
 .debug_str     0x000091f0      0xbe2 build/cmsis_os2.o
                               0x20c3 (size before relaxing)
 .debug_str     0x00009dd2      0x2b8 build/heap_4.o
                                0x4dc (size before relaxing)
 .debug_str     0x0000a08a      0x17d build/port.o
                                0x443 (size before relaxing)
 .debug_str     0x0000a207       0x39 build/rlib.o
                                0x1a4 (size before relaxing)
 .debug_str     0x0000a240       0xe3 build/rbuffer.o
                                0x23c (size before relaxing)
 .debug_str     0x0000a323      0x1fc build/printf.o
                                0x3c8 (size before relaxing)
 .debug_str     0x0000a51f      0x64a build/mems.o
                               0x10a2 (size before relaxing)
 .debug_str     0x0000ab69      0x1c7 build/service.o
                                0xa9a (size before relaxing)
 .debug_str     0x0000ad30       0xa1 build/apmain.o
                                0x3bb (size before relaxing)
 .debug_str     0x0000add1      0x444 build/apdialog.o
                                0xe24 (size before relaxing)
 .debug_str     0x0000b215      0x2cf build/motor.o
                               0x12d3 (size before relaxing)
 .debug_str     0x0000b4e4      0x1c0 build/autopilot.o
                                0xcdd (size before relaxing)
 .debug_str     0x0000b6a4      0x31a build/imu.o
                                0xb67 (size before relaxing)
 .debug_str     0x0000b9be       0xd5 build/geom.o
                                0x346 (size before relaxing)
 .debug_str     0x0000ba93      0x2be build/madgwick.o
                                0x4ba (size before relaxing)
 .debug_str     0x0000bd51       0x30 build/startup_stm32l452xx.o
                                 0x56 (size before relaxing)
 .debug_str     0x0000bd81      0x153 /usr/lib/gcc/arm-none-eabi/12.2.1/../../../arm-none-eabi/lib/thumb/v7e-m+fp/hard/libc_nano.a(lib_a-init.o)
                                0x1fb (size before relaxing)
 .debug_str     0x0000bed4       0xd1 /usr/lib/gcc/arm-none-eabi/12.2.1/../../../arm-none-eabi/lib/thumb/v7e-m+fp/hard/libm.a(lib_a-sf_atan.o)
                                0x1ed (size before relaxing)
 .debug_str     0x0000bfa5       0x62 /usr/lib/gcc/arm-none-eabi/12.2.1/../../../arm-none-eabi/lib/thumb/v7e-m+fp/hard/libm.a(lib_a-sf_cos.o)
                                0x202 (size before relaxing)
 .debug_str     0x0000c007       0x38 /usr/lib/gcc/arm-none-eabi/12.2.1/../../../arm-none-eabi/lib/thumb/v7e-m+fp/hard/libm.a(lib_a-sf_fabs.o)
                                0x1cf (size before relaxing)
 .debug_str     0x0000c03f       0x32 /usr/lib/gcc/arm-none-eabi/12.2.1/../../../arm-none-eabi/lib/thumb/v7e-m+fp/hard/libm.a(lib_a-sf_sin.o)
                                0x202 (size before relaxing)
 .debug_str     0x0000c071       0x8e /usr/lib/gcc/arm-none-eabi/12.2.1/../../../arm-none-eabi/lib/thumb/v7e-m+fp/hard/libm.a(lib_a-w_sqrt.o)
                                0x217 (size before relaxing)
 .debug_str     0x0000c0ff       0x48 /usr/lib/gcc/arm-none-eabi/12.2.1/../../../arm-none-eabi/lib/thumb/v7e-m+fp/hard/libm.a(lib_a-wf_acos.o)
                                0x1fa (size before relaxing)
 .debug_str     0x0000c147       0x43 /usr/lib/gcc/arm-none-eabi/12.2.1/../../../arm-none-eabi/lib/thumb/v7e-m+fp/hard/libm.a(lib_a-wf_asin.o)
                                0x1fa (size before relaxing)
 .debug_str     0x0000c18a       0x45 /usr/lib/gcc/arm-none-eabi/12.2.1/../../../arm-none-eabi/lib/thumb/v7e-m+fp/hard/libm.a(lib_a-wf_atan2.o)
                                0x1ac (size before relaxing)
 .debug_str     0x0000c1cf       0x43 /usr/lib/gcc/arm-none-eabi/12.2.1/../../../arm-none-eabi/lib/thumb/v7e-m+fp/hard/libm.a(lib_a-wf_fmod.o)
                                0x1ef (size before relaxing)
 .debug_str     0x0000c212       0x43 /usr/lib/gcc/arm-none-eabi/12.2.1/../../../arm-none-eabi/lib/thumb/v7e-m+fp/hard/libm.a(lib_a-wf_sqrt.o)
                                0x1ef (size before relaxing)
 .debug_str     0x0000c255       0xc4 /usr/lib/gcc/arm-none-eabi/12.2.1/../../../arm-none-eabi/lib/thumb/v7e-m+fp/hard/libm.a(lib_a-e_sqrt.o)
                                0x232 (size before relaxing)
 .debug_str     0x0000c319       0x43 /usr/lib/gcc/arm-none-eabi/12.2.1/../../../arm-none-eabi/lib/thumb/v7e-m+fp/hard/libm.a(lib_a-ef_acos.o)
                                0x203 (size before relaxing)
 .debug_str     0x0000c35c       0x3b /usr/lib/gcc/arm-none-eabi/12.2.1/../../../arm-none-eabi/lib/thumb/v7e-m+fp/hard/libm.a(lib_a-ef_asin.o)
                                0x216 (size before relaxing)
 .debug_str     0x0000c397       0x48 /usr/lib/gcc/arm-none-eabi/12.2.1/../../../arm-none-eabi/lib/thumb/v7e-m+fp/hard/libm.a(lib_a-ef_atan2.o)
                                0x20f (size before relaxing)
 .debug_str     0x0000c3df       0x38 /usr/lib/gcc/arm-none-eabi/12.2.1/../../../arm-none-eabi/lib/thumb/v7e-m+fp/hard/libm.a(lib_a-ef_fmod.o)
                                0x1e8 (size before relaxing)
 .debug_str     0x0000c417       0xa3 /usr/lib/gcc/arm-none-eabi/12.2.1/../../../arm-none-eabi/lib/thumb/v7e-m+fp/hard/libm.a(lib_a-ef_rem_pio2.o)
                                0x262 (size before relaxing)
 .debug_str     0x0000c4ba       0x3d /usr/lib/gcc/arm-none-eabi/12.2.1/../../../arm-none-eabi/lib/thumb/v7e-m+fp/hard/libm.a(lib_a-ef_sqrt.o)
                                0x1bb (size before relaxing)
 .debug_str     0x0000c4f7       0x32 /usr/lib/gcc/arm-none-eabi/12.2.1/../../../arm-none-eabi/lib/thumb/v7e-m+fp/hard/libm.a(lib_a-kf_cos.o)
                                0x1e0 (size before relaxing)
 .debug_str     0x0000c529       0x6f /usr/lib/gcc/arm-none-eabi/12.2.1/../../../arm-none-eabi/lib/thumb/v7e-m+fp/hard/libm.a(lib_a-kf_rem_pio2.o)
                                0x1fb (size before relaxing)
 .debug_str     0x0000c598       0x32 /usr/lib/gcc/arm-none-eabi/12.2.1/../../../arm-none-eabi/lib/thumb/v7e-m+fp/hard/libm.a(lib_a-kf_sin.o)
                                0x1e0 (size before relaxing)
 .debug_str     0x0000c5ca      0x104 /usr/lib/gcc/arm-none-eabi/12.2.1/../../../arm-none-eabi/lib/thumb/v7e-m+fp/hard/libm.a(lib_a-s_lib_ver.o)
                                0x1e4 (size before relaxing)
 .debug_str     0x0000c6ce       0x3e /usr/lib/gcc/arm-none-eabi/12.2.1/../../../arm-none-eabi/lib/thumb/v7e-m+fp/hard/libm.a(lib_a-sf_floor.o)
                                0x1f1 (size before relaxing)
 .debug_str     0x0000c70c       0x3b /usr/lib/gcc/arm-none-eabi/12.2.1/../../../arm-none-eabi/lib/thumb/v7e-m+fp/hard/libm.a(lib_a-sf_nan.o)
                                0x1af (size before relaxing)
 .debug_str     0x0000c747       0x4e /usr/lib/gcc/arm-none-eabi/12.2.1/../../../arm-none-eabi/lib/thumb/v7e-m+fp/hard/libm.a(lib_a-sf_scalbn.o)
                                0x20f (size before relaxing)
 .debug_str     0x0000c795      0x115 /usr/lib/gcc/arm-none-eabi/12.2.1/thumb/v7e-m+fp/hard/libgcc.a(_arm_addsubdf3.o)
                                0x154 (size before relaxing)
 .debug_str     0x0000c8aa       0x12 /usr/lib/gcc/arm-none-eabi/12.2.1/thumb/v7e-m+fp/hard/libgcc.a(_arm_muldivdf3.o)
                                 0xd4 (size before relaxing)
 .debug_str     0x0000c8bc       0x6a /usr/lib/gcc/arm-none-eabi/12.2.1/thumb/v7e-m+fp/hard/libgcc.a(_arm_cmpdf2.o)
                                0x15d (size before relaxing)
 .debug_str     0x0000c926        0xb /usr/lib/gcc/arm-none-eabi/12.2.1/thumb/v7e-m+fp/hard/libgcc.a(_arm_unorddf2.o)
                                 0xc2 (size before relaxing)
 .debug_str     0x0000c931        0xa /usr/lib/gcc/arm-none-eabi/12.2.1/thumb/v7e-m+fp/hard/libgcc.a(_arm_fixdfsi.o)
                                 0xbf (size before relaxing)
 .debug_str     0x0000c93b        0xd /usr/lib/gcc/arm-none-eabi/12.2.1/thumb/v7e-m+fp/hard/libgcc.a(_arm_fixunsdfsi.o)
                                 0xc3 (size before relaxing)
 .debug_str     0x0000c948        0xd /usr/lib/gcc/arm-none-eabi/12.2.1/thumb/v7e-m+fp/hard/libgcc.a(_arm_truncdfsf2.o)
                                 0xc1 (size before relaxing)
 .debug_str     0x0000c955       0x2c /usr/lib/gcc/arm-none-eabi/12.2.1/thumb/v7e-m+fp/hard/libgcc.a(_aeabi_uldivmod.o)
                                 0xa3 (size before relaxing)
 .debug_str     0x0000c981      0x571 /usr/lib/gcc/arm-none-eabi/12.2.1/thumb/v7e-m+fp/hard/libgcc.a(_udivmoddi4.o)
                                0x676 (size before relaxing)
 .debug_str     0x0000cef2       0x4c /usr/lib/gcc/arm-none-eabi/12.2.1/thumb/v7e-m+fp/hard/libgcc.a(_dvmd_tls.o)
                                 0xc3 (size before relaxing)

.debug_frame    0x00000000     0x6a10
 .debug_frame   0x00000000      0x1dc build/main.o
 .debug_frame   0x000001dc      0x1c0 build/stm32l4xx_it.o
 .debug_frame   0x0000039c      0x118 build/stm32l4xx_hal_msp.o
 .debug_frame   0x000004b4       0x54 build/stm32l4xx_hal_timebase_tim.o
 .debug_frame   0x00000508       0x54 build/stm32l4xx_ll_exti.o
 .debug_frame   0x0000055c      0xb48 build/stm32l4xx_hal_tim.o
 .debug_frame   0x000010a4      0x478 build/stm32l4xx_hal_tim_ex.o
 .debug_frame   0x0000151c       0xdc build/stm32l4xx_ll_gpio.o
 .debug_frame   0x000015f8      0x328 build/stm32l4xx_hal_adc.o
 .debug_frame   0x00001920      0x250 build/stm32l4xx_hal_adc_ex.o
 .debug_frame   0x00001b70      0x274 build/stm32l4xx_hal.o
 .debug_frame   0x00001de4      0x19c build/stm32l4xx_hal_rcc.o
 .debug_frame   0x00001f80      0x25c build/stm32l4xx_hal_rcc_ex.o
 .debug_frame   0x000021dc       0xd0 build/stm32l4xx_hal_gpio.o
 .debug_frame   0x000022ac      0x150 build/stm32l4xx_hal_dma.o
 .debug_frame   0x000023fc      0x248 build/stm32l4xx_hal_pwr_ex.o
 .debug_frame   0x00002644      0x204 build/stm32l4xx_hal_cortex.o
 .debug_frame   0x00002848      0x5f8 build/stm32l4xx_hal_spi.o
 .debug_frame   0x00002e40      0x600 build/stm32l4xx_hal_uart.o
 .debug_frame   0x00003440      0x158 build/stm32l4xx_hal_uart_ex.o
 .debug_frame   0x00003598       0x30 build/system_stm32l4xx.o
 .debug_frame   0x000035c8       0x70 build/list.o
 .debug_frame   0x00003638      0x458 build/queue.o
 .debug_frame   0x00003a90      0x380 build/stream_buffer.o
 .debug_frame   0x00003e10      0x684 build/tasks.o
 .debug_frame   0x00004494      0x30c build/timers.o
 .debug_frame   0x000047a0      0x90c build/cmsis_os2.o
 .debug_frame   0x000050ac       0xd0 build/heap_4.o
 .debug_frame   0x0000517c      0x110 build/port.o
 .debug_frame   0x0000528c       0x50 build/rlib.o
 .debug_frame   0x000052dc       0xa8 build/rbuffer.o
 .debug_frame   0x00005384      0x218 build/printf.o
 .debug_frame   0x0000559c      0x1dc build/mems.o
 .debug_frame   0x00005778      0x134 build/service.o
 .debug_frame   0x000058ac       0x48 build/apmain.o
 .debug_frame   0x000058f4       0xe4 build/apdialog.o
 .debug_frame   0x000059d8      0x188 build/motor.o
 .debug_frame   0x00005b60      0x154 build/autopilot.o
 .debug_frame   0x00005cb4      0x2b4 build/imu.o
 .debug_frame   0x00005f68      0x1a0 build/geom.o
 .debug_frame   0x00006108      0x108 build/madgwick.o
 .debug_frame   0x00006210       0x2c /usr/lib/gcc/arm-none-eabi/12.2.1/../../../arm-none-eabi/lib/thumb/v7e-m+fp/hard/libc_nano.a(lib_a-init.o)
 .debug_frame   0x0000623c       0x2c /usr/lib/gcc/arm-none-eabi/12.2.1/../../../arm-none-eabi/lib/thumb/v7e-m+fp/hard/libm.a(lib_a-sf_atan.o)
 .debug_frame   0x00006268       0x34 /usr/lib/gcc/arm-none-eabi/12.2.1/../../../arm-none-eabi/lib/thumb/v7e-m+fp/hard/libm.a(lib_a-sf_cos.o)
 .debug_frame   0x0000629c       0x20 /usr/lib/gcc/arm-none-eabi/12.2.1/../../../arm-none-eabi/lib/thumb/v7e-m+fp/hard/libm.a(lib_a-sf_fabs.o)
 .debug_frame   0x000062bc       0x34 /usr/lib/gcc/arm-none-eabi/12.2.1/../../../arm-none-eabi/lib/thumb/v7e-m+fp/hard/libm.a(lib_a-sf_sin.o)
 .debug_frame   0x000062f0       0x48 /usr/lib/gcc/arm-none-eabi/12.2.1/../../../arm-none-eabi/lib/thumb/v7e-m+fp/hard/libm.a(lib_a-w_sqrt.o)
 .debug_frame   0x00006338       0x48 /usr/lib/gcc/arm-none-eabi/12.2.1/../../../arm-none-eabi/lib/thumb/v7e-m+fp/hard/libm.a(lib_a-wf_acos.o)
 .debug_frame   0x00006380       0x48 /usr/lib/gcc/arm-none-eabi/12.2.1/../../../arm-none-eabi/lib/thumb/v7e-m+fp/hard/libm.a(lib_a-wf_asin.o)
 .debug_frame   0x000063c8       0x20 /usr/lib/gcc/arm-none-eabi/12.2.1/../../../arm-none-eabi/lib/thumb/v7e-m+fp/hard/libm.a(lib_a-wf_atan2.o)
 .debug_frame   0x000063e8       0x44 /usr/lib/gcc/arm-none-eabi/12.2.1/../../../arm-none-eabi/lib/thumb/v7e-m+fp/hard/libm.a(lib_a-wf_fmod.o)
 .debug_frame   0x0000642c       0x44 /usr/lib/gcc/arm-none-eabi/12.2.1/../../../arm-none-eabi/lib/thumb/v7e-m+fp/hard/libm.a(lib_a-wf_sqrt.o)
 .debug_frame   0x00006470       0x34 /usr/lib/gcc/arm-none-eabi/12.2.1/../../../arm-none-eabi/lib/thumb/v7e-m+fp/hard/libm.a(lib_a-e_sqrt.o)
 .debug_frame   0x000064a4       0x64 /usr/lib/gcc/arm-none-eabi/12.2.1/../../../arm-none-eabi/lib/thumb/v7e-m+fp/hard/libm.a(lib_a-ef_acos.o)
 .debug_frame   0x00006508       0x70 /usr/lib/gcc/arm-none-eabi/12.2.1/../../../arm-none-eabi/lib/thumb/v7e-m+fp/hard/libm.a(lib_a-ef_asin.o)
 .debug_frame   0x00006578       0x44 /usr/lib/gcc/arm-none-eabi/12.2.1/../../../arm-none-eabi/lib/thumb/v7e-m+fp/hard/libm.a(lib_a-ef_atan2.o)
 .debug_frame   0x000065bc       0x3c /usr/lib/gcc/arm-none-eabi/12.2.1/../../../arm-none-eabi/lib/thumb/v7e-m+fp/hard/libm.a(lib_a-ef_fmod.o)
 .debug_frame   0x000065f8       0x34 /usr/lib/gcc/arm-none-eabi/12.2.1/../../../arm-none-eabi/lib/thumb/v7e-m+fp/hard/libm.a(lib_a-ef_rem_pio2.o)
 .debug_frame   0x0000662c       0x20 /usr/lib/gcc/arm-none-eabi/12.2.1/../../../arm-none-eabi/lib/thumb/v7e-m+fp/hard/libm.a(lib_a-ef_sqrt.o)
 .debug_frame   0x0000664c       0x20 /usr/lib/gcc/arm-none-eabi/12.2.1/../../../arm-none-eabi/lib/thumb/v7e-m+fp/hard/libm.a(lib_a-kf_cos.o)
 .debug_frame   0x0000666c       0x5c /usr/lib/gcc/arm-none-eabi/12.2.1/../../../arm-none-eabi/lib/thumb/v7e-m+fp/hard/libm.a(lib_a-kf_rem_pio2.o)
 .debug_frame   0x000066c8       0x20 /usr/lib/gcc/arm-none-eabi/12.2.1/../../../arm-none-eabi/lib/thumb/v7e-m+fp/hard/libm.a(lib_a-kf_sin.o)
 .debug_frame   0x000066e8       0x20 /usr/lib/gcc/arm-none-eabi/12.2.1/../../../arm-none-eabi/lib/thumb/v7e-m+fp/hard/libm.a(lib_a-sf_floor.o)
 .debug_frame   0x00006708       0x20 /usr/lib/gcc/arm-none-eabi/12.2.1/../../../arm-none-eabi/lib/thumb/v7e-m+fp/hard/libm.a(lib_a-sf_nan.o)
 .debug_frame   0x00006728       0x3c /usr/lib/gcc/arm-none-eabi/12.2.1/../../../arm-none-eabi/lib/thumb/v7e-m+fp/hard/libm.a(lib_a-sf_scalbn.o)
 .debug_frame   0x00006764       0xac /usr/lib/gcc/arm-none-eabi/12.2.1/thumb/v7e-m+fp/hard/libgcc.a(_arm_addsubdf3.o)
 .debug_frame   0x00006810       0x50 /usr/lib/gcc/arm-none-eabi/12.2.1/thumb/v7e-m+fp/hard/libgcc.a(_arm_muldivdf3.o)
 .debug_frame   0x00006860       0xc4 /usr/lib/gcc/arm-none-eabi/12.2.1/thumb/v7e-m+fp/hard/libgcc.a(_arm_cmpdf2.o)
 .debug_frame   0x00006924       0x20 /usr/lib/gcc/arm-none-eabi/12.2.1/thumb/v7e-m+fp/hard/libgcc.a(_arm_unorddf2.o)
 .debug_frame   0x00006944       0x24 /usr/lib/gcc/arm-none-eabi/12.2.1/thumb/v7e-m+fp/hard/libgcc.a(_arm_fixdfsi.o)
 .debug_frame   0x00006968       0x24 /usr/lib/gcc/arm-none-eabi/12.2.1/thumb/v7e-m+fp/hard/libgcc.a(_arm_fixunsdfsi.o)
 .debug_frame   0x0000698c       0x24 /usr/lib/gcc/arm-none-eabi/12.2.1/thumb/v7e-m+fp/hard/libgcc.a(_arm_truncdfsf2.o)
 .debug_frame   0x000069b0       0x2c /usr/lib/gcc/arm-none-eabi/12.2.1/thumb/v7e-m+fp/hard/libgcc.a(_aeabi_uldivmod.o)
 .debug_frame   0x000069dc       0x34 /usr/lib/gcc/arm-none-eabi/12.2.1/thumb/v7e-m+fp/hard/libgcc.a(_udivmoddi4.o)

.debug_loclists
                0x00000000     0x31f4
 .debug_loclists
                0x00000000       0x65 /usr/lib/gcc/arm-none-eabi/12.2.1/../../../arm-none-eabi/lib/thumb/v7e-m+fp/hard/libc_nano.a(lib_a-init.o)
 .debug_loclists
                0x00000065      0x165 /usr/lib/gcc/arm-none-eabi/12.2.1/../../../arm-none-eabi/lib/thumb/v7e-m+fp/hard/libm.a(lib_a-sf_atan.o)
 .debug_loclists
                0x000001ca       0x65 /usr/lib/gcc/arm-none-eabi/12.2.1/../../../arm-none-eabi/lib/thumb/v7e-m+fp/hard/libm.a(lib_a-sf_cos.o)
 .debug_loclists
                0x0000022f       0x5c /usr/lib/gcc/arm-none-eabi/12.2.1/../../../arm-none-eabi/lib/thumb/v7e-m+fp/hard/libm.a(lib_a-sf_fabs.o)
 .debug_loclists
                0x0000028b       0x65 /usr/lib/gcc/arm-none-eabi/12.2.1/../../../arm-none-eabi/lib/thumb/v7e-m+fp/hard/libm.a(lib_a-sf_sin.o)
 .debug_loclists
                0x000002f0       0x6c /usr/lib/gcc/arm-none-eabi/12.2.1/../../../arm-none-eabi/lib/thumb/v7e-m+fp/hard/libm.a(lib_a-w_sqrt.o)
 .debug_loclists
                0x0000035c       0x4e /usr/lib/gcc/arm-none-eabi/12.2.1/../../../arm-none-eabi/lib/thumb/v7e-m+fp/hard/libm.a(lib_a-wf_acos.o)
 .debug_loclists
                0x000003aa       0x4e /usr/lib/gcc/arm-none-eabi/12.2.1/../../../arm-none-eabi/lib/thumb/v7e-m+fp/hard/libm.a(lib_a-wf_asin.o)
 .debug_loclists
                0x000003f8       0x36 /usr/lib/gcc/arm-none-eabi/12.2.1/../../../arm-none-eabi/lib/thumb/v7e-m+fp/hard/libm.a(lib_a-wf_atan2.o)
 .debug_loclists
                0x0000042e       0x63 /usr/lib/gcc/arm-none-eabi/12.2.1/../../../arm-none-eabi/lib/thumb/v7e-m+fp/hard/libm.a(lib_a-wf_fmod.o)
 .debug_loclists
                0x00000491       0x46 /usr/lib/gcc/arm-none-eabi/12.2.1/../../../arm-none-eabi/lib/thumb/v7e-m+fp/hard/libm.a(lib_a-wf_sqrt.o)
 .debug_loclists
                0x000004d7      0x37c /usr/lib/gcc/arm-none-eabi/12.2.1/../../../arm-none-eabi/lib/thumb/v7e-m+fp/hard/libm.a(lib_a-e_sqrt.o)
 .debug_loclists
                0x00000853      0x24a /usr/lib/gcc/arm-none-eabi/12.2.1/../../../arm-none-eabi/lib/thumb/v7e-m+fp/hard/libm.a(lib_a-ef_acos.o)
 .debug_loclists
                0x00000a9d      0x21e /usr/lib/gcc/arm-none-eabi/12.2.1/../../../arm-none-eabi/lib/thumb/v7e-m+fp/hard/libm.a(lib_a-ef_asin.o)
 .debug_loclists
                0x00000cbb      0x3f1 /usr/lib/gcc/arm-none-eabi/12.2.1/../../../arm-none-eabi/lib/thumb/v7e-m+fp/hard/libm.a(lib_a-ef_atan2.o)
 .debug_loclists
                0x000010ac      0x464 /usr/lib/gcc/arm-none-eabi/12.2.1/../../../arm-none-eabi/lib/thumb/v7e-m+fp/hard/libm.a(lib_a-ef_fmod.o)
 .debug_loclists
                0x00001510      0x392 /usr/lib/gcc/arm-none-eabi/12.2.1/../../../arm-none-eabi/lib/thumb/v7e-m+fp/hard/libm.a(lib_a-ef_rem_pio2.o)
 .debug_loclists
                0x000018a2       0x32 /usr/lib/gcc/arm-none-eabi/12.2.1/../../../arm-none-eabi/lib/thumb/v7e-m+fp/hard/libm.a(lib_a-ef_sqrt.o)
 .debug_loclists
                0x000018d4      0x168 /usr/lib/gcc/arm-none-eabi/12.2.1/../../../arm-none-eabi/lib/thumb/v7e-m+fp/hard/libm.a(lib_a-kf_cos.o)
 .debug_loclists
                0x00001a3c      0x94a /usr/lib/gcc/arm-none-eabi/12.2.1/../../../arm-none-eabi/lib/thumb/v7e-m+fp/hard/libm.a(lib_a-kf_rem_pio2.o)
 .debug_loclists
                0x00002386       0xcd /usr/lib/gcc/arm-none-eabi/12.2.1/../../../arm-none-eabi/lib/thumb/v7e-m+fp/hard/libm.a(lib_a-kf_sin.o)
 .debug_loclists
                0x00002453      0x132 /usr/lib/gcc/arm-none-eabi/12.2.1/../../../arm-none-eabi/lib/thumb/v7e-m+fp/hard/libm.a(lib_a-sf_floor.o)
 .debug_loclists
                0x00002585      0x2dc /usr/lib/gcc/arm-none-eabi/12.2.1/../../../arm-none-eabi/lib/thumb/v7e-m+fp/hard/libm.a(lib_a-sf_scalbn.o)
 .debug_loclists
                0x00002861      0x993 /usr/lib/gcc/arm-none-eabi/12.2.1/thumb/v7e-m+fp/hard/libgcc.a(_udivmoddi4.o)

.debug_rnglists
                0x00000000      0x20c
 .debug_rnglists
                0x00000000       0x13 /usr/lib/gcc/arm-none-eabi/12.2.1/../../../arm-none-eabi/lib/thumb/v7e-m+fp/hard/libm.a(lib_a-sf_atan.o)
 .debug_rnglists
                0x00000013       0x13 /usr/lib/gcc/arm-none-eabi/12.2.1/../../../arm-none-eabi/lib/thumb/v7e-m+fp/hard/libm.a(lib_a-sf_cos.o)
 .debug_rnglists
                0x00000026       0x13 /usr/lib/gcc/arm-none-eabi/12.2.1/../../../arm-none-eabi/lib/thumb/v7e-m+fp/hard/libm.a(lib_a-sf_fabs.o)
 .debug_rnglists
                0x00000039       0x13 /usr/lib/gcc/arm-none-eabi/12.2.1/../../../arm-none-eabi/lib/thumb/v7e-m+fp/hard/libm.a(lib_a-sf_sin.o)
 .debug_rnglists
                0x0000004c       0x13 /usr/lib/gcc/arm-none-eabi/12.2.1/../../../arm-none-eabi/lib/thumb/v7e-m+fp/hard/libm.a(lib_a-e_sqrt.o)
 .debug_rnglists
                0x0000005f       0x32 /usr/lib/gcc/arm-none-eabi/12.2.1/../../../arm-none-eabi/lib/thumb/v7e-m+fp/hard/libm.a(lib_a-ef_acos.o)
 .debug_rnglists
                0x00000091       0x13 /usr/lib/gcc/arm-none-eabi/12.2.1/../../../arm-none-eabi/lib/thumb/v7e-m+fp/hard/libm.a(lib_a-ef_asin.o)
 .debug_rnglists
                0x000000a4       0x1a /usr/lib/gcc/arm-none-eabi/12.2.1/../../../arm-none-eabi/lib/thumb/v7e-m+fp/hard/libm.a(lib_a-ef_atan2.o)
 .debug_rnglists
                0x000000be       0x2c /usr/lib/gcc/arm-none-eabi/12.2.1/../../../arm-none-eabi/lib/thumb/v7e-m+fp/hard/libm.a(lib_a-ef_fmod.o)
 .debug_rnglists
                0x000000ea       0x28 /usr/lib/gcc/arm-none-eabi/12.2.1/../../../arm-none-eabi/lib/thumb/v7e-m+fp/hard/libm.a(lib_a-ef_rem_pio2.o)
 .debug_rnglists
                0x00000112       0x13 /usr/lib/gcc/arm-none-eabi/12.2.1/../../../arm-none-eabi/lib/thumb/v7e-m+fp/hard/libm.a(lib_a-ef_sqrt.o)
 .debug_rnglists
                0x00000125       0x14 /usr/lib/gcc/arm-none-eabi/12.2.1/../../../arm-none-eabi/lib/thumb/v7e-m+fp/hard/libm.a(lib_a-kf_cos.o)
 .debug_rnglists
                0x00000139       0x14 /usr/lib/gcc/arm-none-eabi/12.2.1/../../../arm-none-eabi/lib/thumb/v7e-m+fp/hard/libm.a(lib_a-kf_sin.o)
 .debug_rnglists
                0x0000014d       0x13 /usr/lib/gcc/arm-none-eabi/12.2.1/../../../arm-none-eabi/lib/thumb/v7e-m+fp/hard/libm.a(lib_a-sf_floor.o)
 .debug_rnglists
                0x00000160       0x23 /usr/lib/gcc/arm-none-eabi/12.2.1/../../../arm-none-eabi/lib/thumb/v7e-m+fp/hard/libm.a(lib_a-sf_scalbn.o)
 .debug_rnglists
                0x00000183       0x89 /usr/lib/gcc/arm-none-eabi/12.2.1/thumb/v7e-m+fp/hard/libgcc.a(_udivmoddi4.o)

.debug_line_str
                0x00000000       0xb0
 .debug_line_str
                0x00000000       0x9c /usr/lib/gcc/arm-none-eabi/12.2.1/thumb/v7e-m+fp/hard/libgcc.a(_arm_addsubdf3.o)
 .debug_line_str
                0x0000009c       0x9c /usr/lib/gcc/arm-none-eabi/12.2.1/thumb/v7e-m+fp/hard/libgcc.a(_arm_muldivdf3.o)
 .debug_line_str
                0x0000009c       0x9c /usr/lib/gcc/arm-none-eabi/12.2.1/thumb/v7e-m+fp/hard/libgcc.a(_arm_cmpdf2.o)
 .debug_line_str
                0x0000009c       0x9c /usr/lib/gcc/arm-none-eabi/12.2.1/thumb/v7e-m+fp/hard/libgcc.a(_arm_unorddf2.o)
 .debug_line_str
                0x0000009c       0x9c /usr/lib/gcc/arm-none-eabi/12.2.1/thumb/v7e-m+fp/hard/libgcc.a(_arm_fixdfsi.o)
 .debug_line_str
                0x0000009c       0x9c /usr/lib/gcc/arm-none-eabi/12.2.1/thumb/v7e-m+fp/hard/libgcc.a(_arm_fixunsdfsi.o)
 .debug_line_str
                0x0000009c       0x9c /usr/lib/gcc/arm-none-eabi/12.2.1/thumb/v7e-m+fp/hard/libgcc.a(_arm_truncdfsf2.o)
 .debug_line_str
                0x0000009c        0x8 /usr/lib/gcc/arm-none-eabi/12.2.1/thumb/v7e-m+fp/hard/libgcc.a(_aeabi_uldivmod.o)
                                 0x97 (size before relaxing)
 .debug_line_str
                0x000000a4        0xc /usr/lib/gcc/arm-none-eabi/12.2.1/thumb/v7e-m+fp/hard/libgcc.a(_dvmd_tls.o)
                                 0x9b (size before relaxing)

Cross Reference Table

Symbol                                            File
ADC1_IRQHandler                                   build/stm32l4xx_it.o
ADC_ConversionStop                                build/stm32l4xx_hal_adc.o
                                                  build/stm32l4xx_hal_adc_ex.o
ADC_DMAConvCplt                                   build/stm32l4xx_hal_adc.o
ADC_DMAError                                      build/stm32l4xx_hal_adc.o
ADC_DMAHalfConvCplt                               build/stm32l4xx_hal_adc.o
ADC_Disable                                       build/stm32l4xx_hal_adc.o
                                                  build/stm32l4xx_hal_adc_ex.o
ADC_Enable                                        build/stm32l4xx_hal_adc.o
                                                  build/stm32l4xx_hal_adc_ex.o
AHBPrescTable                                     build/system_stm32l4xx.o
                                                  build/stm32l4xx_hal_rcc.o
                                                  build/stm32l4xx_ll_utils.o
APBPrescTable                                     build/system_stm32l4xx.o
                                                  build/stm32l4xx_hal_rcc.o
APStatus                                          build/autopilot.o
AP_MSG_MotorStalled                               build/autopilot.o
                                                  build/motor.o
AP_MSG_MotorStopped                               build/autopilot.o
AP_get_engaged                                    build/autopilot.o
AP_get_heading_dir                                build/autopilot.o
AP_init                                           build/autopilot.o
AP_new_values                                     build/autopilot.o
AP_set_mode_heading                               build/autopilot.o
AP_set_mode_idle                                  build/autopilot.o
AP_turn                                           build/autopilot.o
BusFault_Handler                                  build/stm32l4xx_it.o
CAN1_RX0_IRQHandler                               build/startup_stm32l452xx.o
CAN1_RX1_IRQHandler                               build/startup_stm32l452xx.o
CAN1_SCE_IRQHandler                               build/startup_stm32l452xx.o
CAN1_TX_IRQHandler                                build/startup_stm32l452xx.o
COMP_IRQHandler                                   build/startup_stm32l452xx.o
CRS_IRQHandler                                    build/startup_stm32l452xx.o
DFSDM1_FLT0_IRQHandler                            build/startup_stm32l452xx.o
DFSDM1_FLT1_IRQHandler                            build/startup_stm32l452xx.o
DMA1_Channel1_IRQHandler                          build/stm32l4xx_it.o
DMA1_Channel2_IRQHandler                          build/startup_stm32l452xx.o
DMA1_Channel3_IRQHandler                          build/startup_stm32l452xx.o
DMA1_Channel4_IRQHandler                          build/stm32l4xx_it.o
DMA1_Channel5_IRQHandler                          build/stm32l4xx_it.o
DMA1_Channel6_IRQHandler                          build/stm32l4xx_it.o
DMA1_Channel7_IRQHandler                          build/stm32l4xx_it.o
DMA2_Channel1_IRQHandler                          build/startup_stm32l452xx.o
DMA2_Channel2_IRQHandler                          build/startup_stm32l452xx.o
DMA2_Channel3_IRQHandler                          build/startup_stm32l452xx.o
DMA2_Channel4_IRQHandler                          build/startup_stm32l452xx.o
DMA2_Channel5_IRQHandler                          build/startup_stm32l452xx.o
DMA2_Channel6_IRQHandler                          build/stm32l4xx_it.o
DMA2_Channel7_IRQHandler                          build/stm32l4xx_it.o
DebugMon_Handler                                  build/stm32l4xx_it.o
Default_Handler                                   build/startup_stm32l452xx.o
EXTI0_IRQHandler                                  build/stm32l4xx_it.o
EXTI15_10_IRQHandler                              build/startup_stm32l452xx.o
EXTI1_IRQHandler                                  build/stm32l4xx_it.o
EXTI2_IRQHandler                                  build/stm32l4xx_it.o
EXTI3_IRQHandler                                  build/startup_stm32l452xx.o
EXTI4_IRQHandler                                  build/startup_stm32l452xx.o
EXTI9_5_IRQHandler                                build/startup_stm32l452xx.o
Error_Handler                                     build/main.o
                                                  build/stm32l4xx_hal_msp.o
FLASH_FlushCaches                                 build/stm32l4xx_hal_flash_ex.o
                                                  build/stm32l4xx_hal_flash.o
FLASH_IRQHandler                                  build/startup_stm32l452xx.o
FLASH_PageErase                                   build/stm32l4xx_hal_flash_ex.o
                                                  build/stm32l4xx_hal_flash.o
FLASH_WaitForLastOperation                        build/stm32l4xx_hal_flash.o
                                                  build/stm32l4xx_hal_flash_ex.o
FPU_IRQHandler                                    build/startup_stm32l452xx.o
HAL_ADCEx_Calibration_GetValue                    build/stm32l4xx_hal_adc_ex.o
HAL_ADCEx_Calibration_SetValue                    build/stm32l4xx_hal_adc_ex.o
HAL_ADCEx_Calibration_Start                       build/stm32l4xx_hal_adc_ex.o
HAL_ADCEx_DisableInjectedQueue                    build/stm32l4xx_hal_adc_ex.o
HAL_ADCEx_DisableVoltageRegulator                 build/stm32l4xx_hal_adc_ex.o
HAL_ADCEx_EnableInjectedQueue                     build/stm32l4xx_hal_adc_ex.o
HAL_ADCEx_EndOfSamplingCallback                   build/stm32l4xx_hal_adc_ex.o
                                                  build/stm32l4xx_hal_adc.o
HAL_ADCEx_EnterADCDeepPowerDownMode               build/stm32l4xx_hal_adc_ex.o
HAL_ADCEx_InjectedConfigChannel                   build/stm32l4xx_hal_adc_ex.o
HAL_ADCEx_InjectedConvCpltCallback                build/stm32l4xx_hal_adc_ex.o
                                                  build/stm32l4xx_hal_adc.o
HAL_ADCEx_InjectedGetValue                        build/stm32l4xx_hal_adc_ex.o
HAL_ADCEx_InjectedPollForConversion               build/stm32l4xx_hal_adc_ex.o
HAL_ADCEx_InjectedQueueOverflowCallback           build/stm32l4xx_hal_adc_ex.o
                                                  build/stm32l4xx_hal_adc.o
HAL_ADCEx_InjectedStart                           build/stm32l4xx_hal_adc_ex.o
HAL_ADCEx_InjectedStart_IT                        build/stm32l4xx_hal_adc_ex.o
HAL_ADCEx_InjectedStop                            build/stm32l4xx_hal_adc_ex.o
HAL_ADCEx_InjectedStop_IT                         build/stm32l4xx_hal_adc_ex.o
HAL_ADCEx_LevelOutOfWindow2Callback               build/stm32l4xx_hal_adc_ex.o
                                                  build/stm32l4xx_hal_adc.o
HAL_ADCEx_LevelOutOfWindow3Callback               build/stm32l4xx_hal_adc_ex.o
                                                  build/stm32l4xx_hal_adc.o
HAL_ADCEx_RegularStop                             build/stm32l4xx_hal_adc_ex.o
HAL_ADCEx_RegularStop_DMA                         build/stm32l4xx_hal_adc_ex.o
HAL_ADCEx_RegularStop_IT                          build/stm32l4xx_hal_adc_ex.o
HAL_ADC_AnalogWDGConfig                           build/stm32l4xx_hal_adc.o
HAL_ADC_ConfigChannel                             build/stm32l4xx_hal_adc.o
                                                  build/main.o
HAL_ADC_ConvCpltCallback                          build/motor.o
                                                  build/stm32l4xx_hal_adc.o
HAL_ADC_ConvHalfCpltCallback                      build/stm32l4xx_hal_adc.o
HAL_ADC_DeInit                                    build/stm32l4xx_hal_adc.o
HAL_ADC_ErrorCallback                             build/stm32l4xx_hal_adc.o
HAL_ADC_GetError                                  build/stm32l4xx_hal_adc.o
HAL_ADC_GetState                                  build/stm32l4xx_hal_adc.o
HAL_ADC_GetValue                                  build/stm32l4xx_hal_adc.o
HAL_ADC_IRQHandler                                build/stm32l4xx_hal_adc.o
                                                  build/stm32l4xx_it.o
HAL_ADC_Init                                      build/stm32l4xx_hal_adc.o
                                                  build/main.o
HAL_ADC_LevelOutOfWindowCallback                  build/stm32l4xx_hal_adc.o
HAL_ADC_MspDeInit                                 build/stm32l4xx_hal_msp.o
HAL_ADC_MspInit                                   build/stm32l4xx_hal_msp.o
HAL_ADC_PollForConversion                         build/stm32l4xx_hal_adc.o
HAL_ADC_PollForEvent                              build/stm32l4xx_hal_adc.o
HAL_ADC_Start                                     build/stm32l4xx_hal_adc.o
HAL_ADC_Start_DMA                                 build/stm32l4xx_hal_adc.o
                                                  build/motor.o
HAL_ADC_Start_IT                                  build/stm32l4xx_hal_adc.o
HAL_ADC_Stop                                      build/stm32l4xx_hal_adc.o
HAL_ADC_Stop_DMA                                  build/stm32l4xx_hal_adc.o
HAL_ADC_Stop_IT                                   build/stm32l4xx_hal_adc.o
HAL_DBGMCU_DisableDBGSleepMode                    build/stm32l4xx_hal.o
HAL_DBGMCU_DisableDBGStandbyMode                  build/stm32l4xx_hal.o
HAL_DBGMCU_DisableDBGStopMode                     build/stm32l4xx_hal.o
HAL_DBGMCU_EnableDBGSleepMode                     build/stm32l4xx_hal.o
HAL_DBGMCU_EnableDBGStandbyMode                   build/stm32l4xx_hal.o
HAL_DBGMCU_EnableDBGStopMode                      build/stm32l4xx_hal.o
HAL_DMA_Abort                                     build/stm32l4xx_hal_dma.o
                                                  build/stm32l4xx_hal_uart.o
                                                  build/stm32l4xx_hal_spi.o
                                                  build/stm32l4xx_hal_adc_ex.o
                                                  build/stm32l4xx_hal_adc.o
HAL_DMA_Abort_IT                                  build/stm32l4xx_hal_dma.o
                                                  build/stm32l4xx_hal_uart.o
                                                  build/stm32l4xx_hal_spi.o
                                                  build/stm32l4xx_hal_tim_ex.o
                                                  build/stm32l4xx_hal_tim.o
HAL_DMA_DeInit                                    build/stm32l4xx_hal_dma.o
                                                  build/stm32l4xx_hal_msp.o
HAL_DMA_GetError                                  build/stm32l4xx_hal_dma.o
                                                  build/stm32l4xx_hal_uart.o
HAL_DMA_GetState                                  build/stm32l4xx_hal_dma.o
HAL_DMA_IRQHandler                                build/stm32l4xx_hal_dma.o
                                                  build/stm32l4xx_it.o
HAL_DMA_Init                                      build/stm32l4xx_hal_dma.o
                                                  build/stm32l4xx_hal_msp.o
HAL_DMA_PollForTransfer                           build/stm32l4xx_hal_dma.o
HAL_DMA_RegisterCallback                          build/stm32l4xx_hal_dma.o
HAL_DMA_Start                                     build/stm32l4xx_hal_dma.o
HAL_DMA_Start_IT                                  build/stm32l4xx_hal_dma.o
                                                  build/stm32l4xx_hal_uart.o
                                                  build/stm32l4xx_hal_spi.o
                                                  build/stm32l4xx_hal_adc.o
                                                  build/stm32l4xx_hal_tim_ex.o
                                                  build/stm32l4xx_hal_tim.o
HAL_DMA_UnRegisterCallback                        build/stm32l4xx_hal_dma.o
HAL_DeInit                                        build/stm32l4xx_hal.o
HAL_Delay                                         build/stm32l4xx_hal.o
HAL_EXTI_ClearConfigLine                          build/stm32l4xx_hal_exti.o
HAL_EXTI_ClearPending                             build/stm32l4xx_hal_exti.o
HAL_EXTI_GenerateSWI                              build/stm32l4xx_hal_exti.o
HAL_EXTI_GetConfigLine                            build/stm32l4xx_hal_exti.o
HAL_EXTI_GetHandle                                build/stm32l4xx_hal_exti.o
HAL_EXTI_GetPending                               build/stm32l4xx_hal_exti.o
HAL_EXTI_IRQHandler                               build/stm32l4xx_hal_exti.o
HAL_EXTI_RegisterCallback                         build/stm32l4xx_hal_exti.o
HAL_EXTI_SetConfigLine                            build/stm32l4xx_hal_exti.o
HAL_FLASHEx_DisableRunPowerDown                   build/stm32l4xx_hal_flash_ramfunc.o
HAL_FLASHEx_EnableRunPowerDown                    build/stm32l4xx_hal_flash_ramfunc.o
HAL_FLASHEx_Erase                                 build/stm32l4xx_hal_flash_ex.o
HAL_FLASHEx_Erase_IT                              build/stm32l4xx_hal_flash_ex.o
HAL_FLASHEx_OBGetConfig                           build/stm32l4xx_hal_flash_ex.o
HAL_FLASHEx_OBProgram                             build/stm32l4xx_hal_flash_ex.o
HAL_FLASH_EndOfOperationCallback                  build/stm32l4xx_hal_flash.o
HAL_FLASH_GetError                                build/stm32l4xx_hal_flash.o
HAL_FLASH_IRQHandler                              build/stm32l4xx_hal_flash.o
HAL_FLASH_Lock                                    build/stm32l4xx_hal_flash.o
HAL_FLASH_OB_Launch                               build/stm32l4xx_hal_flash.o
HAL_FLASH_OB_Lock                                 build/stm32l4xx_hal_flash.o
HAL_FLASH_OB_Unlock                               build/stm32l4xx_hal_flash.o
HAL_FLASH_OperationErrorCallback                  build/stm32l4xx_hal_flash.o
HAL_FLASH_Program                                 build/stm32l4xx_hal_flash.o
HAL_FLASH_Program_IT                              build/stm32l4xx_hal_flash.o
HAL_FLASH_Unlock                                  build/stm32l4xx_hal_flash.o
HAL_GPIO_DeInit                                   build/stm32l4xx_hal_gpio.o
                                                  build/stm32l4xx_hal_msp.o
HAL_GPIO_EXTI_Callback                            build/stm32l4xx_hal_gpio.o
HAL_GPIO_EXTI_IRQHandler                          build/stm32l4xx_hal_gpio.o
HAL_GPIO_Init                                     build/stm32l4xx_hal_gpio.o
                                                  build/stm32l4xx_hal_rcc_ex.o
                                                  build/stm32l4xx_hal_rcc.o
                                                  build/stm32l4xx_hal_msp.o
HAL_GPIO_LockPin                                  build/stm32l4xx_hal_gpio.o
HAL_GPIO_ReadPin                                  build/stm32l4xx_hal_gpio.o
HAL_GPIO_TogglePin                                build/stm32l4xx_hal_gpio.o
HAL_GPIO_WritePin                                 build/stm32l4xx_hal_gpio.o
HAL_GetDEVID                                      build/stm32l4xx_hal.o
HAL_GetHalVersion                                 build/stm32l4xx_hal.o
HAL_GetREVID                                      build/stm32l4xx_hal.o
HAL_GetTick                                       build/stm32l4xx_hal.o
                                                  build/stm32l4xx_hal_uart_ex.o
                                                  build/stm32l4xx_hal_uart.o
                                                  build/stm32l4xx_hal_spi.o
                                                  build/stm32l4xx_hal_dma.o
                                                  build/stm32l4xx_hal_flash.o
                                                  build/stm32l4xx_hal_rcc_ex.o
                                                  build/stm32l4xx_hal_rcc.o
                                                  build/stm32l4xx_hal_adc_ex.o
                                                  build/stm32l4xx_hal_adc.o
HAL_GetTickFreq                                   build/stm32l4xx_hal.o
HAL_GetTickPrio                                   build/stm32l4xx_hal.o
HAL_GetUIDw0                                      build/stm32l4xx_hal.o
HAL_GetUIDw1                                      build/stm32l4xx_hal.o
HAL_GetUIDw2                                      build/stm32l4xx_hal.o
HAL_HalfDuplex_EnableReceiver                     build/stm32l4xx_hal_uart.o
HAL_HalfDuplex_EnableTransmitter                  build/stm32l4xx_hal_uart.o
HAL_HalfDuplex_Init                               build/stm32l4xx_hal_uart.o
HAL_IncTick                                       build/stm32l4xx_hal.o
                                                  build/main.o
HAL_Init                                          build/stm32l4xx_hal.o
                                                  build/main.o
HAL_InitTick                                      build/stm32l4xx_hal_timebase_tim.o
                                                  build/stm32l4xx_hal_rcc.o
HAL_LIN_Init                                      build/stm32l4xx_hal_uart.o
HAL_LIN_SendBreak                                 build/stm32l4xx_hal_uart.o
HAL_MPU_ConfigRegion                              build/stm32l4xx_hal_cortex.o
HAL_MPU_Disable                                   build/stm32l4xx_hal_cortex.o
HAL_MPU_DisableRegion                             build/stm32l4xx_hal_cortex.o
HAL_MPU_Enable                                    build/stm32l4xx_hal_cortex.o
HAL_MPU_EnableRegion                              build/stm32l4xx_hal_cortex.o
HAL_MspDeInit                                     build/stm32l4xx_hal.o
HAL_MspInit                                       build/stm32l4xx_hal_msp.o
HAL_MultiProcessorEx_AddressLength_Set            build/stm32l4xx_hal_uart_ex.o
HAL_MultiProcessor_DisableMuteMode                build/stm32l4xx_hal_uart.o
HAL_MultiProcessor_EnableMuteMode                 build/stm32l4xx_hal_uart.o
HAL_MultiProcessor_EnterMuteMode                  build/stm32l4xx_hal_uart.o
HAL_MultiProcessor_Init                           build/stm32l4xx_hal_uart.o
HAL_NVIC_ClearPendingIRQ                          build/stm32l4xx_hal_cortex.o
HAL_NVIC_DisableIRQ                               build/stm32l4xx_hal_cortex.o
                                                  build/stm32l4xx_hal_msp.o
HAL_NVIC_EnableIRQ                                build/stm32l4xx_hal_cortex.o
                                                  build/stm32l4xx_hal_timebase_tim.o
                                                  build/stm32l4xx_hal_msp.o
                                                  build/main.o
HAL_NVIC_GetActive                                build/stm32l4xx_hal_cortex.o
HAL_NVIC_GetPendingIRQ                            build/stm32l4xx_hal_cortex.o
HAL_NVIC_GetPriority                              build/stm32l4xx_hal_cortex.o
HAL_NVIC_GetPriorityGrouping                      build/stm32l4xx_hal_cortex.o
HAL_NVIC_SetPendingIRQ                            build/stm32l4xx_hal_cortex.o
HAL_NVIC_SetPriority                              build/stm32l4xx_hal_cortex.o
                                                  build/stm32l4xx_hal.o
                                                  build/stm32l4xx_hal_timebase_tim.o
                                                  build/stm32l4xx_hal_msp.o
                                                  build/main.o
HAL_NVIC_SetPriorityGrouping                      build/stm32l4xx_hal_cortex.o
                                                  build/stm32l4xx_hal.o
HAL_NVIC_SystemReset                              build/stm32l4xx_hal_cortex.o
HAL_PWREx_ConfigPVM                               build/stm32l4xx_hal_pwr_ex.o
HAL_PWREx_ControlVoltageScaling                   build/stm32l4xx_hal_pwr_ex.o
                                                  build/main.o
HAL_PWREx_DisableBatteryCharging                  build/stm32l4xx_hal_pwr_ex.o
HAL_PWREx_DisableGPIOPullDown                     build/stm32l4xx_hal_pwr_ex.o
HAL_PWREx_DisableGPIOPullUp                       build/stm32l4xx_hal_pwr_ex.o
HAL_PWREx_DisableInternalWakeUpLine               build/stm32l4xx_hal_pwr_ex.o
HAL_PWREx_DisableLowPowerRunMode                  build/stm32l4xx_hal_pwr_ex.o
                                                  build/stm32l4xx_hal_pwr.o
HAL_PWREx_DisablePVM1                             build/stm32l4xx_hal_pwr_ex.o
HAL_PWREx_DisablePVM3                             build/stm32l4xx_hal_pwr_ex.o
HAL_PWREx_DisablePVM4                             build/stm32l4xx_hal_pwr_ex.o
HAL_PWREx_DisablePullUpPullDownConfig             build/stm32l4xx_hal_pwr_ex.o
HAL_PWREx_DisableSRAM2ContentRetention            build/stm32l4xx_hal_pwr_ex.o
HAL_PWREx_DisableVddUSB                           build/stm32l4xx_hal_pwr_ex.o
HAL_PWREx_EnableBatteryCharging                   build/stm32l4xx_hal_pwr_ex.o
HAL_PWREx_EnableGPIOPullDown                      build/stm32l4xx_hal_pwr_ex.o
HAL_PWREx_EnableGPIOPullUp                        build/stm32l4xx_hal_pwr_ex.o
HAL_PWREx_EnableInternalWakeUpLine                build/stm32l4xx_hal_pwr_ex.o
HAL_PWREx_EnableLowPowerRunMode                   build/stm32l4xx_hal_pwr_ex.o
                                                  build/stm32l4xx_hal_pwr.o
HAL_PWREx_EnablePVM1                              build/stm32l4xx_hal_pwr_ex.o
HAL_PWREx_EnablePVM3                              build/stm32l4xx_hal_pwr_ex.o
HAL_PWREx_EnablePVM4                              build/stm32l4xx_hal_pwr_ex.o
HAL_PWREx_EnablePullUpPullDownConfig              build/stm32l4xx_hal_pwr_ex.o
HAL_PWREx_EnableSRAM2ContentRetention             build/stm32l4xx_hal_pwr_ex.o
HAL_PWREx_EnableVddUSB                            build/stm32l4xx_hal_pwr_ex.o
HAL_PWREx_EnterSHUTDOWNMode                       build/stm32l4xx_hal_pwr_ex.o
HAL_PWREx_EnterSTOP0Mode                          build/stm32l4xx_hal_pwr_ex.o
                                                  build/stm32l4xx_hal_pwr.o
HAL_PWREx_EnterSTOP1Mode                          build/stm32l4xx_hal_pwr_ex.o
                                                  build/stm32l4xx_hal_pwr.o
HAL_PWREx_EnterSTOP2Mode                          build/stm32l4xx_hal_pwr_ex.o
HAL_PWREx_GetVoltageRange                         build/stm32l4xx_hal_pwr_ex.o
                                                  build/stm32l4xx_hal_rcc.o
HAL_PWREx_PVD_PVM_IRQHandler                      build/stm32l4xx_hal_pwr_ex.o
HAL_PWREx_PVM1Callback                            build/stm32l4xx_hal_pwr_ex.o
HAL_PWREx_PVM3Callback                            build/stm32l4xx_hal_pwr_ex.o
HAL_PWREx_PVM4Callback                            build/stm32l4xx_hal_pwr_ex.o
HAL_PWREx_SetSRAM2ContentRetention                build/stm32l4xx_hal_pwr_ex.o
HAL_PWR_ConfigPVD                                 build/stm32l4xx_hal_pwr.o
HAL_PWR_DeInit                                    build/stm32l4xx_hal_pwr.o
HAL_PWR_DisableBkUpAccess                         build/stm32l4xx_hal_pwr.o
                                                  build/stm32l4xx_hal_rcc_ex.o
HAL_PWR_DisablePVD                                build/stm32l4xx_hal_pwr.o
HAL_PWR_DisableSEVOnPend                          build/stm32l4xx_hal_pwr.o
HAL_PWR_DisableSleepOnExit                        build/stm32l4xx_hal_pwr.o
HAL_PWR_DisableWakeUpPin                          build/stm32l4xx_hal_pwr.o
HAL_PWR_EnableBkUpAccess                          build/stm32l4xx_hal_pwr.o
                                                  build/stm32l4xx_hal_rcc_ex.o
HAL_PWR_EnablePVD                                 build/stm32l4xx_hal_pwr.o
HAL_PWR_EnableSEVOnPend                           build/stm32l4xx_hal_pwr.o
HAL_PWR_EnableSleepOnExit                         build/stm32l4xx_hal_pwr.o
HAL_PWR_EnableWakeUpPin                           build/stm32l4xx_hal_pwr.o
HAL_PWR_EnterSLEEPMode                            build/stm32l4xx_hal_pwr.o
HAL_PWR_EnterSTANDBYMode                          build/stm32l4xx_hal_pwr.o
HAL_PWR_EnterSTOPMode                             build/stm32l4xx_hal_pwr.o
HAL_PWR_PVDCallback                               build/stm32l4xx_hal_pwr.o
                                                  build/stm32l4xx_hal_pwr_ex.o
HAL_RCCEx_CRSConfig                               build/stm32l4xx_hal_rcc_ex.o
HAL_RCCEx_CRSGetSynchronizationInfo               build/stm32l4xx_hal_rcc_ex.o
HAL_RCCEx_CRSSoftwareSynchronizationGenerate      build/stm32l4xx_hal_rcc_ex.o
HAL_RCCEx_CRSWaitSynchronization                  build/stm32l4xx_hal_rcc_ex.o
HAL_RCCEx_CRS_ErrorCallback                       build/stm32l4xx_hal_rcc_ex.o
HAL_RCCEx_CRS_ExpectedSyncCallback                build/stm32l4xx_hal_rcc_ex.o
HAL_RCCEx_CRS_IRQHandler                          build/stm32l4xx_hal_rcc_ex.o
HAL_RCCEx_CRS_SyncOkCallback                      build/stm32l4xx_hal_rcc_ex.o
HAL_RCCEx_CRS_SyncWarnCallback                    build/stm32l4xx_hal_rcc_ex.o
HAL_RCCEx_DisableLSCO                             build/stm32l4xx_hal_rcc_ex.o
HAL_RCCEx_DisableLSECSS                           build/stm32l4xx_hal_rcc_ex.o
HAL_RCCEx_DisableMSIPLLMode                       build/stm32l4xx_hal_rcc_ex.o
HAL_RCCEx_DisablePLLSAI1                          build/stm32l4xx_hal_rcc_ex.o
HAL_RCCEx_EnableLSCO                              build/stm32l4xx_hal_rcc_ex.o
HAL_RCCEx_EnableLSECSS                            build/stm32l4xx_hal_rcc_ex.o
HAL_RCCEx_EnableLSECSS_IT                         build/stm32l4xx_hal_rcc_ex.o
HAL_RCCEx_EnableMSIPLLMode                        build/stm32l4xx_hal_rcc_ex.o
HAL_RCCEx_EnablePLLSAI1                           build/stm32l4xx_hal_rcc_ex.o
HAL_RCCEx_GetPeriphCLKConfig                      build/stm32l4xx_hal_rcc_ex.o
HAL_RCCEx_GetPeriphCLKFreq                        build/stm32l4xx_hal_rcc_ex.o
HAL_RCCEx_LSECSS_Callback                         build/stm32l4xx_hal_rcc_ex.o
HAL_RCCEx_LSECSS_IRQHandler                       build/stm32l4xx_hal_rcc_ex.o
HAL_RCCEx_PeriphCLKConfig                         build/stm32l4xx_hal_rcc_ex.o
                                                  build/stm32l4xx_hal_msp.o
HAL_RCCEx_StandbyMSIRangeConfig                   build/stm32l4xx_hal_rcc_ex.o
HAL_RCCEx_WakeUpStopCLKConfig                     build/stm32l4xx_hal_rcc_ex.o
HAL_RCC_CSSCallback                               build/stm32l4xx_hal_rcc.o
HAL_RCC_ClockConfig                               build/stm32l4xx_hal_rcc.o
                                                  build/main.o
HAL_RCC_DeInit                                    build/stm32l4xx_hal_rcc.o
HAL_RCC_EnableCSS                                 build/stm32l4xx_hal_rcc.o
HAL_RCC_GetClockConfig                            build/stm32l4xx_hal_rcc.o
                                                  build/stm32l4xx_hal_timebase_tim.o
HAL_RCC_GetHCLKFreq                               build/stm32l4xx_hal_rcc.o
HAL_RCC_GetOscConfig                              build/stm32l4xx_hal_rcc.o
HAL_RCC_GetPCLK1Freq                              build/stm32l4xx_hal_rcc.o
                                                  build/stm32l4xx_hal_uart.o
                                                  build/stm32l4xx_hal_rcc_ex.o
                                                  build/stm32l4xx_hal_timebase_tim.o
HAL_RCC_GetPCLK2Freq                              build/stm32l4xx_hal_rcc.o
                                                  build/stm32l4xx_hal_uart.o
                                                  build/stm32l4xx_hal_rcc_ex.o
HAL_RCC_GetResetSource                            build/stm32l4xx_hal_rcc.o
HAL_RCC_GetSysClockFreq                           build/stm32l4xx_hal_rcc.o
                                                  build/stm32l4xx_hal_uart.o
                                                  build/stm32l4xx_hal_rcc_ex.o
HAL_RCC_MCOConfig                                 build/stm32l4xx_hal_rcc.o
                                                  build/main.o
HAL_RCC_NMI_IRQHandler                            build/stm32l4xx_hal_rcc.o
HAL_RCC_OscConfig                                 build/stm32l4xx_hal_rcc.o
                                                  build/main.o
HAL_RS485Ex_Init                                  build/stm32l4xx_hal_uart_ex.o
HAL_ResumeTick                                    build/stm32l4xx_hal_timebase_tim.o
HAL_SPIEx_FlushRxFifo                             build/stm32l4xx_hal_spi_ex.o
HAL_SPI_Abort                                     build/stm32l4xx_hal_spi.o
HAL_SPI_AbortCpltCallback                         build/stm32l4xx_hal_spi.o
HAL_SPI_Abort_IT                                  build/stm32l4xx_hal_spi.o
HAL_SPI_DMAPause                                  build/stm32l4xx_hal_spi.o
HAL_SPI_DMAResume                                 build/stm32l4xx_hal_spi.o
HAL_SPI_DMAStop                                   build/stm32l4xx_hal_spi.o
HAL_SPI_DeInit                                    build/stm32l4xx_hal_spi.o
HAL_SPI_ErrorCallback                             build/mems.o
                                                  build/stm32l4xx_hal_spi.o
HAL_SPI_GetError                                  build/stm32l4xx_hal_spi.o
HAL_SPI_GetState                                  build/stm32l4xx_hal_spi.o
HAL_SPI_IRQHandler                                build/stm32l4xx_hal_spi.o
                                                  build/stm32l4xx_it.o
HAL_SPI_Init                                      build/stm32l4xx_hal_spi.o
                                                  build/main.o
HAL_SPI_MspDeInit                                 build/stm32l4xx_hal_msp.o
HAL_SPI_MspInit                                   build/stm32l4xx_hal_msp.o
HAL_SPI_Receive                                   build/stm32l4xx_hal_spi.o
HAL_SPI_Receive_DMA                               build/stm32l4xx_hal_spi.o
HAL_SPI_Receive_IT                                build/stm32l4xx_hal_spi.o
HAL_SPI_RxCpltCallback                            build/stm32l4xx_hal_spi.o
HAL_SPI_RxHalfCpltCallback                        build/stm32l4xx_hal_spi.o
HAL_SPI_Transmit                                  build/stm32l4xx_hal_spi.o
HAL_SPI_TransmitReceive                           build/stm32l4xx_hal_spi.o
HAL_SPI_TransmitReceive_DMA                       build/stm32l4xx_hal_spi.o
                                                  build/mems.o
HAL_SPI_TransmitReceive_IT                        build/stm32l4xx_hal_spi.o
HAL_SPI_Transmit_DMA                              build/stm32l4xx_hal_spi.o
HAL_SPI_Transmit_IT                               build/stm32l4xx_hal_spi.o
HAL_SPI_TxCpltCallback                            build/stm32l4xx_hal_spi.o
HAL_SPI_TxHalfCpltCallback                        build/stm32l4xx_hal_spi.o
HAL_SPI_TxRxCpltCallback                          build/mems.o
                                                  build/stm32l4xx_hal_spi.o
HAL_SPI_TxRxHalfCpltCallback                      build/stm32l4xx_hal_spi.o
HAL_SYSCFG_DisableIOAnalogSwitchBooster           build/stm32l4xx_hal.o
HAL_SYSCFG_DisableMemorySwappingBank              build/stm32l4xx_hal.o
HAL_SYSCFG_DisableVREFBUF                         build/stm32l4xx_hal.o
HAL_SYSCFG_EnableIOAnalogSwitchBooster            build/stm32l4xx_hal.o
HAL_SYSCFG_EnableMemorySwappingBank               build/stm32l4xx_hal.o
HAL_SYSCFG_EnableVREFBUF                          build/stm32l4xx_hal.o
HAL_SYSCFG_SRAM2Erase                             build/stm32l4xx_hal.o
HAL_SYSCFG_VREFBUF_HighImpedanceConfig            build/stm32l4xx_hal.o
HAL_SYSCFG_VREFBUF_TrimmingConfig                 build/stm32l4xx_hal.o
HAL_SYSCFG_VREFBUF_VoltageScalingConfig           build/stm32l4xx_hal.o
HAL_SYSTICK_CLKSourceConfig                       build/stm32l4xx_hal_cortex.o
HAL_SYSTICK_Callback                              build/stm32l4xx_hal_cortex.o
HAL_SYSTICK_Config                                build/stm32l4xx_hal_cortex.o
                                                  build/stm32l4xx_hal.o
HAL_SYSTICK_IRQHandler                            build/stm32l4xx_hal_cortex.o
HAL_SetTickFreq                                   build/stm32l4xx_hal.o
HAL_SuspendTick                                   build/stm32l4xx_hal_timebase_tim.o
HAL_TIMEx_Break2Callback                          build/stm32l4xx_hal_tim_ex.o
                                                  build/stm32l4xx_hal_tim.o
HAL_TIMEx_BreakCallback                           build/stm32l4xx_hal_tim_ex.o
                                                  build/stm32l4xx_hal_tim.o
HAL_TIMEx_CommutCallback                          build/stm32l4xx_hal_tim_ex.o
                                                  build/stm32l4xx_hal_tim.o
HAL_TIMEx_CommutHalfCpltCallback                  build/stm32l4xx_hal_tim_ex.o
HAL_TIMEx_ConfigBreakDeadTime                     build/stm32l4xx_hal_tim_ex.o
HAL_TIMEx_ConfigBreakInput                        build/stm32l4xx_hal_tim_ex.o
HAL_TIMEx_ConfigCommutEvent                       build/stm32l4xx_hal_tim_ex.o
HAL_TIMEx_ConfigCommutEvent_DMA                   build/stm32l4xx_hal_tim_ex.o
HAL_TIMEx_ConfigCommutEvent_IT                    build/stm32l4xx_hal_tim_ex.o
HAL_TIMEx_GetChannelNState                        build/stm32l4xx_hal_tim_ex.o
HAL_TIMEx_GroupChannel5                           build/stm32l4xx_hal_tim_ex.o
HAL_TIMEx_HallSensor_DeInit                       build/stm32l4xx_hal_tim_ex.o
HAL_TIMEx_HallSensor_GetState                     build/stm32l4xx_hal_tim_ex.o
HAL_TIMEx_HallSensor_Init                         build/stm32l4xx_hal_tim_ex.o
HAL_TIMEx_HallSensor_MspDeInit                    build/stm32l4xx_hal_tim_ex.o
HAL_TIMEx_HallSensor_MspInit                      build/stm32l4xx_hal_tim_ex.o
HAL_TIMEx_HallSensor_Start                        build/stm32l4xx_hal_tim_ex.o
HAL_TIMEx_HallSensor_Start_DMA                    build/stm32l4xx_hal_tim_ex.o
HAL_TIMEx_HallSensor_Start_IT                     build/stm32l4xx_hal_tim_ex.o
HAL_TIMEx_HallSensor_Stop                         build/stm32l4xx_hal_tim_ex.o
HAL_TIMEx_HallSensor_Stop_DMA                     build/stm32l4xx_hal_tim_ex.o
HAL_TIMEx_HallSensor_Stop_IT                      build/stm32l4xx_hal_tim_ex.o
HAL_TIMEx_MasterConfigSynchronization             build/stm32l4xx_hal_tim_ex.o
                                                  build/main.o
HAL_TIMEx_OCN_Start                               build/stm32l4xx_hal_tim_ex.o
HAL_TIMEx_OCN_Start_DMA                           build/stm32l4xx_hal_tim_ex.o
HAL_TIMEx_OCN_Start_IT                            build/stm32l4xx_hal_tim_ex.o
HAL_TIMEx_OCN_Stop                                build/stm32l4xx_hal_tim_ex.o
HAL_TIMEx_OCN_Stop_DMA                            build/stm32l4xx_hal_tim_ex.o
HAL_TIMEx_OCN_Stop_IT                             build/stm32l4xx_hal_tim_ex.o
HAL_TIMEx_OnePulseN_Start                         build/stm32l4xx_hal_tim_ex.o
HAL_TIMEx_OnePulseN_Start_IT                      build/stm32l4xx_hal_tim_ex.o
HAL_TIMEx_OnePulseN_Stop                          build/stm32l4xx_hal_tim_ex.o
HAL_TIMEx_OnePulseN_Stop_IT                       build/stm32l4xx_hal_tim_ex.o
HAL_TIMEx_PWMN_Start                              build/stm32l4xx_hal_tim_ex.o
HAL_TIMEx_PWMN_Start_DMA                          build/stm32l4xx_hal_tim_ex.o
HAL_TIMEx_PWMN_Start_IT                           build/stm32l4xx_hal_tim_ex.o
HAL_TIMEx_PWMN_Stop                               build/stm32l4xx_hal_tim_ex.o
HAL_TIMEx_PWMN_Stop_DMA                           build/stm32l4xx_hal_tim_ex.o
HAL_TIMEx_PWMN_Stop_IT                            build/stm32l4xx_hal_tim_ex.o
HAL_TIMEx_RemapConfig                             build/stm32l4xx_hal_tim_ex.o
HAL_TIM_Base_DeInit                               build/stm32l4xx_hal_tim.o
HAL_TIM_Base_GetState                             build/stm32l4xx_hal_tim.o
HAL_TIM_Base_Init                                 build/stm32l4xx_hal_tim.o
                                                  build/stm32l4xx_hal_timebase_tim.o
                                                  build/main.o
HAL_TIM_Base_MspDeInit                            build/stm32l4xx_hal_msp.o
HAL_TIM_Base_MspInit                              build/stm32l4xx_hal_msp.o
HAL_TIM_Base_Start                                build/stm32l4xx_hal_tim.o
                                                  build/motor.o
HAL_TIM_Base_Start_DMA                            build/stm32l4xx_hal_tim.o
HAL_TIM_Base_Start_IT                             build/stm32l4xx_hal_tim.o
                                                  build/stm32l4xx_hal_timebase_tim.o
HAL_TIM_Base_Stop                                 build/stm32l4xx_hal_tim.o
HAL_TIM_Base_Stop_DMA                             build/stm32l4xx_hal_tim.o
HAL_TIM_Base_Stop_IT                              build/stm32l4xx_hal_tim.o
HAL_TIM_ConfigClockSource                         build/stm32l4xx_hal_tim.o
                                                  build/main.o
HAL_TIM_ConfigOCrefClear                          build/stm32l4xx_hal_tim.o
HAL_TIM_ConfigTI1Input                            build/stm32l4xx_hal_tim.o
HAL_TIM_DMABurstState                             build/stm32l4xx_hal_tim.o
HAL_TIM_DMABurst_MultiReadStart                   build/stm32l4xx_hal_tim.o
HAL_TIM_DMABurst_MultiWriteStart                  build/stm32l4xx_hal_tim.o
HAL_TIM_DMABurst_ReadStart                        build/stm32l4xx_hal_tim.o
HAL_TIM_DMABurst_ReadStop                         build/stm32l4xx_hal_tim.o
HAL_TIM_DMABurst_WriteStart                       build/stm32l4xx_hal_tim.o
HAL_TIM_DMABurst_WriteStop                        build/stm32l4xx_hal_tim.o
HAL_TIM_Encoder_DeInit                            build/stm32l4xx_hal_tim.o
HAL_TIM_Encoder_GetState                          build/stm32l4xx_hal_tim.o
HAL_TIM_Encoder_Init                              build/stm32l4xx_hal_tim.o
HAL_TIM_Encoder_MspDeInit                         build/stm32l4xx_hal_tim.o
HAL_TIM_Encoder_MspInit                           build/stm32l4xx_hal_tim.o
HAL_TIM_Encoder_Start                             build/stm32l4xx_hal_tim.o
HAL_TIM_Encoder_Start_DMA                         build/stm32l4xx_hal_tim.o
HAL_TIM_Encoder_Start_IT                          build/stm32l4xx_hal_tim.o
HAL_TIM_Encoder_Stop                              build/stm32l4xx_hal_tim.o
HAL_TIM_Encoder_Stop_DMA                          build/stm32l4xx_hal_tim.o
HAL_TIM_Encoder_Stop_IT                           build/stm32l4xx_hal_tim.o
HAL_TIM_ErrorCallback                             build/stm32l4xx_hal_tim.o
                                                  build/stm32l4xx_hal_tim_ex.o
HAL_TIM_GenerateEvent                             build/stm32l4xx_hal_tim.o
HAL_TIM_GetActiveChannel                          build/stm32l4xx_hal_tim.o
HAL_TIM_GetChannelState                           build/stm32l4xx_hal_tim.o
HAL_TIM_IC_CaptureCallback                        build/stm32l4xx_hal_tim.o
HAL_TIM_IC_CaptureHalfCpltCallback                build/stm32l4xx_hal_tim.o
HAL_TIM_IC_ConfigChannel                          build/stm32l4xx_hal_tim.o
HAL_TIM_IC_DeInit                                 build/stm32l4xx_hal_tim.o
HAL_TIM_IC_GetState                               build/stm32l4xx_hal_tim.o
HAL_TIM_IC_Init                                   build/stm32l4xx_hal_tim.o
HAL_TIM_IC_MspDeInit                              build/stm32l4xx_hal_tim.o
HAL_TIM_IC_MspInit                                build/stm32l4xx_hal_tim.o
HAL_TIM_IC_Start                                  build/stm32l4xx_hal_tim.o
HAL_TIM_IC_Start_DMA                              build/stm32l4xx_hal_tim.o
HAL_TIM_IC_Start_IT                               build/stm32l4xx_hal_tim.o
HAL_TIM_IC_Stop                                   build/stm32l4xx_hal_tim.o
HAL_TIM_IC_Stop_DMA                               build/stm32l4xx_hal_tim.o
HAL_TIM_IC_Stop_IT                                build/stm32l4xx_hal_tim.o
HAL_TIM_IRQHandler                                build/stm32l4xx_hal_tim.o
                                                  build/stm32l4xx_it.o
HAL_TIM_OC_ConfigChannel                          build/stm32l4xx_hal_tim.o
HAL_TIM_OC_DeInit                                 build/stm32l4xx_hal_tim.o
HAL_TIM_OC_DelayElapsedCallback                   build/stm32l4xx_hal_tim.o
HAL_TIM_OC_GetState                               build/stm32l4xx_hal_tim.o
HAL_TIM_OC_Init                                   build/stm32l4xx_hal_tim.o
HAL_TIM_OC_MspDeInit                              build/stm32l4xx_hal_tim.o
HAL_TIM_OC_MspInit                                build/stm32l4xx_hal_tim.o
HAL_TIM_OC_Start                                  build/stm32l4xx_hal_tim.o
HAL_TIM_OC_Start_DMA                              build/stm32l4xx_hal_tim.o
HAL_TIM_OC_Start_IT                               build/stm32l4xx_hal_tim.o
HAL_TIM_OC_Stop                                   build/stm32l4xx_hal_tim.o
HAL_TIM_OC_Stop_DMA                               build/stm32l4xx_hal_tim.o
HAL_TIM_OC_Stop_IT                                build/stm32l4xx_hal_tim.o
HAL_TIM_OnePulse_ConfigChannel                    build/stm32l4xx_hal_tim.o
HAL_TIM_OnePulse_DeInit                           build/stm32l4xx_hal_tim.o
HAL_TIM_OnePulse_GetState                         build/stm32l4xx_hal_tim.o
HAL_TIM_OnePulse_Init                             build/stm32l4xx_hal_tim.o
HAL_TIM_OnePulse_MspDeInit                        build/stm32l4xx_hal_tim.o
HAL_TIM_OnePulse_MspInit                          build/stm32l4xx_hal_tim.o
HAL_TIM_OnePulse_Start                            build/stm32l4xx_hal_tim.o
HAL_TIM_OnePulse_Start_IT                         build/stm32l4xx_hal_tim.o
HAL_TIM_OnePulse_Stop                             build/stm32l4xx_hal_tim.o
HAL_TIM_OnePulse_Stop_IT                          build/stm32l4xx_hal_tim.o
HAL_TIM_PWM_ConfigChannel                         build/stm32l4xx_hal_tim.o
HAL_TIM_PWM_DeInit                                build/stm32l4xx_hal_tim.o
HAL_TIM_PWM_GetState                              build/stm32l4xx_hal_tim.o
HAL_TIM_PWM_Init                                  build/stm32l4xx_hal_tim.o
HAL_TIM_PWM_MspDeInit                             build/stm32l4xx_hal_tim.o
HAL_TIM_PWM_MspInit                               build/stm32l4xx_hal_tim.o
HAL_TIM_PWM_PulseFinishedCallback                 build/stm32l4xx_hal_tim.o
                                                  build/stm32l4xx_hal_tim_ex.o
HAL_TIM_PWM_PulseFinishedHalfCpltCallback         build/stm32l4xx_hal_tim.o
HAL_TIM_PWM_Start                                 build/stm32l4xx_hal_tim.o
HAL_TIM_PWM_Start_DMA                             build/stm32l4xx_hal_tim.o
HAL_TIM_PWM_Start_IT                              build/stm32l4xx_hal_tim.o
HAL_TIM_PWM_Stop                                  build/stm32l4xx_hal_tim.o
HAL_TIM_PWM_Stop_DMA                              build/stm32l4xx_hal_tim.o
HAL_TIM_PWM_Stop_IT                               build/stm32l4xx_hal_tim.o
HAL_TIM_PeriodElapsedCallback                     build/main.o
HAL_TIM_PeriodElapsedHalfCpltCallback             build/stm32l4xx_hal_tim.o
HAL_TIM_ReadCapturedValue                         build/stm32l4xx_hal_tim.o
HAL_TIM_SlaveConfigSynchro                        build/stm32l4xx_hal_tim.o
HAL_TIM_SlaveConfigSynchro_IT                     build/stm32l4xx_hal_tim.o
HAL_TIM_TriggerCallback                           build/stm32l4xx_hal_tim.o
HAL_TIM_TriggerHalfCpltCallback                   build/stm32l4xx_hal_tim.o
HAL_UARTEx_DisableClockStopMode                   build/stm32l4xx_hal_uart_ex.o
HAL_UARTEx_DisableStopMode                        build/stm32l4xx_hal_uart_ex.o
HAL_UARTEx_EnableClockStopMode                    build/stm32l4xx_hal_uart_ex.o
HAL_UARTEx_EnableStopMode                         build/stm32l4xx_hal_uart_ex.o
HAL_UARTEx_GetRxEventType                         build/stm32l4xx_hal_uart_ex.o
HAL_UARTEx_ReceiveToIdle                          build/stm32l4xx_hal_uart_ex.o
HAL_UARTEx_ReceiveToIdle_DMA                      build/stm32l4xx_hal_uart_ex.o
HAL_UARTEx_ReceiveToIdle_IT                       build/stm32l4xx_hal_uart_ex.o
HAL_UARTEx_RxEventCallback                        build/stm32l4xx_hal_uart.o
HAL_UARTEx_StopModeWakeUpSourceConfig             build/stm32l4xx_hal_uart_ex.o
HAL_UARTEx_WakeupCallback                         build/stm32l4xx_hal_uart_ex.o
                                                  build/stm32l4xx_hal_uart.o
HAL_UART_Abort                                    build/stm32l4xx_hal_uart.o
HAL_UART_AbortCpltCallback                        build/stm32l4xx_hal_uart.o
HAL_UART_AbortReceive                             build/stm32l4xx_hal_uart.o
HAL_UART_AbortReceiveCpltCallback                 build/stm32l4xx_hal_uart.o
HAL_UART_AbortReceive_IT                          build/stm32l4xx_hal_uart.o
HAL_UART_AbortTransmit                            build/stm32l4xx_hal_uart.o
HAL_UART_AbortTransmitCpltCallback                build/stm32l4xx_hal_uart.o
HAL_UART_AbortTransmit_IT                         build/stm32l4xx_hal_uart.o
HAL_UART_Abort_IT                                 build/stm32l4xx_hal_uart.o
HAL_UART_DMAPause                                 build/stm32l4xx_hal_uart.o
HAL_UART_DMAResume                                build/stm32l4xx_hal_uart.o
HAL_UART_DMAStop                                  build/stm32l4xx_hal_uart.o
HAL_UART_DeInit                                   build/stm32l4xx_hal_uart.o
HAL_UART_DisableReceiverTimeout                   build/stm32l4xx_hal_uart.o
HAL_UART_EnableReceiverTimeout                    build/stm32l4xx_hal_uart.o
HAL_UART_ErrorCallback                            build/stm32l4xx_hal_uart.o
HAL_UART_GetError                                 build/stm32l4xx_hal_uart.o
HAL_UART_GetState                                 build/stm32l4xx_hal_uart.o
                                                  build/service.o
HAL_UART_IRQHandler                               build/stm32l4xx_hal_uart.o
                                                  build/stm32l4xx_it.o
HAL_UART_Init                                     build/stm32l4xx_hal_uart.o
                                                  build/main.o
HAL_UART_MspDeInit                                build/stm32l4xx_hal_msp.o
HAL_UART_MspInit                                  build/stm32l4xx_hal_msp.o
                                                  build/stm32l4xx_hal_uart_ex.o
HAL_UART_Receive                                  build/stm32l4xx_hal_uart.o
HAL_UART_Receive_DMA                              build/stm32l4xx_hal_uart.o
HAL_UART_Receive_IT                               build/stm32l4xx_hal_uart.o
                                                  build/service.o
HAL_UART_ReceiverTimeout_Config                   build/stm32l4xx_hal_uart.o
HAL_UART_RxCpltCallback                           build/service.o
                                                  build/stm32l4xx_hal_uart.o
HAL_UART_RxHalfCpltCallback                       build/stm32l4xx_hal_uart.o
HAL_UART_Transmit                                 build/stm32l4xx_hal_uart.o
HAL_UART_Transmit_DMA                             build/stm32l4xx_hal_uart.o
                                                  build/service.o
HAL_UART_Transmit_IT                              build/stm32l4xx_hal_uart.o
HAL_UART_TxCpltCallback                           build/service.o
                                                  build/stm32l4xx_hal_uart.o
HAL_UART_TxHalfCpltCallback                       build/stm32l4xx_hal_uart.o
HardFault_Handler                                 build/stm32l4xx_it.o
I2C1_ER_IRQHandler                                build/startup_stm32l452xx.o
I2C1_EV_IRQHandler                                build/startup_stm32l452xx.o
I2C2_ER_IRQHandler                                build/startup_stm32l452xx.o
I2C2_EV_IRQHandler                                build/startup_stm32l452xx.o
I2C3_ER_IRQHandler                                build/startup_stm32l452xx.o
I2C3_EV_IRQHandler                                build/startup_stm32l452xx.o
I2C4_ER_IRQHandler                                build/startup_stm32l452xx.o
I2C4_EV_IRQHandler                                build/startup_stm32l452xx.o
IMU_getQuaternion                                 build/imu.o
                                                  build/mems.o
IMU_get_heading                                   build/imu.o
                                                  build/mems.o
IMU_get_pitch                                     build/imu.o
                                                  build/mems.o
IMU_get_roll                                      build/imu.o
                                                  build/mems.o
IMU_get_yawRate                                   build/imu.o
                                                  build/mems.o
IMU_init_status                                   build/imu.o
                                                  build/mems.o
IMU_new_values                                    build/imu.o
                                                  build/mems.o
IMU_new_values_essai                              build/imu.o
IMU_new_values_st                                 build/imu.o
IMU_set_mag_vs_gyr_prop                           build/imu.o
                                                  build/mems.o
IMU_update_quat                                   build/imu.o
LL_EXTI_DeInit                                    build/stm32l4xx_ll_exti.o
LL_EXTI_Init                                      build/stm32l4xx_ll_exti.o
                                                  build/main.o
LL_EXTI_StructInit                                build/stm32l4xx_ll_exti.o
LL_GPIO_DeInit                                    build/stm32l4xx_ll_gpio.o
LL_GPIO_Init                                      build/stm32l4xx_ll_gpio.o
                                                  build/main.o
LL_GPIO_StructInit                                build/stm32l4xx_ll_gpio.o
LL_Init1msTick                                    build/stm32l4xx_ll_utils.o
LL_PLL_ConfigSystemClock_HSE                      build/stm32l4xx_ll_utils.o
LL_PLL_ConfigSystemClock_HSI                      build/stm32l4xx_ll_utils.o
LL_PLL_ConfigSystemClock_MSI                      build/stm32l4xx_ll_utils.o
LL_SetFlashLatency                                build/stm32l4xx_ll_utils.o
LL_SetSystemCoreClock                             build/stm32l4xx_ll_utils.o
LL_mDelay                                         build/stm32l4xx_ll_utils.o
LPTIM1_IRQHandler                                 build/startup_stm32l452xx.o
LPTIM2_IRQHandler                                 build/startup_stm32l452xx.o
LPUART1_IRQHandler                                build/startup_stm32l452xx.o
LSM9DS1_ReadAcc                                   build/mems.o
LSM9DS1_ReadGyr                                   build/mems.o
LSM9DS1_ReadMag                                   build/mems.o
LSM9DS1_ReadRegister                              build/mems.o
LSM9DS1_ReadVec                                   build/mems.o
LSM9DS1_WriteRegister                             build/mems.o
LSM9DS1_init                                      build/mems.o
MOTOR_MSG_letInClutch                             build/motor.o
                                                  build/autopilot.o
MOTOR_MSG_letOutClutch                            build/motor.o
                                                  build/autopilot.o
MOTOR_MSG_moveTime                                build/motor.o
                                                  build/autopilot.o
MOTOR_MSG_setHelmAngle                            build/motor.o
                                                  build/autopilot.o
MOTOR_MSG_set_cvt_angle_time                      build/motor.o
                                                  build/apdialog.o
MSIRangeTable                                     build/system_stm32l4xx.o
                                                  build/stm32l4xx_hal_rcc_ex.o
                                                  build/stm32l4xx_hal_rcc.o
                                                  build/stm32l4xx_ll_utils.o
Matrix3f_add                                      build/matrix3f.o
Matrix3f_init                                     build/matrix3f.o
Matrix3f_inverse                                  build/matrix3f.o
Matrix3f_null                                     build/matrix3f.o
Matrix3f_sub                                      build/matrix3f.o
Matrix3f_transpose                                build/matrix3f.o
Matrix3f_unit                                     build/matrix3f.o
Matrix_mul                                        build/matrix3f.o
Matrix_vector_mul                                 build/matrix3f.o
MemManage_Handler                                 build/stm32l4xx_it.o
Motor_disengageTiller                             build/motor.o
Motor_engageTiller                                build/motor.o
Motor_moveTime                                    build/motor.o
Motor_newValues                                   build/motor.o
Motor_setHelmAngle                                build/motor.o
Motor_set_cvt_angle_time                          build/motor.o
NMI_Handler                                       build/stm32l4xx_it.o
PVD_PVM_IRQHandler                                build/startup_stm32l452xx.o
PendSV_Handler                                    build/port.o
QUADSPI_IRQHandler                                build/startup_stm32l452xx.o
Quaternionf_add                                   build/quat.o
                                                  build/imu.o
Quaternionf_getDotProduct                         build/quat.o
Quaternionf_getNorm                               build/quat.o
Quaternionf_getNormalized                         build/quat.o
                                                  build/imu.o
Quaternionf_getScaled                             build/quat.o
                                                  build/imu.o
Quaternionf_init                                  build/quat.o
Quaternionf_mul                                   build/quat.o
                                                  build/imu.o
Quaternionf_sub                                   build/quat.o
Quaternionf_unit                                  build/quat.o
RCC_IRQHandler                                    build/startup_stm32l452xx.o
RNG_IRQHandler                                    build/startup_stm32l452xx.o
RTC_Alarm_IRQHandler                              build/startup_stm32l452xx.o
RTC_WKUP_IRQHandler                               build/startup_stm32l452xx.o
Reset_Handler                                     build/startup_stm32l452xx.o
SAI1_IRQHandler                                   build/startup_stm32l452xx.o
SDMMC1_IRQHandler                                 build/startup_stm32l452xx.o
SEq_1                                             build/madgwick.o
SEq_2                                             build/madgwick.o
SEq_3                                             build/madgwick.o
SEq_4                                             build/madgwick.o
SPI1_IRQHandler                                   build/startup_stm32l452xx.o
SPI2_IRQHandler                                   build/stm32l4xx_it.o
SPI3_IRQHandler                                   build/startup_stm32l452xx.o
SPI_DMA_Transfer                                  build/mems.o
SVC_Handler                                       build/port.o
StartDefaultTask                                  build/main.o
SysTick_Handler                                   build/cmsis_os2.o
SystemClock_Config                                build/main.o
SystemCoreClock                                   build/system_stm32l4xx.o
                                                  build/port.o
                                                  build/cmsis_os2.o
                                                  build/stm32l4xx_hal_spi.o
                                                  build/stm32l4xx_hal_pwr_ex.o
                                                  build/stm32l4xx_hal_rcc.o
                                                  build/stm32l4xx_hal.o
                                                  build/stm32l4xx_hal_adc_ex.o
                                                  build/stm32l4xx_hal_adc.o
                                                  build/stm32l4xx_ll_utils.o
SystemCoreClockUpdate                             build/system_stm32l4xx.o
SystemInit                                        build/system_stm32l4xx.o
                                                  build/startup_stm32l452xx.o
TAMP_STAMP_IRQHandler                             build/startup_stm32l452xx.o
TIM1_BRK_TIM15_IRQHandler                         build/startup_stm32l452xx.o
TIM1_CC_IRQHandler                                build/startup_stm32l452xx.o
TIM1_TRG_COM_IRQHandler                           build/startup_stm32l452xx.o
TIM1_UP_TIM16_IRQHandler                          build/startup_stm32l452xx.o
TIM2_IRQHandler                                   build/stm32l4xx_it.o
TIM3_IRQHandler                                   build/startup_stm32l452xx.o
TIM6_DAC_IRQHandler                               build/startup_stm32l452xx.o
TIMEx_DMACommutationCplt                          build/stm32l4xx_hal_tim_ex.o
                                                  build/stm32l4xx_hal_tim.o
TIMEx_DMACommutationHalfCplt                      build/stm32l4xx_hal_tim_ex.o
                                                  build/stm32l4xx_hal_tim.o
TIM_Base_SetConfig                                build/stm32l4xx_hal_tim.o
                                                  build/stm32l4xx_hal_tim_ex.o
TIM_CCxChannelCmd                                 build/stm32l4xx_hal_tim.o
                                                  build/stm32l4xx_hal_tim_ex.o
TIM_DMACaptureCplt                                build/stm32l4xx_hal_tim.o
                                                  build/stm32l4xx_hal_tim_ex.o
TIM_DMACaptureHalfCplt                            build/stm32l4xx_hal_tim.o
                                                  build/stm32l4xx_hal_tim_ex.o
TIM_DMADelayPulseHalfCplt                         build/stm32l4xx_hal_tim.o
                                                  build/stm32l4xx_hal_tim_ex.o
TIM_DMAError                                      build/stm32l4xx_hal_tim.o
                                                  build/stm32l4xx_hal_tim_ex.o
TIM_ETR_SetConfig                                 build/stm32l4xx_hal_tim.o
TIM_OC2_SetConfig                                 build/stm32l4xx_hal_tim.o
                                                  build/stm32l4xx_hal_tim_ex.o
TIM_TI1_SetConfig                                 build/stm32l4xx_hal_tim.o
                                                  build/stm32l4xx_hal_tim_ex.o
TSC_IRQHandler                                    build/startup_stm32l452xx.o
UART4_IRQHandler                                  build/startup_stm32l452xx.o
UART_AdvFeatureConfig                             build/stm32l4xx_hal_uart.o
                                                  build/stm32l4xx_hal_uart_ex.o
UART_CheckIdleState                               build/stm32l4xx_hal_uart.o
                                                  build/stm32l4xx_hal_uart_ex.o
UART_SetConfig                                    build/stm32l4xx_hal_uart.o
                                                  build/stm32l4xx_hal_uart_ex.o
UART_Start_Receive_DMA                            build/stm32l4xx_hal_uart.o
                                                  build/stm32l4xx_hal_uart_ex.o
UART_Start_Receive_IT                             build/stm32l4xx_hal_uart.o
                                                  build/stm32l4xx_hal_uart_ex.o
UART_WaitOnFlagUntilTimeout                       build/stm32l4xx_hal_uart.o
                                                  build/stm32l4xx_hal_uart_ex.o
USART1_IRQHandler                                 build/stm32l4xx_it.o
USART2_IRQHandler                                 build/stm32l4xx_it.o
USART3_IRQHandler                                 build/startup_stm32l452xx.o
USB_IRQHandler                                    build/startup_stm32l452xx.o
UsageFault_Handler                                build/stm32l4xx_it.o
Vector3f_null                                     build/geom.o
                                                  build/imu.o
                                                  build/mems.o
WWDG_IRQHandler                                   build/startup_stm32l452xx.o
_ITM_deregisterTMCloneTable                       /usr/lib/gcc/arm-none-eabi/12.2.1/thumb/v7e-m+fp/hard/crtbegin.o
_ITM_registerTMCloneTable                         /usr/lib/gcc/arm-none-eabi/12.2.1/thumb/v7e-m+fp/hard/crtbegin.o
_Min_Stack_Size                                   build/sysmem.o
__TMC_END__                                       /usr/lib/gcc/arm-none-eabi/12.2.1/thumb/v7e-m+fp/hard/crtend.o
                                                  /usr/lib/gcc/arm-none-eabi/12.2.1/thumb/v7e-m+fp/hard/crtbegin.o
__adddf3                                          /usr/lib/gcc/arm-none-eabi/12.2.1/thumb/v7e-m+fp/hard/libgcc.a(_arm_addsubdf3.o)
__aeabi_cdcmpeq                                   /usr/lib/gcc/arm-none-eabi/12.2.1/thumb/v7e-m+fp/hard/libgcc.a(_arm_cmpdf2.o)
__aeabi_cdcmple                                   /usr/lib/gcc/arm-none-eabi/12.2.1/thumb/v7e-m+fp/hard/libgcc.a(_arm_cmpdf2.o)
__aeabi_cdrcmple                                  /usr/lib/gcc/arm-none-eabi/12.2.1/thumb/v7e-m+fp/hard/libgcc.a(_arm_cmpdf2.o)
__aeabi_d2f                                       /usr/lib/gcc/arm-none-eabi/12.2.1/thumb/v7e-m+fp/hard/libgcc.a(_arm_truncdfsf2.o)
                                                  build/madgwick.o
                                                  build/geom.o
                                                  build/imu.o
                                                  build/autopilot.o
                                                  build/motor.o
                                                  build/mems.o
__aeabi_d2iz                                      /usr/lib/gcc/arm-none-eabi/12.2.1/thumb/v7e-m+fp/hard/libgcc.a(_arm_fixdfsi.o)
                                                  build/printf.o
__aeabi_d2uiz                                     /usr/lib/gcc/arm-none-eabi/12.2.1/thumb/v7e-m+fp/hard/libgcc.a(_arm_fixunsdfsi.o)
                                                  build/printf.o
__aeabi_dadd                                      /usr/lib/gcc/arm-none-eabi/12.2.1/thumb/v7e-m+fp/hard/libgcc.a(_arm_addsubdf3.o)
                                                  /usr/lib/gcc/arm-none-eabi/12.2.1/../../../arm-none-eabi/lib/thumb/v7e-m+fp/hard/libm.a(lib_a-s_atan.o)
                                                  /usr/lib/gcc/arm-none-eabi/12.2.1/../../../arm-none-eabi/lib/thumb/v7e-m+fp/hard/libm.a(lib_a-e_sqrt.o)
                                                  /usr/lib/gcc/arm-none-eabi/12.2.1/../../../arm-none-eabi/lib/thumb/v7e-m+fp/hard/libm.a(lib_a-e_atan2.o)
                                                  build/geom.o
                                                  build/imu.o
                                                  build/printf.o
__aeabi_dcmpeq                                    /usr/lib/gcc/arm-none-eabi/12.2.1/thumb/v7e-m+fp/hard/libgcc.a(_arm_cmpdf2.o)
                                                  build/printf.o
__aeabi_dcmpge                                    /usr/lib/gcc/arm-none-eabi/12.2.1/thumb/v7e-m+fp/hard/libgcc.a(_arm_cmpdf2.o)
                                                  build/printf.o
__aeabi_dcmpgt                                    /usr/lib/gcc/arm-none-eabi/12.2.1/thumb/v7e-m+fp/hard/libgcc.a(_arm_cmpdf2.o)
                                                  /usr/lib/gcc/arm-none-eabi/12.2.1/../../../arm-none-eabi/lib/thumb/v7e-m+fp/hard/libm.a(lib_a-s_atan.o)
                                                  build/autopilot.o
                                                  build/motor.o
                                                  build/printf.o
__aeabi_dcmple                                    /usr/lib/gcc/arm-none-eabi/12.2.1/thumb/v7e-m+fp/hard/libgcc.a(_arm_cmpdf2.o)
                                                  build/printf.o
__aeabi_dcmplt                                    /usr/lib/gcc/arm-none-eabi/12.2.1/thumb/v7e-m+fp/hard/libgcc.a(_arm_cmpdf2.o)
                                                  /usr/lib/gcc/arm-none-eabi/12.2.1/../../../arm-none-eabi/lib/thumb/v7e-m+fp/hard/libm.a(lib_a-w_sqrt.o)
                                                  build/matrix3f.o
                                                  build/autopilot.o
                                                  build/motor.o
                                                  build/printf.o
__aeabi_dcmpun                                    /usr/lib/gcc/arm-none-eabi/12.2.1/thumb/v7e-m+fp/hard/libgcc.a(_arm_unorddf2.o)
                                                  /usr/lib/gcc/arm-none-eabi/12.2.1/../../../arm-none-eabi/lib/thumb/v7e-m+fp/hard/libm.a(lib_a-w_sqrt.o)
__aeabi_ddiv                                      /usr/lib/gcc/arm-none-eabi/12.2.1/thumb/v7e-m+fp/hard/libgcc.a(_arm_muldivdf3.o)
                                                  /usr/lib/gcc/arm-none-eabi/12.2.1/../../../arm-none-eabi/lib/thumb/v7e-m+fp/hard/libm.a(lib_a-s_atan.o)
                                                  /usr/lib/gcc/arm-none-eabi/12.2.1/../../../arm-none-eabi/lib/thumb/v7e-m+fp/hard/libm.a(lib_a-e_sqrt.o)
                                                  /usr/lib/gcc/arm-none-eabi/12.2.1/../../../arm-none-eabi/lib/thumb/v7e-m+fp/hard/libm.a(lib_a-e_atan2.o)
                                                  /usr/lib/gcc/arm-none-eabi/12.2.1/../../../arm-none-eabi/lib/thumb/v7e-m+fp/hard/libm.a(lib_a-w_sqrt.o)
                                                  build/mems.o
                                                  build/printf.o
__aeabi_dmul                                      /usr/lib/gcc/arm-none-eabi/12.2.1/thumb/v7e-m+fp/hard/libgcc.a(_arm_muldivdf3.o)
                                                  /usr/lib/gcc/arm-none-eabi/12.2.1/thumb/v7e-m+fp/hard/libgcc.a(_arm_muldf3.o)
                                                  /usr/lib/gcc/arm-none-eabi/12.2.1/../../../arm-none-eabi/lib/thumb/v7e-m+fp/hard/libm.a(lib_a-s_atan.o)
                                                  /usr/lib/gcc/arm-none-eabi/12.2.1/../../../arm-none-eabi/lib/thumb/v7e-m+fp/hard/libm.a(lib_a-e_sqrt.o)
                                                  build/geom.o
                                                  build/autopilot.o
                                                  build/motor.o
                                                  build/mems.o
                                                  build/printf.o
__aeabi_drsub                                     /usr/lib/gcc/arm-none-eabi/12.2.1/thumb/v7e-m+fp/hard/libgcc.a(_arm_addsubdf3.o)
__aeabi_dsub                                      /usr/lib/gcc/arm-none-eabi/12.2.1/thumb/v7e-m+fp/hard/libgcc.a(_arm_addsubdf3.o)
                                                  /usr/lib/gcc/arm-none-eabi/12.2.1/../../../arm-none-eabi/lib/thumb/v7e-m+fp/hard/libm.a(lib_a-s_atan.o)
                                                  /usr/lib/gcc/arm-none-eabi/12.2.1/../../../arm-none-eabi/lib/thumb/v7e-m+fp/hard/libm.a(lib_a-e_sqrt.o)
                                                  /usr/lib/gcc/arm-none-eabi/12.2.1/../../../arm-none-eabi/lib/thumb/v7e-m+fp/hard/libm.a(lib_a-e_atan2.o)
                                                  build/geom.o
                                                  build/imu.o
                                                  build/printf.o
__aeabi_f2d                                       /usr/lib/gcc/arm-none-eabi/12.2.1/thumb/v7e-m+fp/hard/libgcc.a(_arm_addsubdf3.o)
                                                  build/matrix3f.o
                                                  build/madgwick.o
                                                  build/geom.o
                                                  build/imu.o
                                                  build/autopilot.o
                                                  build/motor.o
                                                  build/apdialog.o
                                                  build/mems.o
__aeabi_i2d                                       /usr/lib/gcc/arm-none-eabi/12.2.1/thumb/v7e-m+fp/hard/libgcc.a(_arm_addsubdf3.o)
                                                  build/autopilot.o
                                                  build/motor.o
                                                  build/printf.o
__aeabi_idiv0                                     /usr/lib/gcc/arm-none-eabi/12.2.1/thumb/v7e-m+fp/hard/libgcc.a(_dvmd_tls.o)
__aeabi_l2d                                       /usr/lib/gcc/arm-none-eabi/12.2.1/thumb/v7e-m+fp/hard/libgcc.a(_arm_addsubdf3.o)
__aeabi_ldiv0                                     /usr/lib/gcc/arm-none-eabi/12.2.1/thumb/v7e-m+fp/hard/libgcc.a(_dvmd_tls.o)
                                                  /usr/lib/gcc/arm-none-eabi/12.2.1/thumb/v7e-m+fp/hard/libgcc.a(_aeabi_uldivmod.o)
__aeabi_ui2d                                      /usr/lib/gcc/arm-none-eabi/12.2.1/thumb/v7e-m+fp/hard/libgcc.a(_arm_addsubdf3.o)
                                                  build/printf.o
__aeabi_ul2d                                      /usr/lib/gcc/arm-none-eabi/12.2.1/thumb/v7e-m+fp/hard/libgcc.a(_arm_addsubdf3.o)
__aeabi_uldivmod                                  /usr/lib/gcc/arm-none-eabi/12.2.1/thumb/v7e-m+fp/hard/libgcc.a(_aeabi_uldivmod.o)
                                                  build/printf.o
                                                  build/stm32l4xx_hal_uart.o
__atexit_dummy                                    /usr/lib/gcc/arm-none-eabi/12.2.1/../../../arm-none-eabi/lib/thumb/v7e-m+fp/hard/libc_nano.a(lib_a-__atexit.o)
__bss_end__                                       /usr/lib/gcc/arm-none-eabi/12.2.1/../../../arm-none-eabi/lib/thumb/v7e-m+fp/hard/crt0.o
__bss_start__                                     /usr/lib/gcc/arm-none-eabi/12.2.1/../../../arm-none-eabi/lib/thumb/v7e-m+fp/hard/crt0.o
__call_exitprocs                                  /usr/lib/gcc/arm-none-eabi/12.2.1/../../../arm-none-eabi/lib/thumb/v7e-m+fp/hard/libc_nano.a(lib_a-__call_atexit.o)
                                                  /usr/lib/gcc/arm-none-eabi/12.2.1/../../../arm-none-eabi/lib/thumb/v7e-m+fp/hard/libc_nano.a(lib_a-__atexit.o)
                                                  /usr/lib/gcc/arm-none-eabi/12.2.1/../../../arm-none-eabi/lib/thumb/v7e-m+fp/hard/libc_nano.a(lib_a-exit.o)
__cmpdf2                                          /usr/lib/gcc/arm-none-eabi/12.2.1/thumb/v7e-m+fp/hard/libgcc.a(_arm_cmpdf2.o)
__deregister_frame_info                           /usr/lib/gcc/arm-none-eabi/12.2.1/thumb/v7e-m+fp/hard/crtbegin.o
__divdf3                                          /usr/lib/gcc/arm-none-eabi/12.2.1/thumb/v7e-m+fp/hard/libgcc.a(_arm_muldivdf3.o)
__dso_handle                                      /usr/lib/gcc/arm-none-eabi/12.2.1/thumb/v7e-m+fp/hard/crtbegin.o
__env                                             build/syscalls.o
__eqdf2                                           /usr/lib/gcc/arm-none-eabi/12.2.1/thumb/v7e-m+fp/hard/libgcc.a(_arm_cmpdf2.o)
__errno                                           build/geom.o
                                                  /usr/lib/gcc/arm-none-eabi/12.2.1/../../../arm-none-eabi/lib/thumb/v7e-m+fp/hard/libm.a(lib_a-wf_sqrt.o)
                                                  /usr/lib/gcc/arm-none-eabi/12.2.1/../../../arm-none-eabi/lib/thumb/v7e-m+fp/hard/libm.a(lib_a-wf_fmod.o)
                                                  /usr/lib/gcc/arm-none-eabi/12.2.1/../../../arm-none-eabi/lib/thumb/v7e-m+fp/hard/libm.a(lib_a-wf_asin.o)
                                                  /usr/lib/gcc/arm-none-eabi/12.2.1/../../../arm-none-eabi/lib/thumb/v7e-m+fp/hard/libm.a(lib_a-wf_acos.o)
                                                  /usr/lib/gcc/arm-none-eabi/12.2.1/../../../arm-none-eabi/lib/thumb/v7e-m+fp/hard/libm.a(lib_a-w_sqrt.o)
                                                  build/syscalls.o
                                                  build/sysmem.o
__extendsfdf2                                     /usr/lib/gcc/arm-none-eabi/12.2.1/thumb/v7e-m+fp/hard/libgcc.a(_arm_addsubdf3.o)
__fdlib_version                                   /usr/lib/gcc/arm-none-eabi/12.2.1/../../../arm-none-eabi/lib/thumb/v7e-m+fp/hard/libm.a(lib_a-s_lib_ver.o)
                                                  /usr/lib/gcc/arm-none-eabi/12.2.1/../../../arm-none-eabi/lib/thumb/v7e-m+fp/hard/libm.a(lib_a-wf_sqrt.o)
                                                  /usr/lib/gcc/arm-none-eabi/12.2.1/../../../arm-none-eabi/lib/thumb/v7e-m+fp/hard/libm.a(lib_a-wf_fmod.o)
                                                  /usr/lib/gcc/arm-none-eabi/12.2.1/../../../arm-none-eabi/lib/thumb/v7e-m+fp/hard/libm.a(lib_a-wf_asin.o)
                                                  /usr/lib/gcc/arm-none-eabi/12.2.1/../../../arm-none-eabi/lib/thumb/v7e-m+fp/hard/libm.a(lib_a-wf_acos.o)
                                                  /usr/lib/gcc/arm-none-eabi/12.2.1/../../../arm-none-eabi/lib/thumb/v7e-m+fp/hard/libm.a(lib_a-w_sqrt.o)
__fini_array_end                                  /usr/lib/gcc/arm-none-eabi/12.2.1/../../../arm-none-eabi/lib/thumb/v7e-m+fp/hard/libc_nano.a(lib_a-fini.o)
__fini_array_start                                /usr/lib/gcc/arm-none-eabi/12.2.1/../../../arm-none-eabi/lib/thumb/v7e-m+fp/hard/libc_nano.a(lib_a-fini.o)
__fixdfsi                                         /usr/lib/gcc/arm-none-eabi/12.2.1/thumb/v7e-m+fp/hard/libgcc.a(_arm_fixdfsi.o)
__fixunsdfsi                                      /usr/lib/gcc/arm-none-eabi/12.2.1/thumb/v7e-m+fp/hard/libgcc.a(_arm_fixunsdfsi.o)
__floatdidf                                       /usr/lib/gcc/arm-none-eabi/12.2.1/thumb/v7e-m+fp/hard/libgcc.a(_arm_addsubdf3.o)
__floatsidf                                       /usr/lib/gcc/arm-none-eabi/12.2.1/thumb/v7e-m+fp/hard/libgcc.a(_arm_addsubdf3.o)
__floatundidf                                     /usr/lib/gcc/arm-none-eabi/12.2.1/thumb/v7e-m+fp/hard/libgcc.a(_arm_addsubdf3.o)
__floatunsidf                                     /usr/lib/gcc/arm-none-eabi/12.2.1/thumb/v7e-m+fp/hard/libgcc.a(_arm_addsubdf3.o)
__gedf2                                           /usr/lib/gcc/arm-none-eabi/12.2.1/thumb/v7e-m+fp/hard/libgcc.a(_arm_cmpdf2.o)
__gtdf2                                           /usr/lib/gcc/arm-none-eabi/12.2.1/thumb/v7e-m+fp/hard/libgcc.a(_arm_cmpdf2.o)
__ieee754_acosf                                   /usr/lib/gcc/arm-none-eabi/12.2.1/../../../arm-none-eabi/lib/thumb/v7e-m+fp/hard/libm.a(lib_a-ef_acos.o)
                                                  /usr/lib/gcc/arm-none-eabi/12.2.1/../../../arm-none-eabi/lib/thumb/v7e-m+fp/hard/libm.a(lib_a-wf_acos.o)
__ieee754_asinf                                   /usr/lib/gcc/arm-none-eabi/12.2.1/../../../arm-none-eabi/lib/thumb/v7e-m+fp/hard/libm.a(lib_a-ef_asin.o)
                                                  /usr/lib/gcc/arm-none-eabi/12.2.1/../../../arm-none-eabi/lib/thumb/v7e-m+fp/hard/libm.a(lib_a-wf_asin.o)
__ieee754_atan2                                   /usr/lib/gcc/arm-none-eabi/12.2.1/../../../arm-none-eabi/lib/thumb/v7e-m+fp/hard/libm.a(lib_a-e_atan2.o)
                                                  /usr/lib/gcc/arm-none-eabi/12.2.1/../../../arm-none-eabi/lib/thumb/v7e-m+fp/hard/libm.a(lib_a-w_atan2.o)
__ieee754_atan2f                                  /usr/lib/gcc/arm-none-eabi/12.2.1/../../../arm-none-eabi/lib/thumb/v7e-m+fp/hard/libm.a(lib_a-ef_atan2.o)
                                                  /usr/lib/gcc/arm-none-eabi/12.2.1/../../../arm-none-eabi/lib/thumb/v7e-m+fp/hard/libm.a(lib_a-wf_atan2.o)
__ieee754_fmodf                                   /usr/lib/gcc/arm-none-eabi/12.2.1/../../../arm-none-eabi/lib/thumb/v7e-m+fp/hard/libm.a(lib_a-ef_fmod.o)
                                                  /usr/lib/gcc/arm-none-eabi/12.2.1/../../../arm-none-eabi/lib/thumb/v7e-m+fp/hard/libm.a(lib_a-wf_fmod.o)
__ieee754_rem_pio2f                               /usr/lib/gcc/arm-none-eabi/12.2.1/../../../arm-none-eabi/lib/thumb/v7e-m+fp/hard/libm.a(lib_a-ef_rem_pio2.o)
                                                  /usr/lib/gcc/arm-none-eabi/12.2.1/../../../arm-none-eabi/lib/thumb/v7e-m+fp/hard/libm.a(lib_a-sf_sin.o)
                                                  /usr/lib/gcc/arm-none-eabi/12.2.1/../../../arm-none-eabi/lib/thumb/v7e-m+fp/hard/libm.a(lib_a-sf_cos.o)
__ieee754_sqrt                                    /usr/lib/gcc/arm-none-eabi/12.2.1/../../../arm-none-eabi/lib/thumb/v7e-m+fp/hard/libm.a(lib_a-e_sqrt.o)
                                                  /usr/lib/gcc/arm-none-eabi/12.2.1/../../../arm-none-eabi/lib/thumb/v7e-m+fp/hard/libm.a(lib_a-w_sqrt.o)
__ieee754_sqrtf                                   /usr/lib/gcc/arm-none-eabi/12.2.1/../../../arm-none-eabi/lib/thumb/v7e-m+fp/hard/libm.a(lib_a-ef_sqrt.o)
                                                  /usr/lib/gcc/arm-none-eabi/12.2.1/../../../arm-none-eabi/lib/thumb/v7e-m+fp/hard/libm.a(lib_a-ef_asin.o)
                                                  /usr/lib/gcc/arm-none-eabi/12.2.1/../../../arm-none-eabi/lib/thumb/v7e-m+fp/hard/libm.a(lib_a-ef_acos.o)
                                                  /usr/lib/gcc/arm-none-eabi/12.2.1/../../../arm-none-eabi/lib/thumb/v7e-m+fp/hard/libm.a(lib_a-wf_sqrt.o)
__init_array_end                                  /usr/lib/gcc/arm-none-eabi/12.2.1/../../../arm-none-eabi/lib/thumb/v7e-m+fp/hard/libc_nano.a(lib_a-init.o)
__init_array_start                                /usr/lib/gcc/arm-none-eabi/12.2.1/../../../arm-none-eabi/lib/thumb/v7e-m+fp/hard/libc_nano.a(lib_a-init.o)
__io_getchar                                      build/syscalls.o
__io_putchar                                      build/syscalls.o
__kernel_cosf                                     /usr/lib/gcc/arm-none-eabi/12.2.1/../../../arm-none-eabi/lib/thumb/v7e-m+fp/hard/libm.a(lib_a-kf_cos.o)
                                                  /usr/lib/gcc/arm-none-eabi/12.2.1/../../../arm-none-eabi/lib/thumb/v7e-m+fp/hard/libm.a(lib_a-sf_sin.o)
                                                  /usr/lib/gcc/arm-none-eabi/12.2.1/../../../arm-none-eabi/lib/thumb/v7e-m+fp/hard/libm.a(lib_a-sf_cos.o)
__kernel_rem_pio2f                                /usr/lib/gcc/arm-none-eabi/12.2.1/../../../arm-none-eabi/lib/thumb/v7e-m+fp/hard/libm.a(lib_a-kf_rem_pio2.o)
                                                  /usr/lib/gcc/arm-none-eabi/12.2.1/../../../arm-none-eabi/lib/thumb/v7e-m+fp/hard/libm.a(lib_a-ef_rem_pio2.o)
__kernel_sinf                                     /usr/lib/gcc/arm-none-eabi/12.2.1/../../../arm-none-eabi/lib/thumb/v7e-m+fp/hard/libm.a(lib_a-kf_sin.o)
                                                  /usr/lib/gcc/arm-none-eabi/12.2.1/../../../arm-none-eabi/lib/thumb/v7e-m+fp/hard/libm.a(lib_a-sf_sin.o)
                                                  /usr/lib/gcc/arm-none-eabi/12.2.1/../../../arm-none-eabi/lib/thumb/v7e-m+fp/hard/libm.a(lib_a-sf_cos.o)
__ledf2                                           /usr/lib/gcc/arm-none-eabi/12.2.1/thumb/v7e-m+fp/hard/libgcc.a(_arm_cmpdf2.o)
__libc_fini_array                                 /usr/lib/gcc/arm-none-eabi/12.2.1/../../../arm-none-eabi/lib/thumb/v7e-m+fp/hard/libc_nano.a(lib_a-fini.o)
                                                  /usr/lib/gcc/arm-none-eabi/12.2.1/../../../arm-none-eabi/lib/thumb/v7e-m+fp/hard/crt0.o
__libc_init_array                                 /usr/lib/gcc/arm-none-eabi/12.2.1/../../../arm-none-eabi/lib/thumb/v7e-m+fp/hard/libc_nano.a(lib_a-init.o)
                                                  build/startup_stm32l452xx.o
                                                  /usr/lib/gcc/arm-none-eabi/12.2.1/../../../arm-none-eabi/lib/thumb/v7e-m+fp/hard/crt0.o
__ltdf2                                           /usr/lib/gcc/arm-none-eabi/12.2.1/thumb/v7e-m+fp/hard/libgcc.a(_arm_cmpdf2.o)
__muldf3                                          /usr/lib/gcc/arm-none-eabi/12.2.1/thumb/v7e-m+fp/hard/libgcc.a(_arm_muldivdf3.o)
                                                  /usr/lib/gcc/arm-none-eabi/12.2.1/thumb/v7e-m+fp/hard/libgcc.a(_arm_muldf3.o)
__nedf2                                           /usr/lib/gcc/arm-none-eabi/12.2.1/thumb/v7e-m+fp/hard/libgcc.a(_arm_cmpdf2.o)
__on_exit_args                                    /usr/lib/gcc/arm-none-eabi/12.2.1/../../../arm-none-eabi/lib/thumb/v7e-m+fp/hard/libc_nano.a(lib_a-__atexit.o)
__preinit_array_end                               /usr/lib/gcc/arm-none-eabi/12.2.1/../../../arm-none-eabi/lib/thumb/v7e-m+fp/hard/libc_nano.a(lib_a-init.o)
__preinit_array_start                             /usr/lib/gcc/arm-none-eabi/12.2.1/../../../arm-none-eabi/lib/thumb/v7e-m+fp/hard/libc_nano.a(lib_a-init.o)
__register_exitproc                               /usr/lib/gcc/arm-none-eabi/12.2.1/../../../arm-none-eabi/lib/thumb/v7e-m+fp/hard/libc_nano.a(lib_a-__atexit.o)
                                                  /usr/lib/gcc/arm-none-eabi/12.2.1/../../../arm-none-eabi/lib/thumb/v7e-m+fp/hard/libc_nano.a(lib_a-atexit.o)
__register_frame_info                             /usr/lib/gcc/arm-none-eabi/12.2.1/thumb/v7e-m+fp/hard/crtbegin.o
__sf_fake_stderr                                  /usr/lib/gcc/arm-none-eabi/12.2.1/../../../arm-none-eabi/lib/thumb/v7e-m+fp/hard/libc_nano.a(lib_a-impure.o)
__sf_fake_stdin                                   /usr/lib/gcc/arm-none-eabi/12.2.1/../../../arm-none-eabi/lib/thumb/v7e-m+fp/hard/libc_nano.a(lib_a-impure.o)
__sf_fake_stdout                                  /usr/lib/gcc/arm-none-eabi/12.2.1/../../../arm-none-eabi/lib/thumb/v7e-m+fp/hard/libc_nano.a(lib_a-impure.o)
__stack                                           /usr/lib/gcc/arm-none-eabi/12.2.1/../../../arm-none-eabi/lib/thumb/v7e-m+fp/hard/crt0.o
__subdf3                                          /usr/lib/gcc/arm-none-eabi/12.2.1/thumb/v7e-m+fp/hard/libgcc.a(_arm_addsubdf3.o)
__truncdfsf2                                      /usr/lib/gcc/arm-none-eabi/12.2.1/thumb/v7e-m+fp/hard/libgcc.a(_arm_truncdfsf2.o)
__udivmoddi4                                      /usr/lib/gcc/arm-none-eabi/12.2.1/thumb/v7e-m+fp/hard/libgcc.a(_udivmoddi4.o)
                                                  /usr/lib/gcc/arm-none-eabi/12.2.1/thumb/v7e-m+fp/hard/libgcc.a(_aeabi_uldivmod.o)
__unorddf2                                        /usr/lib/gcc/arm-none-eabi/12.2.1/thumb/v7e-m+fp/hard/libgcc.a(_arm_unorddf2.o)
_close                                            build/syscalls.o
_ctypes                                           build/rlib.o
                                                  build/apdialog.o
_ebss                                             build/startup_stm32l452xx.o
_edata                                            build/startup_stm32l452xx.o
_end                                              build/sysmem.o
_estack                                           build/startup_stm32l452xx.o
                                                  build/sysmem.o
_execve                                           build/syscalls.o
_exit                                             build/syscalls.o
                                                  /usr/lib/gcc/arm-none-eabi/12.2.1/../../../arm-none-eabi/lib/thumb/v7e-m+fp/hard/libc_nano.a(lib_a-exit.o)
_fini                                             /usr/lib/gcc/arm-none-eabi/12.2.1/thumb/v7e-m+fp/hard/crti.o
                                                  /usr/lib/gcc/arm-none-eabi/12.2.1/../../../arm-none-eabi/lib/thumb/v7e-m+fp/hard/libc_nano.a(lib_a-fini.o)
_fork                                             build/syscalls.o
_fstat                                            build/syscalls.o
_getpid                                           build/syscalls.o
_global_atexit                                    /usr/lib/gcc/arm-none-eabi/12.2.1/../../../arm-none-eabi/lib/thumb/v7e-m+fp/hard/libc_nano.a(lib_a-__call_atexit.o)
                                                  /usr/lib/gcc/arm-none-eabi/12.2.1/../../../arm-none-eabi/lib/thumb/v7e-m+fp/hard/libc_nano.a(lib_a-__atexit.o)
_global_impure_ptr                                /usr/lib/gcc/arm-none-eabi/12.2.1/../../../arm-none-eabi/lib/thumb/v7e-m+fp/hard/libc_nano.a(lib_a-impure.o)
                                                  /usr/lib/gcc/arm-none-eabi/12.2.1/../../../arm-none-eabi/lib/thumb/v7e-m+fp/hard/libc_nano.a(lib_a-exit.o)
_impure_ptr                                       /usr/lib/gcc/arm-none-eabi/12.2.1/../../../arm-none-eabi/lib/thumb/v7e-m+fp/hard/libc_nano.a(lib_a-impure.o)
_init                                             /usr/lib/gcc/arm-none-eabi/12.2.1/thumb/v7e-m+fp/hard/crti.o
                                                  /usr/lib/gcc/arm-none-eabi/12.2.1/../../../arm-none-eabi/lib/thumb/v7e-m+fp/hard/libc_nano.a(lib_a-init.o)
_isatty                                           build/syscalls.o
_kill                                             build/syscalls.o
_link                                             build/syscalls.o
_lseek                                            build/syscalls.o
_mainCRTStartup                                   /usr/lib/gcc/arm-none-eabi/12.2.1/../../../arm-none-eabi/lib/thumb/v7e-m+fp/hard/crt0.o
_open                                             build/syscalls.o
_read                                             build/syscalls.o
_sbrk                                             build/sysmem.o
_sbss                                             build/startup_stm32l452xx.o
_sdata                                            build/startup_stm32l452xx.o
_sidata                                           build/startup_stm32l452xx.o
_stack_init                                       /usr/lib/gcc/arm-none-eabi/12.2.1/../../../arm-none-eabi/lib/thumb/v7e-m+fp/hard/crt0.o
_start                                            /usr/lib/gcc/arm-none-eabi/12.2.1/../../../arm-none-eabi/lib/thumb/v7e-m+fp/hard/crt0.o
_stat                                             build/syscalls.o
_times                                            build/syscalls.o
_unlink                                           build/syscalls.o
_wait                                             build/syscalls.o
_write                                            build/syscalls.o
acosf                                             /usr/lib/gcc/arm-none-eabi/12.2.1/../../../arm-none-eabi/lib/thumb/v7e-m+fp/hard/libm.a(lib_a-wf_acos.o)
                                                  build/imu.o
apmain                                            build/apmain.o
                                                  build/main.o
asinf                                             /usr/lib/gcc/arm-none-eabi/12.2.1/../../../arm-none-eabi/lib/thumb/v7e-m+fp/hard/libm.a(lib_a-wf_asin.o)
                                                  build/madgwick.o
atan                                              /usr/lib/gcc/arm-none-eabi/12.2.1/../../../arm-none-eabi/lib/thumb/v7e-m+fp/hard/libm.a(lib_a-s_atan.o)
                                                  /usr/lib/gcc/arm-none-eabi/12.2.1/../../../arm-none-eabi/lib/thumb/v7e-m+fp/hard/libm.a(lib_a-e_atan2.o)
atan2                                             /usr/lib/gcc/arm-none-eabi/12.2.1/../../../arm-none-eabi/lib/thumb/v7e-m+fp/hard/libm.a(lib_a-w_atan2.o)
                                                  build/imu.o
atan2f                                            /usr/lib/gcc/arm-none-eabi/12.2.1/../../../arm-none-eabi/lib/thumb/v7e-m+fp/hard/libm.a(lib_a-wf_atan2.o)
                                                  build/madgwick.o
                                                  build/imu.o
atanf                                             /usr/lib/gcc/arm-none-eabi/12.2.1/../../../arm-none-eabi/lib/thumb/v7e-m+fp/hard/libm.a(lib_a-sf_atan.o)
                                                  /usr/lib/gcc/arm-none-eabi/12.2.1/../../../arm-none-eabi/lib/thumb/v7e-m+fp/hard/libm.a(lib_a-ef_atan2.o)
                                                  build/imu.o
atexit                                            /usr/lib/gcc/arm-none-eabi/12.2.1/../../../arm-none-eabi/lib/thumb/v7e-m+fp/hard/libc_nano.a(lib_a-atexit.o)
                                                  /usr/lib/gcc/arm-none-eabi/12.2.1/../../../arm-none-eabi/lib/thumb/v7e-m+fp/hard/crt0.o
autopilot_sendValues                              build/autopilot.o
b_x                                               build/madgwick.o
b_z                                               build/madgwick.o
calculer_orientation_navire                       build/imu.o
calibreur_addSample                               build/imu.o
calibreur_calibrate                               build/imu.o
calibreur_create                                  build/imu.o
calibreur_destroy                                 build/imu.o
calibreur_getNumberOfSamples                      build/imu.o
calibreur_isFull                                  build/imu.o
convert_float                                     build/apdialog.o
convert_number                                    build/apdialog.o
cosf                                              /usr/lib/gcc/arm-none-eabi/12.2.1/../../../arm-none-eabi/lib/thumb/v7e-m+fp/hard/libm.a(lib_a-sf_cos.o)
                                                  build/imu.o
ctype_table                                       build/rlib.o
cvt_dir_deg_rad                                   build/geom.o
cvt_dir_norm_deg                                  build/geom.o
cvt_dir_norm_rad                                  build/geom.o
cvt_dir_rad_deg                                   build/geom.o
                                                  build/autopilot.o
defaultTaskHandle                                 build/main.o
defaultTask_attributes                            build/main.o
eTaskGetState                                     build/tasks.o
                                                  build/cmsis_os2.o
environ                                           build/syscalls.o
exit                                              /usr/lib/gcc/arm-none-eabi/12.2.1/../../../arm-none-eabi/lib/thumb/v7e-m+fp/hard/libc_nano.a(lib_a-exit.o)
                                                  /usr/lib/gcc/arm-none-eabi/12.2.1/../../../arm-none-eabi/lib/thumb/v7e-m+fp/hard/crt0.o
fabs                                              /usr/lib/gcc/arm-none-eabi/12.2.1/../../../arm-none-eabi/lib/thumb/v7e-m+fp/hard/libm.a(lib_a-s_fabs.o)
                                                  /usr/lib/gcc/arm-none-eabi/12.2.1/../../../arm-none-eabi/lib/thumb/v7e-m+fp/hard/libm.a(lib_a-s_atan.o)
                                                  /usr/lib/gcc/arm-none-eabi/12.2.1/../../../arm-none-eabi/lib/thumb/v7e-m+fp/hard/libm.a(lib_a-e_atan2.o)
fabsf                                             /usr/lib/gcc/arm-none-eabi/12.2.1/../../../arm-none-eabi/lib/thumb/v7e-m+fp/hard/libm.a(lib_a-sf_fabs.o)
                                                  /usr/lib/gcc/arm-none-eabi/12.2.1/../../../arm-none-eabi/lib/thumb/v7e-m+fp/hard/libm.a(lib_a-ef_rem_pio2.o)
                                                  /usr/lib/gcc/arm-none-eabi/12.2.1/../../../arm-none-eabi/lib/thumb/v7e-m+fp/hard/libm.a(lib_a-ef_atan2.o)
                                                  /usr/lib/gcc/arm-none-eabi/12.2.1/../../../arm-none-eabi/lib/thumb/v7e-m+fp/hard/libm.a(lib_a-ef_asin.o)
                                                  /usr/lib/gcc/arm-none-eabi/12.2.1/../../../arm-none-eabi/lib/thumb/v7e-m+fp/hard/libm.a(lib_a-wf_asin.o)
                                                  /usr/lib/gcc/arm-none-eabi/12.2.1/../../../arm-none-eabi/lib/thumb/v7e-m+fp/hard/libm.a(lib_a-wf_acos.o)
                                                  /usr/lib/gcc/arm-none-eabi/12.2.1/../../../arm-none-eabi/lib/thumb/v7e-m+fp/hard/libm.a(lib_a-sf_atan.o)
fcts                                              build/service.o
floorf                                            /usr/lib/gcc/arm-none-eabi/12.2.1/../../../arm-none-eabi/lib/thumb/v7e-m+fp/hard/libm.a(lib_a-sf_floor.o)
                                                  /usr/lib/gcc/arm-none-eabi/12.2.1/../../../arm-none-eabi/lib/thumb/v7e-m+fp/hard/libm.a(lib_a-kf_rem_pio2.o)
fmodf                                             /usr/lib/gcc/arm-none-eabi/12.2.1/../../../arm-none-eabi/lib/thumb/v7e-m+fp/hard/libm.a(lib_a-wf_fmod.o)
                                                  build/geom.o
g_pfnVectors                                      build/startup_stm32l452xx.o
get_unit_vector_x                                 build/geom.o
hadc1                                             build/main.o
                                                  build/motor.o
                                                  build/stm32l4xx_it.o
hardware_init_hook                                /usr/lib/gcc/arm-none-eabi/12.2.1/../../../arm-none-eabi/lib/thumb/v7e-m+fp/hard/crt0.o
hdma_adc1                                         build/main.o
                                                  build/stm32l4xx_hal_msp.o
                                                  build/stm32l4xx_it.o
hdma_spi2_rx                                      build/main.o
                                                  build/stm32l4xx_hal_msp.o
                                                  build/stm32l4xx_it.o
hdma_spi2_tx                                      build/main.o
                                                  build/stm32l4xx_hal_msp.o
                                                  build/stm32l4xx_it.o
hdma_usart1_rx                                    build/main.o
                                                  build/stm32l4xx_hal_msp.o
                                                  build/stm32l4xx_it.o
hdma_usart1_tx                                    build/main.o
                                                  build/stm32l4xx_hal_msp.o
                                                  build/stm32l4xx_it.o
hdma_usart2_rx                                    build/main.o
                                                  build/stm32l4xx_hal_msp.o
                                                  build/stm32l4xx_it.o
hdma_usart2_tx                                    build/main.o
                                                  build/stm32l4xx_hal_msp.o
                                                  build/stm32l4xx_it.o
hspi2                                             build/main.o
                                                  build/mems.o
                                                  build/stm32l4xx_it.o
htim2                                             build/stm32l4xx_hal_timebase_tim.o
                                                  build/stm32l4xx_it.o
htim3                                             build/main.o
                                                  build/motor.o
huart1                                            build/main.o
                                                  build/service.o
                                                  build/stm32l4xx_it.o
huart2                                            build/main.o
                                                  build/service.o
                                                  build/stm32l4xx_it.o
huart3                                            build/main.o
huart4                                            build/main.o
imu_correct                                       build/mems.o
init_taskAutoPilot                                build/autopilot.o
                                                  build/apmain.o
init_taskDialogIn                                 build/apdialog.o
                                                  build/apmain.o
init_taskMEMs                                     build/mems.o
                                                  build/apmain.o
init_taskMotor                                    build/motor.o
                                                  build/apmain.o
init_taskService                                  build/service.o
                                                  build/apmain.o
initialise_monitor_handles                        build/syscalls.o
lookup_token                                      build/apdialog.o
madgwick_get_Euler_angles                         build/madgwick.o
                                                  build/mems.o
madgwick_get_pitch                                build/madgwick.o
madgwick_get_quaternion                           build/madgwick.o
madgwick_get_roll                                 build/madgwick.o
madgwick_get_yaw                                  build/madgwick.o
madgwick_set_beta                                 build/madgwick.o
madgwick_set_zeta                                 build/madgwick.o
madgwick_update                                   build/madgwick.o
                                                  build/mems.o
main                                              build/main.o
                                                  build/startup_stm32l452xx.o
                                                  /usr/lib/gcc/arm-none-eabi/12.2.1/../../../arm-none-eabi/lib/thumb/v7e-m+fp/hard/crt0.o
malloc                                            /usr/lib/gcc/arm-none-eabi/12.2.1/../../../arm-none-eabi/lib/thumb/v7e-m+fp/hard/libc_nano.a(lib_a-__atexit.o)
memcpy                                            build/rlib.o
                                                  build/cmsis_os2.o
                                                  build/stream_buffer.o
                                                  build/queue.o
memset                                            build/rlib.o
                                                  build/tasks.o
                                                  build/stream_buffer.o
                                                  build/stm32l4xx_hal_msp.o
                                                  build/main.o
                                                  /usr/lib/gcc/arm-none-eabi/12.2.1/../../../arm-none-eabi/lib/thumb/v7e-m+fp/hard/crt0.o
motorData                                         build/motor.o
msgQueueAutoPilot                                 build/autopilot.o
                                                  build/apdialog.o
                                                  build/mems.o
msgQueueDialogIn                                  build/apdialog.o
msgQueueDialogOut                                 build/apdialog.o
msgQueueMEMs                                      build/mems.o
                                                  build/autopilot.o
                                                  build/apdialog.o
msgQueueMotor                                     build/motor.o
                                                  build/apdialog.o
nanf                                              /usr/lib/gcc/arm-none-eabi/12.2.1/../../../arm-none-eabi/lib/thumb/v7e-m+fp/hard/libm.a(lib_a-sf_nan.o)
                                                  /usr/lib/gcc/arm-none-eabi/12.2.1/../../../arm-none-eabi/lib/thumb/v7e-m+fp/hard/libm.a(lib_a-wf_asin.o)
                                                  /usr/lib/gcc/arm-none-eabi/12.2.1/../../../arm-none-eabi/lib/thumb/v7e-m+fp/hard/libm.a(lib_a-wf_acos.o)
osDelay                                           build/cmsis_os2.o
                                                  build/main.o
osDelayUntil                                      build/cmsis_os2.o
osEventFlagsClear                                 build/cmsis_os2.o
osEventFlagsDelete                                build/cmsis_os2.o
osEventFlagsGet                                   build/cmsis_os2.o
osEventFlagsNew                                   build/cmsis_os2.o
osEventFlagsSet                                   build/cmsis_os2.o
osEventFlagsWait                                  build/cmsis_os2.o
osKernelGetInfo                                   build/cmsis_os2.o
osKernelGetState                                  build/cmsis_os2.o
osKernelGetSysTimerCount                          build/cmsis_os2.o
osKernelGetSysTimerFreq                           build/cmsis_os2.o
osKernelGetTickCount                              build/cmsis_os2.o
osKernelGetTickFreq                               build/cmsis_os2.o
osKernelInitialize                                build/cmsis_os2.o
                                                  build/main.o
osKernelLock                                      build/cmsis_os2.o
osKernelRestoreLock                               build/cmsis_os2.o
osKernelStart                                     build/cmsis_os2.o
                                                  build/main.o
osKernelUnlock                                    build/cmsis_os2.o
osMemoryPoolAlloc                                 build/cmsis_os2.o
osMemoryPoolDelete                                build/cmsis_os2.o
osMemoryPoolFree                                  build/cmsis_os2.o
osMemoryPoolGetBlockSize                          build/cmsis_os2.o
osMemoryPoolGetCapacity                           build/cmsis_os2.o
osMemoryPoolGetCount                              build/cmsis_os2.o
osMemoryPoolGetName                               build/cmsis_os2.o
osMemoryPoolGetSpace                              build/cmsis_os2.o
osMemoryPoolNew                                   build/cmsis_os2.o
osMessageQueueDelete                              build/cmsis_os2.o
osMessageQueueGet                                 build/cmsis_os2.o
osMessageQueueGetCapacity                         build/cmsis_os2.o
osMessageQueueGetCount                            build/cmsis_os2.o
osMessageQueueGetMsgSize                          build/cmsis_os2.o
osMessageQueueGetSpace                            build/cmsis_os2.o
osMessageQueueNew                                 build/cmsis_os2.o
osMessageQueuePut                                 build/cmsis_os2.o
osMessageQueueReset                               build/cmsis_os2.o
osMutexAcquire                                    build/cmsis_os2.o
osMutexDelete                                     build/cmsis_os2.o
osMutexGetOwner                                   build/cmsis_os2.o
osMutexNew                                        build/cmsis_os2.o
osMutexRelease                                    build/cmsis_os2.o
osSemaphoreAcquire                                build/cmsis_os2.o
osSemaphoreDelete                                 build/cmsis_os2.o
osSemaphoreGetCount                               build/cmsis_os2.o
osSemaphoreNew                                    build/cmsis_os2.o
osSemaphoreRelease                                build/cmsis_os2.o
osThreadEnumerate                                 build/cmsis_os2.o
osThreadExit                                      build/cmsis_os2.o
osThreadFlagsClear                                build/cmsis_os2.o
osThreadFlagsGet                                  build/cmsis_os2.o
osThreadFlagsSet                                  build/cmsis_os2.o
osThreadFlagsWait                                 build/cmsis_os2.o
osThreadGetCount                                  build/cmsis_os2.o
osThreadGetId                                     build/cmsis_os2.o
osThreadGetName                                   build/cmsis_os2.o
osThreadGetPriority                               build/cmsis_os2.o
osThreadGetStackSpace                             build/cmsis_os2.o
osThreadGetState                                  build/cmsis_os2.o
osThreadNew                                       build/cmsis_os2.o
                                                  build/main.o
osThreadResume                                    build/cmsis_os2.o
osThreadSetPriority                               build/cmsis_os2.o
osThreadSuspend                                   build/cmsis_os2.o
osThreadTerminate                                 build/cmsis_os2.o
osThreadYield                                     build/cmsis_os2.o
osTimerDelete                                     build/cmsis_os2.o
osTimerGetName                                    build/cmsis_os2.o
osTimerIsRunning                                  build/cmsis_os2.o
osTimerNew                                        build/cmsis_os2.o
osTimerStart                                      build/cmsis_os2.o
osTimerStop                                       build/cmsis_os2.o
pFlash                                            build/stm32l4xx_hal_flash.o
                                                  build/stm32l4xx_hal_flash_ex.o
parse_command_line                                build/apdialog.o
pcQueueGetName                                    build/queue.o
pcTaskGetName                                     build/tasks.o
                                                  build/cmsis_os2.o
pcTimerGetName                                    build/timers.o
                                                  build/cmsis_os2.o
pvPortMalloc                                      build/heap_4.o
                                                  build/imu.o
                                                  build/cmsis_os2.o
                                                  build/timers.o
                                                  build/tasks.o
                                                  build/stream_buffer.o
                                                  build/queue.o
                                                  build/event_groups.o
pvTaskIncrementMutexHeldCount                     build/tasks.o
                                                  build/queue.o
pvTimerGetTimerID                                 build/timers.o
                                                  build/cmsis_os2.o
pxCurrentTCB                                      build/tasks.o
                                                  build/port.o
pxPortInitialiseStack                             build/port.o
                                                  build/tasks.o
quaternion_vers_euler                             build/imu.o
rbuffer_getAvailSpace                             build/rbuffer.o
                                                  build/service.o
rbuffer_getNextBlock                              build/rbuffer.o
                                                  build/service.o
rbuffer_init                                      build/rbuffer.o
                                                  build/service.o
rbuffer_isEmpty                                   build/rbuffer.o
                                                  build/service.o
rbuffer_isFull                                    build/rbuffer.o
rbuffer_read                                      build/rbuffer.o
rbuffer_skip                                      build/rbuffer.o
                                                  build/service.o
rbuffer_write                                     build/rbuffer.o
                                                  build/service.o
read_token                                        build/apdialog.o
scalbnf                                           /usr/lib/gcc/arm-none-eabi/12.2.1/../../../arm-none-eabi/lib/thumb/v7e-m+fp/hard/libm.a(lib_a-sf_scalbn.o)
                                                  /usr/lib/gcc/arm-none-eabi/12.2.1/../../../arm-none-eabi/lib/thumb/v7e-m+fp/hard/libm.a(lib_a-kf_rem_pio2.o)
semspi2                                           build/mems.o
sinf                                              /usr/lib/gcc/arm-none-eabi/12.2.1/../../../arm-none-eabi/lib/thumb/v7e-m+fp/hard/libm.a(lib_a-sf_sin.o)
                                                  build/imu.o
snprintf_                                         build/printf.o
                                                  build/imu.o
                                                  build/autopilot.o
                                                  build/motor.o
                                                  build/apdialog.o
                                                  build/mems.o
software_init_hook                                /usr/lib/gcc/arm-none-eabi/12.2.1/../../../arm-none-eabi/lib/thumb/v7e-m+fp/hard/crt0.o
sprintf_                                          build/printf.o
sqrt                                              /usr/lib/gcc/arm-none-eabi/12.2.1/../../../arm-none-eabi/lib/thumb/v7e-m+fp/hard/libm.a(lib_a-w_sqrt.o)
                                                  build/madgwick.o
                                                  build/imu.o
sqrtf                                             /usr/lib/gcc/arm-none-eabi/12.2.1/../../../arm-none-eabi/lib/thumb/v7e-m+fp/hard/libm.a(lib_a-wf_sqrt.o)
                                                  build/quat.o
                                                  build/geom.o
                                                  build/imu.o
strcpy                                            build/rlib.o
strlen                                            build/rlib.o
                                                  build/imu.o
                                                  build/autopilot.o
                                                  build/motor.o
                                                  build/mems.o
svcQueueRequests                                  build/service.o
svc_UART_Write                                    build/service.o
                                                  build/imu.o
                                                  build/autopilot.o
                                                  build/motor.o
                                                  build/apdialog.o
                                                  build/mems.o
svc_UART_getc                                     build/service.o
                                                  build/apdialog.o
svc_init_UART                                     build/service.o
svc_internal_UART_EndWriteDMA                     build/service.o
svc_internal_UART_Write                           build/service.o
svc_uart1                                         build/service.o
                                                  build/motor.o
svc_uart2                                         build/service.o
                                                  build/imu.o
                                                  build/autopilot.o
                                                  build/motor.o
                                                  build/apdialog.o
                                                  build/mems.o
taskAutoPilot                                     build/autopilot.o
                                                  build/apmain.o
taskBlink                                         build/apmain.o
taskDialogIn                                      build/apdialog.o
                                                  build/apmain.o
taskMEMs                                          build/mems.o
                                                  build/apmain.o
taskMotor                                         build/motor.o
                                                  build/apmain.o
taskService                                       build/service.o
                                                  build/apmain.o
timerMEMsCallback                                 build/mems.o
timerPOLLCallback                                 build/mems.o
ucQueueGetQueueType                               build/queue.o
ucStreamBufferGetStreamBufferType                 build/stream_buffer.o
ulTaskNotifyTake                                  build/tasks.o
ulTaskNotifyValueClear                            build/tasks.o
unitmxf                                           build/geom.o
unitmyf                                           build/geom.o
                                                  build/imu.o
unitmzf                                           build/geom.o
                                                  build/imu.o
unitxf                                            build/geom.o
unityf                                            build/geom.o
unitzf                                            build/geom.o
                                                  build/imu.o
uwTick                                            build/stm32l4xx_hal.o
uwTickFreq                                        build/stm32l4xx_hal.o
uwTickPrio                                        build/stm32l4xx_hal.o
                                                  build/stm32l4xx_hal_rcc.o
                                                  build/stm32l4xx_hal_timebase_tim.o
uxEventGroupGetNumber                             build/event_groups.o
uxListRemove                                      build/list.o
                                                  build/timers.o
                                                  build/tasks.o
uxQueueGetQueueNumber                             build/queue.o
uxQueueMessagesWaiting                            build/queue.o
                                                  build/cmsis_os2.o
uxQueueMessagesWaitingFromISR                     build/queue.o
                                                  build/cmsis_os2.o
uxQueueSpacesAvailable                            build/queue.o
                                                  build/cmsis_os2.o
uxStreamBufferGetStreamBufferNumber               build/stream_buffer.o
uxTaskGetNumberOfTasks                            build/tasks.o
                                                  build/cmsis_os2.o
uxTaskGetStackHighWaterMark                       build/tasks.o
                                                  build/cmsis_os2.o
uxTaskGetSystemState                              build/tasks.o
                                                  build/cmsis_os2.o
uxTaskGetTaskNumber                               build/tasks.o
uxTaskPriorityGet                                 build/tasks.o
                                                  build/cmsis_os2.o
uxTaskPriorityGetFromISR                          build/tasks.o
uxTaskResetEventItemValue                         build/tasks.o
                                                  build/event_groups.o
uxTimerGetReloadMode                              build/timers.o
uxTimerGetTimerNumber                             build/timers.o
vApplicationGetIdleTaskMemory                     build/cmsis_os2.o
                                                  build/tasks.o
vApplicationGetTimerTaskMemory                    build/cmsis_os2.o
                                                  build/timers.o
vEventGroupClearBitsCallback                      build/event_groups.o
vEventGroupDelete                                 build/event_groups.o
                                                  build/cmsis_os2.o
vEventGroupSetBitsCallback                        build/event_groups.o
vEventGroupSetNumber                              build/event_groups.o
vListInitialise                                   build/list.o
                                                  build/timers.o
                                                  build/tasks.o
                                                  build/queue.o
                                                  build/event_groups.o
vListInitialiseItem                               build/list.o
                                                  build/timers.o
                                                  build/tasks.o
vListInsert                                       build/list.o
                                                  build/timers.o
                                                  build/tasks.o
vListInsertEnd                                    build/list.o
                                                  build/tasks.o
vPortEndScheduler                                 build/port.o
                                                  build/tasks.o
vPortEnterCritical                                build/port.o
                                                  build/heap_4.o
                                                  build/cmsis_os2.o
                                                  build/timers.o
                                                  build/tasks.o
                                                  build/stream_buffer.o
                                                  build/queue.o
                                                  build/event_groups.o
vPortExitCritical                                 build/port.o
                                                  build/heap_4.o
                                                  build/cmsis_os2.o
                                                  build/timers.o
                                                  build/tasks.o
                                                  build/stream_buffer.o
                                                  build/queue.o
                                                  build/event_groups.o
vPortFree                                         build/heap_4.o
                                                  build/imu.o
                                                  build/cmsis_os2.o
                                                  build/timers.o
                                                  build/tasks.o
                                                  build/stream_buffer.o
                                                  build/queue.o
                                                  build/event_groups.o
vPortGetHeapStats                                 build/heap_4.o
vPortInitialiseBlocks                             build/heap_4.o
vPortSetupTimerInterrupt                          build/port.o
vPortValidateInterruptPriority                    build/port.o
                                                  build/tasks.o
                                                  build/queue.o
vQueueAddToRegistry                               build/queue.o
                                                  build/cmsis_os2.o
                                                  build/timers.o
vQueueDelete                                      build/queue.o
                                                  build/cmsis_os2.o
vQueueSetQueueNumber                              build/queue.o
vQueueUnregisterQueue                             build/queue.o
                                                  build/cmsis_os2.o
vQueueWaitForMessageRestricted                    build/queue.o
                                                  build/timers.o
vStreamBufferDelete                               build/stream_buffer.o
vStreamBufferSetStreamBufferNumber                build/stream_buffer.o
vTaskDelay                                        build/tasks.o
                                                  build/apmain.o
                                                  build/mems.o
                                                  build/cmsis_os2.o
vTaskDelayUntil                                   build/tasks.o
                                                  build/cmsis_os2.o
vTaskDelete                                       build/tasks.o
                                                  build/cmsis_os2.o
vTaskEndScheduler                                 build/tasks.o
vTaskGetInfo                                      build/tasks.o
vTaskInternalSetTimeOutState                      build/tasks.o
                                                  build/queue.o
vTaskMissedYield                                  build/tasks.o
                                                  build/queue.o
vTaskNotifyGiveFromISR                            build/tasks.o
vTaskPlaceOnEventList                             build/tasks.o
                                                  build/queue.o
vTaskPlaceOnEventListRestricted                   build/tasks.o
                                                  build/queue.o
vTaskPlaceOnUnorderedEventList                    build/tasks.o
                                                  build/event_groups.o
vTaskPriorityDisinheritAfterTimeout               build/tasks.o
                                                  build/queue.o
vTaskPrioritySet                                  build/tasks.o
                                                  build/cmsis_os2.o
vTaskRemoveFromUnorderedEventList                 build/tasks.o
                                                  build/event_groups.o
vTaskResume                                       build/tasks.o
                                                  build/cmsis_os2.o
vTaskSetTaskNumber                                build/tasks.o
vTaskSetTimeOutState                              build/tasks.o
                                                  build/stream_buffer.o
vTaskStartScheduler                               build/tasks.o
                                                  build/apmain.o
                                                  build/cmsis_os2.o
vTaskSuspend                                      build/tasks.o
                                                  build/cmsis_os2.o
vTaskSuspendAll                                   build/tasks.o
                                                  build/service.o
                                                  build/heap_4.o
                                                  build/cmsis_os2.o
                                                  build/timers.o
                                                  build/stream_buffer.o
                                                  build/queue.o
                                                  build/event_groups.o
vTaskSwitchContext                                build/tasks.o
                                                  build/port.o
vTimerSetReloadMode                               build/timers.o
vTimerSetTimerID                                  build/timers.o
vTimerSetTimerNumber                              build/timers.o
vector3f_add                                      build/geom.o
                                                  build/mems.o
vector3f_getCosine                                build/geom.o
vector3f_getCrossProduct                          build/geom.o
                                                  build/imu.o
vector3f_getDotProduct                            build/geom.o
                                                  build/imu.o
vector3f_getNorm                                  build/geom.o
                                                  build/mems.o
vector3f_getNormalized                            build/geom.o
                                                  build/imu.o
vector3f_getScaled                                build/geom.o
                                                  build/imu.o
                                                  build/mems.o
vector3f_init                                     build/geom.o
vector3f_sub                                      build/geom.o
vsnprintf_                                        build/printf.o
w_bx                                              build/madgwick.o
w_by                                              build/madgwick.o
w_bz                                              build/madgwick.o
xEventGroupClearBits                              build/event_groups.o
                                                  build/cmsis_os2.o
xEventGroupClearBitsFromISR                       build/event_groups.o
                                                  build/cmsis_os2.o
xEventGroupCreate                                 build/event_groups.o
                                                  build/cmsis_os2.o
xEventGroupCreateStatic                           build/event_groups.o
                                                  build/cmsis_os2.o
xEventGroupGetBitsFromISR                         build/event_groups.o
                                                  build/cmsis_os2.o
xEventGroupSetBits                                build/event_groups.o
                                                  build/cmsis_os2.o
xEventGroupSetBitsFromISR                         build/event_groups.o
                                                  build/cmsis_os2.o
xEventGroupSync                                   build/event_groups.o
xEventGroupWaitBits                               build/event_groups.o
                                                  build/cmsis_os2.o
xPortGetFreeHeapSize                              build/heap_4.o
xPortGetMinimumEverFreeHeapSize                   build/heap_4.o
xPortStartScheduler                               build/port.o
                                                  build/tasks.o
xPortSysTickHandler                               build/port.o
                                                  build/cmsis_os2.o
xQueueCreateCountingSemaphore                     build/queue.o
                                                  build/cmsis_os2.o
xQueueCreateCountingSemaphoreStatic               build/queue.o
                                                  build/cmsis_os2.o
xQueueCreateMutex                                 build/queue.o
                                                  build/service.o
                                                  build/cmsis_os2.o
xQueueCreateMutexStatic                           build/queue.o
                                                  build/cmsis_os2.o
xQueueGenericCreate                               build/queue.o
                                                  build/autopilot.o
                                                  build/motor.o
                                                  build/apdialog.o
                                                  build/service.o
                                                  build/mems.o
                                                  build/cmsis_os2.o
xQueueGenericCreateStatic                         build/queue.o
                                                  build/cmsis_os2.o
                                                  build/timers.o
xQueueGenericReset                                build/queue.o
                                                  build/cmsis_os2.o
xQueueGenericSend                                 build/queue.o
                                                  build/autopilot.o
                                                  build/motor.o
                                                  build/apdialog.o
                                                  build/service.o
                                                  build/mems.o
                                                  build/cmsis_os2.o
                                                  build/timers.o
xQueueGenericSendFromISR                          build/queue.o
                                                  build/motor.o
                                                  build/service.o
                                                  build/cmsis_os2.o
                                                  build/timers.o
xQueueGetMutexHolder                              build/queue.o
                                                  build/cmsis_os2.o
xQueueGetMutexHolderFromISR                       build/queue.o
xQueueGiveFromISR                                 build/queue.o
                                                  build/mems.o
                                                  build/cmsis_os2.o
xQueueGiveMutexRecursive                          build/queue.o
                                                  build/cmsis_os2.o
xQueueIsQueueEmptyFromISR                         build/queue.o
xQueueIsQueueFullFromISR                          build/queue.o
xQueuePeek                                        build/queue.o
xQueuePeekFromISR                                 build/queue.o
xQueueReceive                                     build/queue.o
                                                  build/autopilot.o
                                                  build/motor.o
                                                  build/service.o
                                                  build/mems.o
                                                  build/cmsis_os2.o
                                                  build/timers.o
xQueueReceiveFromISR                              build/queue.o
                                                  build/cmsis_os2.o
xQueueRegistry                                    build/queue.o
xQueueSemaphoreTake                               build/queue.o
                                                  build/mems.o
                                                  build/cmsis_os2.o
xQueueTakeMutexRecursive                          build/queue.o
                                                  build/cmsis_os2.o
xStreamBufferBytesAvailable                       build/stream_buffer.o
xStreamBufferGenericCreate                        build/stream_buffer.o
                                                  build/service.o
xStreamBufferGenericCreateStatic                  build/stream_buffer.o
xStreamBufferIsEmpty                              build/stream_buffer.o
xStreamBufferIsFull                               build/stream_buffer.o
xStreamBufferNextMessageLengthBytes               build/stream_buffer.o
xStreamBufferReceive                              build/stream_buffer.o
                                                  build/service.o
xStreamBufferReceiveCompletedFromISR              build/stream_buffer.o
xStreamBufferReceiveFromISR                       build/stream_buffer.o
xStreamBufferReset                                build/stream_buffer.o
xStreamBufferSend                                 build/stream_buffer.o
xStreamBufferSendCompletedFromISR                 build/stream_buffer.o
xStreamBufferSendFromISR                          build/stream_buffer.o
                                                  build/service.o
xStreamBufferSetTriggerLevel                      build/stream_buffer.o
xStreamBufferSpacesAvailable                      build/stream_buffer.o
xTaskCatchUpTicks                                 build/tasks.o
xTaskCheckForTimeOut                              build/tasks.o
                                                  build/stream_buffer.o
                                                  build/queue.o
xTaskCreate                                       build/tasks.o
                                                  build/apmain.o
                                                  build/cmsis_os2.o
xTaskCreateStatic                                 build/tasks.o
                                                  build/cmsis_os2.o
                                                  build/timers.o
xTaskGenericNotify                                build/tasks.o
                                                  build/cmsis_os2.o
                                                  build/stream_buffer.o
xTaskGenericNotifyFromISR                         build/tasks.o
                                                  build/cmsis_os2.o
                                                  build/stream_buffer.o
xTaskGetCurrentTaskHandle                         build/tasks.o
                                                  build/cmsis_os2.o
                                                  build/stream_buffer.o
                                                  build/queue.o
xTaskGetSchedulerState                            build/tasks.o
                                                  build/cmsis_os2.o
                                                  build/timers.o
                                                  build/queue.o
                                                  build/event_groups.o
xTaskGetTickCount                                 build/tasks.o
                                                  build/autopilot.o
                                                  build/motor.o
                                                  build/mems.o
                                                  build/cmsis_os2.o
                                                  build/timers.o
xTaskGetTickCountFromISR                          build/tasks.o
                                                  build/cmsis_os2.o
xTaskIncrementTick                                build/tasks.o
                                                  build/port.o
xTaskNotifyStateClear                             build/tasks.o
                                                  build/stream_buffer.o
xTaskNotifyWait                                   build/tasks.o
                                                  build/cmsis_os2.o
                                                  build/stream_buffer.o
xTaskPriorityDisinherit                           build/tasks.o
                                                  build/queue.o
xTaskPriorityInherit                              build/tasks.o
                                                  build/queue.o
xTaskRemoveFromEventList                          build/tasks.o
                                                  build/queue.o
xTaskResumeAll                                    build/tasks.o
                                                  build/service.o
                                                  build/heap_4.o
                                                  build/cmsis_os2.o
                                                  build/timers.o
                                                  build/stream_buffer.o
                                                  build/queue.o
                                                  build/event_groups.o
xTaskResumeFromISR                                build/tasks.o
xTimerCreate                                      build/timers.o
                                                  build/mems.o
                                                  build/cmsis_os2.o
xTimerCreateStatic                                build/timers.o
                                                  build/cmsis_os2.o
xTimerCreateTimerTask                             build/timers.o
                                                  build/tasks.o
xTimerGenericCommand                              build/timers.o
                                                  build/mems.o
                                                  build/cmsis_os2.o
xTimerGetExpiryTime                               build/timers.o
xTimerGetPeriod                                   build/timers.o
xTimerGetTimerDaemonTaskHandle                    build/timers.o
xTimerIsTimerActive                               build/timers.o
                                                  build/cmsis_os2.o
xTimerPendFunctionCall                            build/timers.o
xTimerPendFunctionCallFromISR                     build/timers.o
                                                  build/event_groups.o
