Archive member included to satisfy reference by file (symbol)

/usr/lib/gcc/arm-none-eabi/12.2.1/../../../arm-none-eabi/lib/thumb/v7e-m+fp/hard/libm.a(lib_a-w_sqrt.o)
                              bin/obj/mems.o (sqrt)
/usr/lib/gcc/arm-none-eabi/12.2.1/../../../arm-none-eabi/lib/thumb/v7e-m+fp/hard/libm.a(lib_a-e_sqrt.o)
                              /usr/lib/gcc/arm-none-eabi/12.2.1/../../../arm-none-eabi/lib/thumb/v7e-m+fp/hard/libm.a(lib_a-w_sqrt.o) (__ieee754_sqrt)
/usr/lib/gcc/arm-none-eabi/12.2.1/../../../arm-none-eabi/lib/thumb/v7e-m+fp/hard/libm.a(lib_a-s_lib_ver.o)
                              /usr/lib/gcc/arm-none-eabi/12.2.1/../../../arm-none-eabi/lib/thumb/v7e-m+fp/hard/libm.a(lib_a-w_sqrt.o) (__fdlib_version)
/usr/lib/gcc/arm-none-eabi/12.2.1/../../../arm-none-eabi/lib/thumb/v7e-m+fp/hard/libg.a(lib_a-ctype_.o)
                              bin/obj/dialog.o (_ctype_)
/usr/lib/gcc/arm-none-eabi/12.2.1/../../../arm-none-eabi/lib/thumb/v7e-m+fp/hard/libg.a(lib_a-errno.o)
                              /usr/lib/gcc/arm-none-eabi/12.2.1/../../../arm-none-eabi/lib/thumb/v7e-m+fp/hard/libm.a(lib_a-w_sqrt.o) (__errno)
/usr/lib/gcc/arm-none-eabi/12.2.1/../../../arm-none-eabi/lib/thumb/v7e-m+fp/hard/libg.a(lib_a-impure.o)
                              /usr/lib/gcc/arm-none-eabi/12.2.1/../../../arm-none-eabi/lib/thumb/v7e-m+fp/hard/libg.a(lib_a-errno.o) (_impure_ptr)
/usr/lib/gcc/arm-none-eabi/12.2.1/../../../arm-none-eabi/lib/thumb/v7e-m+fp/hard/libg.a(lib_a-memcpy.o)
                              bin/obj/queue.o (memcpy)
/usr/lib/gcc/arm-none-eabi/12.2.1/../../../arm-none-eabi/lib/thumb/v7e-m+fp/hard/libg.a(lib_a-memset.o)
                              bin/obj/stream_buffer.o (memset)
/usr/lib/gcc/arm-none-eabi/12.2.1/../../../arm-none-eabi/lib/thumb/v7e-m+fp/hard/libg.a(lib_a-sprintf.o)
                              bin/obj/bno055.o (sprintf)
/usr/lib/gcc/arm-none-eabi/12.2.1/../../../arm-none-eabi/lib/thumb/v7e-m+fp/hard/libg.a(lib_a-sscanf.o)
                              bin/obj/dialog.o (sscanf)
/usr/lib/gcc/arm-none-eabi/12.2.1/../../../arm-none-eabi/lib/thumb/v7e-m+fp/hard/libg.a(lib_a-stdio.o)
                              /usr/lib/gcc/arm-none-eabi/12.2.1/../../../arm-none-eabi/lib/thumb/v7e-m+fp/hard/libg.a(lib_a-sscanf.o) (__seofread)
/usr/lib/gcc/arm-none-eabi/12.2.1/../../../arm-none-eabi/lib/thumb/v7e-m+fp/hard/libg.a(lib_a-strlen.o)
                              bin/obj/bno055.o (strlen)
/usr/lib/gcc/arm-none-eabi/12.2.1/../../../arm-none-eabi/lib/thumb/v7e-m+fp/hard/libg.a(lib_a-svfprintf.o)
                              /usr/lib/gcc/arm-none-eabi/12.2.1/../../../arm-none-eabi/lib/thumb/v7e-m+fp/hard/libg.a(lib_a-sprintf.o) (_svfprintf_r)
/usr/lib/gcc/arm-none-eabi/12.2.1/../../../arm-none-eabi/lib/thumb/v7e-m+fp/hard/libg.a(lib_a-svfscanf.o)
                              /usr/lib/gcc/arm-none-eabi/12.2.1/../../../arm-none-eabi/lib/thumb/v7e-m+fp/hard/libg.a(lib_a-sscanf.o) (__ssvfscanf_r)
/usr/lib/gcc/arm-none-eabi/12.2.1/../../../arm-none-eabi/lib/thumb/v7e-m+fp/hard/libg.a(lib_a-writer.o)
                              /usr/lib/gcc/arm-none-eabi/12.2.1/../../../arm-none-eabi/lib/thumb/v7e-m+fp/hard/libg.a(lib_a-stdio.o) (_write_r)
/usr/lib/gcc/arm-none-eabi/12.2.1/../../../arm-none-eabi/lib/thumb/v7e-m+fp/hard/libg.a(lib_a-closer.o)
                              /usr/lib/gcc/arm-none-eabi/12.2.1/../../../arm-none-eabi/lib/thumb/v7e-m+fp/hard/libg.a(lib_a-stdio.o) (_close_r)
/usr/lib/gcc/arm-none-eabi/12.2.1/../../../arm-none-eabi/lib/thumb/v7e-m+fp/hard/libg.a(lib_a-dtoa.o)
                              /usr/lib/gcc/arm-none-eabi/12.2.1/../../../arm-none-eabi/lib/thumb/v7e-m+fp/hard/libg.a(lib_a-svfprintf.o) (_dtoa_r)
/usr/lib/gcc/arm-none-eabi/12.2.1/../../../arm-none-eabi/lib/thumb/v7e-m+fp/hard/libg.a(lib_a-iswspace.o)
                              /usr/lib/gcc/arm-none-eabi/12.2.1/../../../arm-none-eabi/lib/thumb/v7e-m+fp/hard/libg.a(lib_a-svfscanf.o) (iswspace)
/usr/lib/gcc/arm-none-eabi/12.2.1/../../../arm-none-eabi/lib/thumb/v7e-m+fp/hard/libg.a(lib_a-iswspace_l.o)
                              /usr/lib/gcc/arm-none-eabi/12.2.1/../../../arm-none-eabi/lib/thumb/v7e-m+fp/hard/libg.a(lib_a-iswspace.o) (iswspace_l)
/usr/lib/gcc/arm-none-eabi/12.2.1/../../../arm-none-eabi/lib/thumb/v7e-m+fp/hard/libg.a(lib_a-locale.o)
                              /usr/lib/gcc/arm-none-eabi/12.2.1/../../../arm-none-eabi/lib/thumb/v7e-m+fp/hard/libg.a(lib_a-svfscanf.o) (__locale_mb_cur_max)
/usr/lib/gcc/arm-none-eabi/12.2.1/../../../arm-none-eabi/lib/thumb/v7e-m+fp/hard/libg.a(lib_a-localeconv.o)
                              /usr/lib/gcc/arm-none-eabi/12.2.1/../../../arm-none-eabi/lib/thumb/v7e-m+fp/hard/libg.a(lib_a-svfprintf.o) (_localeconv_r)
/usr/lib/gcc/arm-none-eabi/12.2.1/../../../arm-none-eabi/lib/thumb/v7e-m+fp/hard/libg.a(lib_a-lseekr.o)
                              /usr/lib/gcc/arm-none-eabi/12.2.1/../../../arm-none-eabi/lib/thumb/v7e-m+fp/hard/libg.a(lib_a-stdio.o) (_lseek_r)
/usr/lib/gcc/arm-none-eabi/12.2.1/../../../arm-none-eabi/lib/thumb/v7e-m+fp/hard/libg.a(lib_a-mallocr.o)
                              /usr/lib/gcc/arm-none-eabi/12.2.1/../../../arm-none-eabi/lib/thumb/v7e-m+fp/hard/libg.a(lib_a-svfprintf.o) (_malloc_r)
/usr/lib/gcc/arm-none-eabi/12.2.1/../../../arm-none-eabi/lib/thumb/v7e-m+fp/hard/libg.a(lib_a-mbrtowc.o)
                              /usr/lib/gcc/arm-none-eabi/12.2.1/../../../arm-none-eabi/lib/thumb/v7e-m+fp/hard/libg.a(lib_a-svfscanf.o) (_mbrtowc_r)
/usr/lib/gcc/arm-none-eabi/12.2.1/../../../arm-none-eabi/lib/thumb/v7e-m+fp/hard/libg.a(lib_a-mbtowc_r.o)
                              /usr/lib/gcc/arm-none-eabi/12.2.1/../../../arm-none-eabi/lib/thumb/v7e-m+fp/hard/libg.a(lib_a-locale.o) (__ascii_mbtowc)
/usr/lib/gcc/arm-none-eabi/12.2.1/../../../arm-none-eabi/lib/thumb/v7e-m+fp/hard/libg.a(lib_a-memchr.o)
                              /usr/lib/gcc/arm-none-eabi/12.2.1/../../../arm-none-eabi/lib/thumb/v7e-m+fp/hard/libg.a(lib_a-svfprintf.o) (memchr)
/usr/lib/gcc/arm-none-eabi/12.2.1/../../../arm-none-eabi/lib/thumb/v7e-m+fp/hard/libg.a(lib_a-mlock.o)
                              /usr/lib/gcc/arm-none-eabi/12.2.1/../../../arm-none-eabi/lib/thumb/v7e-m+fp/hard/libg.a(lib_a-mallocr.o) (__malloc_lock)
/usr/lib/gcc/arm-none-eabi/12.2.1/../../../arm-none-eabi/lib/thumb/v7e-m+fp/hard/libg.a(lib_a-mprec.o)
                              /usr/lib/gcc/arm-none-eabi/12.2.1/../../../arm-none-eabi/lib/thumb/v7e-m+fp/hard/libg.a(lib_a-dtoa.o) (_Balloc)
/usr/lib/gcc/arm-none-eabi/12.2.1/../../../arm-none-eabi/lib/thumb/v7e-m+fp/hard/libg.a(lib_a-readr.o)
                              /usr/lib/gcc/arm-none-eabi/12.2.1/../../../arm-none-eabi/lib/thumb/v7e-m+fp/hard/libg.a(lib_a-stdio.o) (_read_r)
/usr/lib/gcc/arm-none-eabi/12.2.1/../../../arm-none-eabi/lib/thumb/v7e-m+fp/hard/libg.a(lib_a-reent.o)
                              /usr/lib/gcc/arm-none-eabi/12.2.1/../../../arm-none-eabi/lib/thumb/v7e-m+fp/hard/libg.a(lib_a-writer.o) (errno)
/usr/lib/gcc/arm-none-eabi/12.2.1/../../../arm-none-eabi/lib/thumb/v7e-m+fp/hard/libg.a(lib_a-sbrkr.o)
                              /usr/lib/gcc/arm-none-eabi/12.2.1/../../../arm-none-eabi/lib/thumb/v7e-m+fp/hard/libg.a(lib_a-mallocr.o) (_sbrk_r)
/usr/lib/gcc/arm-none-eabi/12.2.1/../../../arm-none-eabi/lib/thumb/v7e-m+fp/hard/libg.a(lib_a-sccl.o)
                              /usr/lib/gcc/arm-none-eabi/12.2.1/../../../arm-none-eabi/lib/thumb/v7e-m+fp/hard/libg.a(lib_a-svfscanf.o) (__sccl)
/usr/lib/gcc/arm-none-eabi/12.2.1/../../../arm-none-eabi/lib/thumb/v7e-m+fp/hard/libg.a(lib_a-sf_nan.o)
                              /usr/lib/gcc/arm-none-eabi/12.2.1/../../../arm-none-eabi/lib/thumb/v7e-m+fp/hard/libg.a(lib_a-svfscanf.o) (nanf)
/usr/lib/gcc/arm-none-eabi/12.2.1/../../../arm-none-eabi/lib/thumb/v7e-m+fp/hard/libg.a(lib_a-strcmp.o)
                              /usr/lib/gcc/arm-none-eabi/12.2.1/../../../arm-none-eabi/lib/thumb/v7e-m+fp/hard/libg.a(lib_a-locale.o) (strcmp)
/usr/lib/gcc/arm-none-eabi/12.2.1/../../../arm-none-eabi/lib/thumb/v7e-m+fp/hard/libg.a(lib_a-strtod.o)
                              /usr/lib/gcc/arm-none-eabi/12.2.1/../../../arm-none-eabi/lib/thumb/v7e-m+fp/hard/libg.a(lib_a-svfscanf.o) (_strtod_r)
/usr/lib/gcc/arm-none-eabi/12.2.1/../../../arm-none-eabi/lib/thumb/v7e-m+fp/hard/libg.a(lib_a-strtol.o)
                              /usr/lib/gcc/arm-none-eabi/12.2.1/../../../arm-none-eabi/lib/thumb/v7e-m+fp/hard/libg.a(lib_a-svfscanf.o) (_strtol_r)
/usr/lib/gcc/arm-none-eabi/12.2.1/../../../arm-none-eabi/lib/thumb/v7e-m+fp/hard/libg.a(lib_a-strtoll.o)
                              /usr/lib/gcc/arm-none-eabi/12.2.1/../../../arm-none-eabi/lib/thumb/v7e-m+fp/hard/libg.a(lib_a-svfscanf.o) (_strtoll_r)
/usr/lib/gcc/arm-none-eabi/12.2.1/../../../arm-none-eabi/lib/thumb/v7e-m+fp/hard/libg.a(lib_a-strtoul.o)
                              /usr/lib/gcc/arm-none-eabi/12.2.1/../../../arm-none-eabi/lib/thumb/v7e-m+fp/hard/libg.a(lib_a-svfscanf.o) (_strtoul_r)
/usr/lib/gcc/arm-none-eabi/12.2.1/../../../arm-none-eabi/lib/thumb/v7e-m+fp/hard/libg.a(lib_a-strtoull.o)
                              /usr/lib/gcc/arm-none-eabi/12.2.1/../../../arm-none-eabi/lib/thumb/v7e-m+fp/hard/libg.a(lib_a-svfscanf.o) (_strtoull_r)
/usr/lib/gcc/arm-none-eabi/12.2.1/../../../arm-none-eabi/lib/thumb/v7e-m+fp/hard/libg.a(lib_a-svfiprintf.o)
                              /usr/lib/gcc/arm-none-eabi/12.2.1/../../../arm-none-eabi/lib/thumb/v7e-m+fp/hard/libg.a(lib_a-svfprintf.o) (__ssprint_r)
/usr/lib/gcc/arm-none-eabi/12.2.1/../../../arm-none-eabi/lib/thumb/v7e-m+fp/hard/libg.a(lib_a-svfiscanf.o)
                              /usr/lib/gcc/arm-none-eabi/12.2.1/../../../arm-none-eabi/lib/thumb/v7e-m+fp/hard/libg.a(lib_a-svfscanf.o) (_sungetc_r)
/usr/lib/gcc/arm-none-eabi/12.2.1/../../../arm-none-eabi/lib/thumb/v7e-m+fp/hard/libg.a(lib_a-ungetc.o)
                              /usr/lib/gcc/arm-none-eabi/12.2.1/../../../arm-none-eabi/lib/thumb/v7e-m+fp/hard/libg.a(lib_a-svfiscanf.o) (__submore)
/usr/lib/gcc/arm-none-eabi/12.2.1/../../../arm-none-eabi/lib/thumb/v7e-m+fp/hard/libg.a(lib_a-wctomb_r.o)
                              /usr/lib/gcc/arm-none-eabi/12.2.1/../../../arm-none-eabi/lib/thumb/v7e-m+fp/hard/libg.a(lib_a-locale.o) (__ascii_wctomb)
/usr/lib/gcc/arm-none-eabi/12.2.1/../../../arm-none-eabi/lib/thumb/v7e-m+fp/hard/libg.a(lib_a-assert.o)
                              /usr/lib/gcc/arm-none-eabi/12.2.1/../../../arm-none-eabi/lib/thumb/v7e-m+fp/hard/libg.a(lib_a-dtoa.o) (__assert_func)
/usr/lib/gcc/arm-none-eabi/12.2.1/../../../arm-none-eabi/lib/thumb/v7e-m+fp/hard/libg.a(lib_a-callocr.o)
                              /usr/lib/gcc/arm-none-eabi/12.2.1/../../../arm-none-eabi/lib/thumb/v7e-m+fp/hard/libg.a(lib_a-mprec.o) (_calloc_r)
/usr/lib/gcc/arm-none-eabi/12.2.1/../../../arm-none-eabi/lib/thumb/v7e-m+fp/hard/libg.a(lib_a-fflush.o)
                              /usr/lib/gcc/arm-none-eabi/12.2.1/../../../arm-none-eabi/lib/thumb/v7e-m+fp/hard/libg.a(lib_a-ungetc.o) (_fflush_r)
/usr/lib/gcc/arm-none-eabi/12.2.1/../../../arm-none-eabi/lib/thumb/v7e-m+fp/hard/libg.a(lib_a-findfp.o)
                              /usr/lib/gcc/arm-none-eabi/12.2.1/../../../arm-none-eabi/lib/thumb/v7e-m+fp/hard/libg.a(lib_a-ungetc.o) (__sinit)
/usr/lib/gcc/arm-none-eabi/12.2.1/../../../arm-none-eabi/lib/thumb/v7e-m+fp/hard/libg.a(lib_a-fiprintf.o)
                              /usr/lib/gcc/arm-none-eabi/12.2.1/../../../arm-none-eabi/lib/thumb/v7e-m+fp/hard/libg.a(lib_a-assert.o) (fiprintf)
/usr/lib/gcc/arm-none-eabi/12.2.1/../../../arm-none-eabi/lib/thumb/v7e-m+fp/hard/libg.a(lib_a-freer.o)
                              /usr/lib/gcc/arm-none-eabi/12.2.1/../../../arm-none-eabi/lib/thumb/v7e-m+fp/hard/libg.a(lib_a-mallocr.o) (_free_r)
/usr/lib/gcc/arm-none-eabi/12.2.1/../../../arm-none-eabi/lib/thumb/v7e-m+fp/hard/libg.a(lib_a-fwalk.o)
                              /usr/lib/gcc/arm-none-eabi/12.2.1/../../../arm-none-eabi/lib/thumb/v7e-m+fp/hard/libg.a(lib_a-findfp.o) (_fwalk)
/usr/lib/gcc/arm-none-eabi/12.2.1/../../../arm-none-eabi/lib/thumb/v7e-m+fp/hard/libg.a(lib_a-gdtoa-gethex.o)
                              /usr/lib/gcc/arm-none-eabi/12.2.1/../../../arm-none-eabi/lib/thumb/v7e-m+fp/hard/libg.a(lib_a-strtod.o) (__gethex)
/usr/lib/gcc/arm-none-eabi/12.2.1/../../../arm-none-eabi/lib/thumb/v7e-m+fp/hard/libg.a(lib_a-gdtoa-hexnan.o)
                              /usr/lib/gcc/arm-none-eabi/12.2.1/../../../arm-none-eabi/lib/thumb/v7e-m+fp/hard/libg.a(lib_a-strtod.o) (__match)
/usr/lib/gcc/arm-none-eabi/12.2.1/../../../arm-none-eabi/lib/thumb/v7e-m+fp/hard/libg.a(lib_a-lnumeric.o)
                              /usr/lib/gcc/arm-none-eabi/12.2.1/../../../arm-none-eabi/lib/thumb/v7e-m+fp/hard/libg.a(lib_a-strtod.o) (_C_numeric_locale)
/usr/lib/gcc/arm-none-eabi/12.2.1/../../../arm-none-eabi/lib/thumb/v7e-m+fp/hard/libg.a(lib_a-memmove.o)
                              /usr/lib/gcc/arm-none-eabi/12.2.1/../../../arm-none-eabi/lib/thumb/v7e-m+fp/hard/libg.a(lib_a-svfiprintf.o) (memmove)
/usr/lib/gcc/arm-none-eabi/12.2.1/../../../arm-none-eabi/lib/thumb/v7e-m+fp/hard/libg.a(lib_a-reallocr.o)
                              /usr/lib/gcc/arm-none-eabi/12.2.1/../../../arm-none-eabi/lib/thumb/v7e-m+fp/hard/libg.a(lib_a-svfiprintf.o) (_realloc_r)
/usr/lib/gcc/arm-none-eabi/12.2.1/../../../arm-none-eabi/lib/thumb/v7e-m+fp/hard/libg.a(lib_a-s_nan.o)
                              /usr/lib/gcc/arm-none-eabi/12.2.1/../../../arm-none-eabi/lib/thumb/v7e-m+fp/hard/libg.a(lib_a-strtod.o) (nan)
/usr/lib/gcc/arm-none-eabi/12.2.1/../../../arm-none-eabi/lib/thumb/v7e-m+fp/hard/libg.a(lib_a-strncmp.o)
                              /usr/lib/gcc/arm-none-eabi/12.2.1/../../../arm-none-eabi/lib/thumb/v7e-m+fp/hard/libg.a(lib_a-strtod.o) (strncmp)
/usr/lib/gcc/arm-none-eabi/12.2.1/../../../arm-none-eabi/lib/thumb/v7e-m+fp/hard/libg.a(lib_a-vfiprintf.o)
                              /usr/lib/gcc/arm-none-eabi/12.2.1/../../../arm-none-eabi/lib/thumb/v7e-m+fp/hard/libg.a(lib_a-fiprintf.o) (_vfiprintf_r)
/usr/lib/gcc/arm-none-eabi/12.2.1/../../../arm-none-eabi/lib/thumb/v7e-m+fp/hard/libg.a(lib_a-wsetup.o)
                              /usr/lib/gcc/arm-none-eabi/12.2.1/../../../arm-none-eabi/lib/thumb/v7e-m+fp/hard/libg.a(lib_a-vfiprintf.o) (__swsetup_r)
/usr/lib/gcc/arm-none-eabi/12.2.1/../../../arm-none-eabi/lib/thumb/v7e-m+fp/hard/libg.a(lib_a-abort.o)
                              /usr/lib/gcc/arm-none-eabi/12.2.1/../../../arm-none-eabi/lib/thumb/v7e-m+fp/hard/libg.a(lib_a-assert.o) (abort)
/usr/lib/gcc/arm-none-eabi/12.2.1/../../../arm-none-eabi/lib/thumb/v7e-m+fp/hard/libg.a(lib_a-fclose.o)
                              /usr/lib/gcc/arm-none-eabi/12.2.1/../../../arm-none-eabi/lib/thumb/v7e-m+fp/hard/libg.a(lib_a-findfp.o) (_fclose_r)
/usr/lib/gcc/arm-none-eabi/12.2.1/../../../arm-none-eabi/lib/thumb/v7e-m+fp/hard/libg.a(lib_a-fputwc.o)
                              /usr/lib/gcc/arm-none-eabi/12.2.1/../../../arm-none-eabi/lib/thumb/v7e-m+fp/hard/libg.a(lib_a-vfiprintf.o) (_fputwc_r)
/usr/lib/gcc/arm-none-eabi/12.2.1/../../../arm-none-eabi/lib/thumb/v7e-m+fp/hard/libg.a(lib_a-fvwrite.o)
                              /usr/lib/gcc/arm-none-eabi/12.2.1/../../../arm-none-eabi/lib/thumb/v7e-m+fp/hard/libg.a(lib_a-vfiprintf.o) (__sfvwrite_r)
/usr/lib/gcc/arm-none-eabi/12.2.1/../../../arm-none-eabi/lib/thumb/v7e-m+fp/hard/libg.a(lib_a-makebuf.o)
                              /usr/lib/gcc/arm-none-eabi/12.2.1/../../../arm-none-eabi/lib/thumb/v7e-m+fp/hard/libg.a(lib_a-wsetup.o) (__smakebuf_r)
/usr/lib/gcc/arm-none-eabi/12.2.1/../../../arm-none-eabi/lib/thumb/v7e-m+fp/hard/libg.a(lib_a-signal.o)
                              /usr/lib/gcc/arm-none-eabi/12.2.1/../../../arm-none-eabi/lib/thumb/v7e-m+fp/hard/libg.a(lib_a-abort.o) (raise)
/usr/lib/gcc/arm-none-eabi/12.2.1/../../../arm-none-eabi/lib/thumb/v7e-m+fp/hard/libg.a(lib_a-signalr.o)
                              /usr/lib/gcc/arm-none-eabi/12.2.1/../../../arm-none-eabi/lib/thumb/v7e-m+fp/hard/libg.a(lib_a-signal.o) (_kill_r)
/usr/lib/gcc/arm-none-eabi/12.2.1/../../../arm-none-eabi/lib/thumb/v7e-m+fp/hard/libg.a(lib_a-wbuf.o)
                              /usr/lib/gcc/arm-none-eabi/12.2.1/../../../arm-none-eabi/lib/thumb/v7e-m+fp/hard/libg.a(lib_a-fputwc.o) (__swbuf_r)
/usr/lib/gcc/arm-none-eabi/12.2.1/../../../arm-none-eabi/lib/thumb/v7e-m+fp/hard/libg.a(lib_a-wcrtomb.o)
                              /usr/lib/gcc/arm-none-eabi/12.2.1/../../../arm-none-eabi/lib/thumb/v7e-m+fp/hard/libg.a(lib_a-fputwc.o) (_wcrtomb_r)
/usr/lib/gcc/arm-none-eabi/12.2.1/../../../arm-none-eabi/lib/thumb/v7e-m+fp/hard/libg.a(lib_a-fstatr.o)
                              /usr/lib/gcc/arm-none-eabi/12.2.1/../../../arm-none-eabi/lib/thumb/v7e-m+fp/hard/libg.a(lib_a-makebuf.o) (_fstat_r)
/usr/lib/gcc/arm-none-eabi/12.2.1/../../../arm-none-eabi/lib/thumb/v7e-m+fp/hard/libg.a(lib_a-isattyr.o)
                              /usr/lib/gcc/arm-none-eabi/12.2.1/../../../arm-none-eabi/lib/thumb/v7e-m+fp/hard/libg.a(lib_a-makebuf.o) (_isatty_r)
/usr/lib/gcc/arm-none-eabi/12.2.1/thumb/v7e-m+fp/hard/libgcc.a(_arm_muldf3.o)
                              /usr/lib/gcc/arm-none-eabi/12.2.1/../../../arm-none-eabi/lib/thumb/v7e-m+fp/hard/libm.a(lib_a-e_sqrt.o) (__aeabi_dmul)
/usr/lib/gcc/arm-none-eabi/12.2.1/thumb/v7e-m+fp/hard/libgcc.a(_arm_addsubdf3.o)
                              /usr/lib/gcc/arm-none-eabi/12.2.1/../../../arm-none-eabi/lib/thumb/v7e-m+fp/hard/libm.a(lib_a-e_sqrt.o) (__aeabi_dsub)
/usr/lib/gcc/arm-none-eabi/12.2.1/thumb/v7e-m+fp/hard/libgcc.a(_arm_muldivdf3.o)
                              /usr/lib/gcc/arm-none-eabi/12.2.1/../../../arm-none-eabi/lib/thumb/v7e-m+fp/hard/libm.a(lib_a-w_sqrt.o) (__aeabi_ddiv)
/usr/lib/gcc/arm-none-eabi/12.2.1/thumb/v7e-m+fp/hard/libgcc.a(_arm_cmpdf2.o)
                              /usr/lib/gcc/arm-none-eabi/12.2.1/../../../arm-none-eabi/lib/thumb/v7e-m+fp/hard/libg.a(lib_a-svfprintf.o) (__aeabi_dcmpeq)
/usr/lib/gcc/arm-none-eabi/12.2.1/thumb/v7e-m+fp/hard/libgcc.a(_arm_unorddf2.o)
                              /usr/lib/gcc/arm-none-eabi/12.2.1/../../../arm-none-eabi/lib/thumb/v7e-m+fp/hard/libm.a(lib_a-w_sqrt.o) (__aeabi_dcmpun)
/usr/lib/gcc/arm-none-eabi/12.2.1/thumb/v7e-m+fp/hard/libgcc.a(_arm_fixdfsi.o)
                              /usr/lib/gcc/arm-none-eabi/12.2.1/../../../arm-none-eabi/lib/thumb/v7e-m+fp/hard/libg.a(lib_a-dtoa.o) (__aeabi_d2iz)
/usr/lib/gcc/arm-none-eabi/12.2.1/thumb/v7e-m+fp/hard/libgcc.a(_arm_fixunsdfsi.o)
                              /usr/lib/gcc/arm-none-eabi/12.2.1/../../../arm-none-eabi/lib/thumb/v7e-m+fp/hard/libg.a(lib_a-strtod.o) (__aeabi_d2uiz)
/usr/lib/gcc/arm-none-eabi/12.2.1/thumb/v7e-m+fp/hard/libgcc.a(_arm_truncdfsf2.o)
                              bin/obj/mems.o (__aeabi_d2f)
/usr/lib/gcc/arm-none-eabi/12.2.1/thumb/v7e-m+fp/hard/libgcc.a(_aeabi_uldivmod.o)
                              /usr/lib/gcc/arm-none-eabi/12.2.1/../../../arm-none-eabi/lib/thumb/v7e-m+fp/hard/libg.a(lib_a-strtoll.o) (__aeabi_uldivmod)
/usr/lib/gcc/arm-none-eabi/12.2.1/thumb/v7e-m+fp/hard/libgcc.a(_fixdfdi.o)
                              /usr/lib/gcc/arm-none-eabi/12.2.1/../../../arm-none-eabi/lib/thumb/v7e-m+fp/hard/libg.a(lib_a-strtod.o) (__aeabi_d2lz)
/usr/lib/gcc/arm-none-eabi/12.2.1/thumb/v7e-m+fp/hard/libgcc.a(_fixunsdfdi.o)
                              /usr/lib/gcc/arm-none-eabi/12.2.1/thumb/v7e-m+fp/hard/libgcc.a(_fixdfdi.o) (__aeabi_d2ulz)
/usr/lib/gcc/arm-none-eabi/12.2.1/thumb/v7e-m+fp/hard/libgcc.a(_udivmoddi4.o)
                              /usr/lib/gcc/arm-none-eabi/12.2.1/thumb/v7e-m+fp/hard/libgcc.a(_aeabi_uldivmod.o) (__udivmoddi4)
/usr/lib/gcc/arm-none-eabi/12.2.1/thumb/v7e-m+fp/hard/libgcc.a(_dvmd_tls.o)
                              /usr/lib/gcc/arm-none-eabi/12.2.1/thumb/v7e-m+fp/hard/libgcc.a(_aeabi_uldivmod.o) (__aeabi_ldiv0)
/usr/lib/gcc/arm-none-eabi/12.2.1/../../../arm-none-eabi/lib/thumb/v7e-m+fp/hard/libnosys.a(close.o)
                              /usr/lib/gcc/arm-none-eabi/12.2.1/../../../arm-none-eabi/lib/thumb/v7e-m+fp/hard/libg.a(lib_a-closer.o) (_close)
/usr/lib/gcc/arm-none-eabi/12.2.1/../../../arm-none-eabi/lib/thumb/v7e-m+fp/hard/libnosys.a(fstat.o)
                              /usr/lib/gcc/arm-none-eabi/12.2.1/../../../arm-none-eabi/lib/thumb/v7e-m+fp/hard/libg.a(lib_a-fstatr.o) (_fstat)
/usr/lib/gcc/arm-none-eabi/12.2.1/../../../arm-none-eabi/lib/thumb/v7e-m+fp/hard/libnosys.a(getpid.o)
                              /usr/lib/gcc/arm-none-eabi/12.2.1/../../../arm-none-eabi/lib/thumb/v7e-m+fp/hard/libg.a(lib_a-signalr.o) (_getpid)
/usr/lib/gcc/arm-none-eabi/12.2.1/../../../arm-none-eabi/lib/thumb/v7e-m+fp/hard/libnosys.a(isatty.o)
                              /usr/lib/gcc/arm-none-eabi/12.2.1/../../../arm-none-eabi/lib/thumb/v7e-m+fp/hard/libg.a(lib_a-isattyr.o) (_isatty)
/usr/lib/gcc/arm-none-eabi/12.2.1/../../../arm-none-eabi/lib/thumb/v7e-m+fp/hard/libnosys.a(kill.o)
                              /usr/lib/gcc/arm-none-eabi/12.2.1/../../../arm-none-eabi/lib/thumb/v7e-m+fp/hard/libg.a(lib_a-signalr.o) (_kill)
/usr/lib/gcc/arm-none-eabi/12.2.1/../../../arm-none-eabi/lib/thumb/v7e-m+fp/hard/libnosys.a(lseek.o)
                              /usr/lib/gcc/arm-none-eabi/12.2.1/../../../arm-none-eabi/lib/thumb/v7e-m+fp/hard/libg.a(lib_a-lseekr.o) (_lseek)
/usr/lib/gcc/arm-none-eabi/12.2.1/../../../arm-none-eabi/lib/thumb/v7e-m+fp/hard/libnosys.a(read.o)
                              /usr/lib/gcc/arm-none-eabi/12.2.1/../../../arm-none-eabi/lib/thumb/v7e-m+fp/hard/libg.a(lib_a-readr.o) (_read)
/usr/lib/gcc/arm-none-eabi/12.2.1/../../../arm-none-eabi/lib/thumb/v7e-m+fp/hard/libnosys.a(sbrk.o)
                              /usr/lib/gcc/arm-none-eabi/12.2.1/../../../arm-none-eabi/lib/thumb/v7e-m+fp/hard/libg.a(lib_a-sbrkr.o) (_sbrk)
/usr/lib/gcc/arm-none-eabi/12.2.1/../../../arm-none-eabi/lib/thumb/v7e-m+fp/hard/libnosys.a(write.o)
                              /usr/lib/gcc/arm-none-eabi/12.2.1/../../../arm-none-eabi/lib/thumb/v7e-m+fp/hard/libg.a(lib_a-writer.o) (_write)
/usr/lib/gcc/arm-none-eabi/12.2.1/../../../arm-none-eabi/lib/thumb/v7e-m+fp/hard/libnosys.a(_exit.o)
                              /usr/lib/gcc/arm-none-eabi/12.2.1/../../../arm-none-eabi/lib/thumb/v7e-m+fp/hard/libg.a(lib_a-abort.o) (_exit)

Discarded input sections

 .group         0x00000000        0xc bin/obj/adc.o
 .group         0x00000000        0xc bin/obj/adc.o
 .group         0x00000000        0xc bin/obj/adc.o
 .group         0x00000000        0xc bin/obj/adc.o
 .group         0x00000000        0xc bin/obj/adc.o
 .group         0x00000000        0xc bin/obj/adc.o
 .group         0x00000000        0xc bin/obj/adc.o
 .group         0x00000000        0xc bin/obj/adc.o
 .group         0x00000000        0xc bin/obj/adc.o
 .group         0x00000000        0xc bin/obj/adc.o
 .group         0x00000000        0xc bin/obj/adc.o
 .group         0x00000000        0xc bin/obj/adc.o
 .group         0x00000000        0xc bin/obj/adc.o
 .group         0x00000000        0xc bin/obj/adc.o
 .group         0x00000000        0xc bin/obj/adc.o
 .group         0x00000000        0xc bin/obj/adc.o
 .group         0x00000000        0xc bin/obj/adc.o
 .group         0x00000000        0xc bin/obj/adc.o
 .group         0x00000000        0xc bin/obj/adc.o
 .group         0x00000000        0xc bin/obj/bno055.o
 .group         0x00000000        0xc bin/obj/bno055.o
 .group         0x00000000        0xc bin/obj/bno055.o
 .group         0x00000000        0xc bin/obj/bno055.o
 .group         0x00000000        0xc bin/obj/bno055.o
 .group         0x00000000        0xc bin/obj/bno055.o
 .group         0x00000000        0xc bin/obj/bno055.o
 .group         0x00000000        0xc bin/obj/bno055.o
 .group         0x00000000        0xc bin/obj/bno055.o
 .group         0x00000000        0xc bin/obj/bno055.o
 .group         0x00000000        0xc bin/obj/bno055.o
 .group         0x00000000        0xc bin/obj/bno055.o
 .group         0x00000000        0xc bin/obj/bno055.o
 .group         0x00000000        0xc bin/obj/bno055.o
 .group         0x00000000        0xc bin/obj/bno055.o
 .group         0x00000000        0xc bin/obj/bno055.o
 .group         0x00000000        0xc bin/obj/bno055.o
 .group         0x00000000        0xc bin/obj/bno055.o
 .group         0x00000000        0xc bin/obj/bno055.o
 .group         0x00000000        0xc bin/obj/bno055.o
 .group         0x00000000        0xc bin/obj/bno055.o
 .group         0x00000000        0xc bin/obj/bno055.o
 .group         0x00000000        0xc bin/obj/bno055.o
 .group         0x00000000        0xc bin/obj/bno055.o
 .group         0x00000000        0xc bin/obj/bno055.o
 .group         0x00000000        0xc bin/obj/bno055.o
 .group         0x00000000        0xc bin/obj/bno055.o
 .group         0x00000000        0xc bin/obj/bno055.o
 .group         0x00000000        0xc bin/obj/bno055.o
 .group         0x00000000        0xc bin/obj/bno055.o
 .group         0x00000000        0xc bin/obj/bno055.o
 .group         0x00000000        0xc bin/obj/bno055.o
 .group         0x00000000        0xc bin/obj/bno055.o
 .group         0x00000000        0xc bin/obj/bno055.o
 .group         0x00000000        0xc bin/obj/bno055.o
 .group         0x00000000        0xc bin/obj/bno055.o
 .group         0x00000000        0xc bin/obj/bno055.o
 .group         0x00000000        0xc bin/obj/bno055.o
 .group         0x00000000        0xc bin/obj/bno055.o
 .group         0x00000000        0xc bin/obj/bno055.o
 .group         0x00000000        0xc bin/obj/bno055.o
 .group         0x00000000        0xc bin/obj/bno055.o
 .group         0x00000000        0xc bin/obj/bno055.o
 .group         0x00000000        0xc bin/obj/bno055.o
 .debug_macro   0x00000000      0xaae bin/obj/bno055.o
 .debug_macro   0x00000000      0x189 bin/obj/bno055.o
 .debug_macro   0x00000000      0x34e bin/obj/bno055.o
 .debug_macro   0x00000000      0x1c6 bin/obj/bno055.o
 .debug_macro   0x00000000      0x15a bin/obj/bno055.o
 .debug_macro   0x00000000       0xcf bin/obj/bno055.o
 .debug_macro   0x00000000       0x22 bin/obj/bno055.o
 .debug_macro   0x00000000       0x1f bin/obj/bno055.o
 .debug_macro   0x00000000       0x12 bin/obj/bno055.o
 .debug_macro   0x00000000      0x3ae bin/obj/bno055.o
 .debug_macro   0x00000000       0xc3 bin/obj/bno055.o
 .debug_macro   0x00000000      0x120 bin/obj/bno055.o
 .debug_macro   0x00000000       0x70 bin/obj/bno055.o
 .debug_macro   0x00000000       0x10 bin/obj/bno055.o
 .group         0x00000000        0xc bin/obj/croutine.o
 .group         0x00000000        0xc bin/obj/croutine.o
 .group         0x00000000        0xc bin/obj/croutine.o
 .group         0x00000000        0xc bin/obj/croutine.o
 .group         0x00000000        0xc bin/obj/croutine.o
 .group         0x00000000        0xc bin/obj/croutine.o
 .group         0x00000000        0xc bin/obj/croutine.o
 .group         0x00000000        0xc bin/obj/croutine.o
 .group         0x00000000        0xc bin/obj/croutine.o
 .group         0x00000000        0xc bin/obj/croutine.o
 .group         0x00000000        0xc bin/obj/croutine.o
 .group         0x00000000        0xc bin/obj/croutine.o
 .group         0x00000000        0xc bin/obj/croutine.o
 .debug_macro   0x00000000      0xaae bin/obj/croutine.o
 .debug_macro   0x00000000      0x189 bin/obj/croutine.o
 .debug_macro   0x00000000      0x34e bin/obj/croutine.o
 .debug_macro   0x00000000      0x1c6 bin/obj/croutine.o
 .debug_macro   0x00000000      0x15a bin/obj/croutine.o
 .debug_macro   0x00000000       0xcf bin/obj/croutine.o
 .debug_macro   0x00000000       0x22 bin/obj/croutine.o
 .debug_macro   0x00000000       0x1f bin/obj/croutine.o
 .debug_macro   0x00000000       0x12 bin/obj/croutine.o
 .debug_macro   0x00000000      0x3ae bin/obj/croutine.o
 .debug_macro   0x00000000       0xc3 bin/obj/croutine.o
 .debug_macro   0x00000000      0x120 bin/obj/croutine.o
 .group         0x00000000        0xc bin/obj/dialog.o
 .group         0x00000000        0xc bin/obj/dialog.o
 .group         0x00000000        0xc bin/obj/dialog.o
 .group         0x00000000        0xc bin/obj/dialog.o
 .group         0x00000000        0xc bin/obj/dialog.o
 .group         0x00000000        0xc bin/obj/dialog.o
 .group         0x00000000        0xc bin/obj/dialog.o
 .group         0x00000000        0xc bin/obj/dialog.o
 .group         0x00000000        0xc bin/obj/dialog.o
 .group         0x00000000        0xc bin/obj/dialog.o
 .group         0x00000000        0xc bin/obj/dialog.o
 .group         0x00000000        0xc bin/obj/dialog.o
 .group         0x00000000        0xc bin/obj/dialog.o
 .group         0x00000000        0xc bin/obj/dialog.o
 .group         0x00000000        0xc bin/obj/dialog.o
 .group         0x00000000        0xc bin/obj/dialog.o
 .group         0x00000000        0xc bin/obj/dialog.o
 .group         0x00000000        0xc bin/obj/dialog.o
 .group         0x00000000        0xc bin/obj/dialog.o
 .group         0x00000000        0xc bin/obj/dialog.o
 .group         0x00000000        0xc bin/obj/dialog.o
 .group         0x00000000        0xc bin/obj/dialog.o
 .group         0x00000000        0xc bin/obj/dialog.o
 .group         0x00000000        0xc bin/obj/dialog.o
 .group         0x00000000        0xc bin/obj/dialog.o
 .group         0x00000000        0xc bin/obj/dialog.o
 .group         0x00000000        0xc bin/obj/dialog.o
 .group         0x00000000        0xc bin/obj/dialog.o
 .group         0x00000000        0xc bin/obj/dialog.o
 .group         0x00000000        0xc bin/obj/dialog.o
 .group         0x00000000        0xc bin/obj/dialog.o
 .group         0x00000000        0xc bin/obj/dialog.o
 .group         0x00000000        0xc bin/obj/dialog.o
 .group         0x00000000        0xc bin/obj/dialog.o
 .group         0x00000000        0xc bin/obj/dialog.o
 .group         0x00000000        0xc bin/obj/dialog.o
 .group         0x00000000        0xc bin/obj/dialog.o
 .group         0x00000000        0xc bin/obj/dialog.o
 .group         0x00000000        0xc bin/obj/dialog.o
 .group         0x00000000        0xc bin/obj/dialog.o
 .group         0x00000000        0xc bin/obj/dialog.o
 .group         0x00000000        0xc bin/obj/dialog.o
 .group         0x00000000        0xc bin/obj/dialog.o
 .debug_macro   0x00000000      0xaae bin/obj/dialog.o
 .debug_macro   0x00000000       0x22 bin/obj/dialog.o
 .debug_macro   0x00000000       0x52 bin/obj/dialog.o
 .debug_macro   0x00000000       0x18 bin/obj/dialog.o
 .debug_macro   0x00000000       0x5c bin/obj/dialog.o
 .debug_macro   0x00000000       0x35 bin/obj/dialog.o
 .debug_macro   0x00000000       0x34 bin/obj/dialog.o
 .debug_macro   0x00000000       0x57 bin/obj/dialog.o
 .debug_macro   0x00000000      0x333 bin/obj/dialog.o
 .debug_macro   0x00000000       0x10 bin/obj/dialog.o
 .debug_macro   0x00000000       0x16 bin/obj/dialog.o
 .debug_macro   0x00000000       0x43 bin/obj/dialog.o
 .debug_macro   0x00000000       0x34 bin/obj/dialog.o
 .debug_macro   0x00000000       0x10 bin/obj/dialog.o
 .debug_macro   0x00000000       0x52 bin/obj/dialog.o
 .debug_macro   0x00000000      0x182 bin/obj/dialog.o
 .debug_macro   0x00000000       0x10 bin/obj/dialog.o
 .debug_macro   0x00000000       0x6a bin/obj/dialog.o
 .debug_macro   0x00000000       0xb2 bin/obj/dialog.o
 .debug_macro   0x00000000       0x16 bin/obj/dialog.o
 .debug_macro   0x00000000      0x129 bin/obj/dialog.o
 .debug_macro   0x00000000       0x16 bin/obj/dialog.o
 .debug_macro   0x00000000       0x35 bin/obj/dialog.o
 .debug_macro   0x00000000      0x34e bin/obj/dialog.o
 .debug_macro   0x00000000      0x1c6 bin/obj/dialog.o
 .debug_macro   0x00000000      0x15a bin/obj/dialog.o
 .debug_macro   0x00000000       0xcf bin/obj/dialog.o
 .debug_macro   0x00000000       0x22 bin/obj/dialog.o
 .debug_macro   0x00000000       0x1f bin/obj/dialog.o
 .debug_macro   0x00000000       0x12 bin/obj/dialog.o
 .debug_macro   0x00000000      0x3ae bin/obj/dialog.o
 .debug_macro   0x00000000       0xc3 bin/obj/dialog.o
 .debug_macro   0x00000000      0x120 bin/obj/dialog.o
 .debug_macro   0x00000000       0x80 bin/obj/dialog.o
 .debug_macro   0x00000000       0x70 bin/obj/dialog.o
 .debug_macro   0x00000000       0x18 bin/obj/dialog.o
 .debug_macro   0x00000000       0x10 bin/obj/dialog.o
 .debug_macro   0x00000000       0x8e bin/obj/dialog.o
 .debug_macro   0x00000000       0xf4 bin/obj/dialog.o
 .group         0x00000000        0xc bin/obj/dma.o
 .group         0x00000000        0xc bin/obj/dma.o
 .group         0x00000000        0xc bin/obj/dma.o
 .group         0x00000000        0xc bin/obj/dma.o
 .group         0x00000000        0xc bin/obj/dma.o
 .group         0x00000000        0xc bin/obj/dma.o
 .group         0x00000000        0xc bin/obj/dma.o
 .group         0x00000000        0xc bin/obj/dma.o
 .group         0x00000000        0xc bin/obj/dma.o
 .group         0x00000000        0xc bin/obj/dma.o
 .group         0x00000000        0xc bin/obj/dma.o
 .group         0x00000000        0xc bin/obj/dma.o
 .group         0x00000000        0xc bin/obj/dma.o
 .group         0x00000000        0xc bin/obj/dma.o
 .group         0x00000000        0xc bin/obj/dma.o
 .debug_macro   0x00000000      0xaae bin/obj/dma.o
 .debug_macro   0x00000000      0x34e bin/obj/dma.o
 .debug_macro   0x00000000      0x189 bin/obj/dma.o
 .debug_macro   0x00000000       0x10 bin/obj/dma.o
 .debug_macro   0x00000000       0x22 bin/obj/dma.o
 .debug_macro   0x00000000       0x52 bin/obj/dma.o
 .debug_macro   0x00000000       0x18 bin/obj/dma.o
 .debug_macro   0x00000000       0x5c bin/obj/dma.o
 .debug_macro   0x00000000       0x35 bin/obj/dma.o
 .debug_macro   0x00000000       0x34 bin/obj/dma.o
 .debug_macro   0x00000000       0x52 bin/obj/dma.o
 .debug_macro   0x00000000       0x6a bin/obj/dma.o
 .group         0x00000000        0xc bin/obj/event_groups.o
 .group         0x00000000        0xc bin/obj/event_groups.o
 .group         0x00000000        0xc bin/obj/event_groups.o
 .group         0x00000000        0xc bin/obj/event_groups.o
 .group         0x00000000        0xc bin/obj/event_groups.o
 .group         0x00000000        0xc bin/obj/event_groups.o
 .group         0x00000000        0xc bin/obj/event_groups.o
 .group         0x00000000        0xc bin/obj/event_groups.o
 .group         0x00000000        0xc bin/obj/event_groups.o
 .group         0x00000000        0xc bin/obj/event_groups.o
 .group         0x00000000        0xc bin/obj/event_groups.o
 .group         0x00000000        0xc bin/obj/event_groups.o
 .group         0x00000000        0xc bin/obj/event_groups.o
 .group         0x00000000        0xc bin/obj/event_groups.o
 .group         0x00000000        0xc bin/obj/event_groups.o
 .group         0x00000000        0xc bin/obj/event_groups.o
 .group         0x00000000        0xc bin/obj/event_groups.o
 .group         0x00000000        0xc bin/obj/event_groups.o
 .group         0x00000000        0xc bin/obj/event_groups.o
 .group         0x00000000        0xc bin/obj/event_groups.o
 .group         0x00000000        0xc bin/obj/event_groups.o
 .group         0x00000000        0xc bin/obj/event_groups.o
 .group         0x00000000        0xc bin/obj/event_groups.o
 .group         0x00000000        0xc bin/obj/event_groups.o
 .group         0x00000000        0xc bin/obj/event_groups.o
 .group         0x00000000        0xc bin/obj/event_groups.o
 .group         0x00000000        0xc bin/obj/event_groups.o
 .group         0x00000000        0xc bin/obj/event_groups.o
 .group         0x00000000        0xc bin/obj/event_groups.o
 .group         0x00000000        0xc bin/obj/event_groups.o
 .group         0x00000000        0xc bin/obj/event_groups.o
 .debug_macro   0x00000000      0xaae bin/obj/event_groups.o
 .debug_macro   0x00000000       0x18 bin/obj/event_groups.o
 .debug_macro   0x00000000       0x22 bin/obj/event_groups.o
 .debug_macro   0x00000000       0x52 bin/obj/event_groups.o
 .debug_macro   0x00000000       0x5c bin/obj/event_groups.o
 .debug_macro   0x00000000       0x35 bin/obj/event_groups.o
 .debug_macro   0x00000000       0x34 bin/obj/event_groups.o
 .debug_macro   0x00000000       0x16 bin/obj/event_groups.o
 .debug_macro   0x00000000       0x43 bin/obj/event_groups.o
 .debug_macro   0x00000000       0x57 bin/obj/event_groups.o
 .debug_macro   0x00000000       0x34 bin/obj/event_groups.o
 .debug_macro   0x00000000       0x10 bin/obj/event_groups.o
 .debug_macro   0x00000000       0x52 bin/obj/event_groups.o
 .debug_macro   0x00000000      0x182 bin/obj/event_groups.o
 .debug_macro   0x00000000      0x333 bin/obj/event_groups.o
 .debug_macro   0x00000000      0x34e bin/obj/event_groups.o
 .debug_macro   0x00000000      0x1c6 bin/obj/event_groups.o
 .debug_macro   0x00000000      0x15a bin/obj/event_groups.o
 .debug_macro   0x00000000       0xcf bin/obj/event_groups.o
 .debug_macro   0x00000000       0x22 bin/obj/event_groups.o
 .debug_macro   0x00000000       0x1f bin/obj/event_groups.o
 .debug_macro   0x00000000       0x12 bin/obj/event_groups.o
 .debug_macro   0x00000000      0x3ae bin/obj/event_groups.o
 .debug_macro   0x00000000       0xc3 bin/obj/event_groups.o
 .debug_macro   0x00000000      0x120 bin/obj/event_groups.o
 .debug_macro   0x00000000       0x91 bin/obj/event_groups.o
 .group         0x00000000        0xc bin/obj/exti.o
 .group         0x00000000        0xc bin/obj/exti.o
 .group         0x00000000        0xc bin/obj/exti.o
 .group         0x00000000        0xc bin/obj/exti.o
 .group         0x00000000        0xc bin/obj/exti.o
 .group         0x00000000        0xc bin/obj/exti.o
 .group         0x00000000        0xc bin/obj/exti.o
 .debug_macro   0x00000000      0xaae bin/obj/exti.o
 .debug_macro   0x00000000      0x189 bin/obj/exti.o
 .debug_macro   0x00000000      0x34e bin/obj/exti.o
 .debug_macro   0x00000000       0x10 bin/obj/exti.o
 .debug_macro   0x00000000       0x52 bin/obj/exti.o
 .debug_macro   0x00000000       0x8e bin/obj/exti.o
 .group         0x00000000        0xc bin/obj/gpio.o
 .group         0x00000000        0xc bin/obj/gpio.o
 .group         0x00000000        0xc bin/obj/gpio.o
 .group         0x00000000        0xc bin/obj/gpio.o
 .group         0x00000000        0xc bin/obj/gpio.o
 .debug_macro   0x00000000      0xaae bin/obj/gpio.o
 .debug_macro   0x00000000      0x34e bin/obj/gpio.o
 .debug_macro   0x00000000      0x189 bin/obj/gpio.o
 .debug_macro   0x00000000       0x10 bin/obj/gpio.o
 .debug_macro   0x00000000       0x8e bin/obj/gpio.o
 .group         0x00000000        0xc bin/obj/heap.o
 .group         0x00000000        0xc bin/obj/heap.o
 .group         0x00000000        0xc bin/obj/heap.o
 .group         0x00000000        0xc bin/obj/heap.o
 .group         0x00000000        0xc bin/obj/heap.o
 .group         0x00000000        0xc bin/obj/heap.o
 .group         0x00000000        0xc bin/obj/heap.o
 .group         0x00000000        0xc bin/obj/heap.o
 .group         0x00000000        0xc bin/obj/heap.o
 .group         0x00000000        0xc bin/obj/heap.o
 .group         0x00000000        0xc bin/obj/heap.o
 .group         0x00000000        0xc bin/obj/heap.o
 .group         0x00000000        0xc bin/obj/heap.o
 .group         0x00000000        0xc bin/obj/heap.o
 .group         0x00000000        0xc bin/obj/heap.o
 .group         0x00000000        0xc bin/obj/heap.o
 .group         0x00000000        0xc bin/obj/heap.o
 .group         0x00000000        0xc bin/obj/heap.o
 .group         0x00000000        0xc bin/obj/heap.o
 .group         0x00000000        0xc bin/obj/heap.o
 .group         0x00000000        0xc bin/obj/heap.o
 .group         0x00000000        0xc bin/obj/heap.o
 .group         0x00000000        0xc bin/obj/heap.o
 .group         0x00000000        0xc bin/obj/heap.o
 .group         0x00000000        0xc bin/obj/heap.o
 .group         0x00000000        0xc bin/obj/heap.o
 .group         0x00000000        0xc bin/obj/heap.o
 .group         0x00000000        0xc bin/obj/heap.o
 .group         0x00000000        0xc bin/obj/heap.o
 .debug_macro   0x00000000      0xaae bin/obj/heap.o
 .debug_macro   0x00000000       0x18 bin/obj/heap.o
 .debug_macro   0x00000000       0x22 bin/obj/heap.o
 .debug_macro   0x00000000       0x52 bin/obj/heap.o
 .debug_macro   0x00000000       0x5c bin/obj/heap.o
 .debug_macro   0x00000000       0x35 bin/obj/heap.o
 .debug_macro   0x00000000       0x34 bin/obj/heap.o
 .debug_macro   0x00000000       0x16 bin/obj/heap.o
 .debug_macro   0x00000000      0x11c bin/obj/heap.o
 .debug_macro   0x00000000       0x94 bin/obj/heap.o
 .debug_macro   0x00000000       0x16 bin/obj/heap.o
 .debug_macro   0x00000000       0x43 bin/obj/heap.o
 .debug_macro   0x00000000       0x57 bin/obj/heap.o
 .debug_macro   0x00000000       0x34 bin/obj/heap.o
 .debug_macro   0x00000000       0x10 bin/obj/heap.o
 .debug_macro   0x00000000       0x52 bin/obj/heap.o
 .debug_macro   0x00000000      0x182 bin/obj/heap.o
 .debug_macro   0x00000000      0x333 bin/obj/heap.o
 .debug_macro   0x00000000       0x22 bin/obj/heap.o
 .debug_macro   0x00000000      0x34e bin/obj/heap.o
 .debug_macro   0x00000000      0x1c6 bin/obj/heap.o
 .debug_macro   0x00000000      0x15a bin/obj/heap.o
 .debug_macro   0x00000000       0xcf bin/obj/heap.o
 .debug_macro   0x00000000       0x22 bin/obj/heap.o
 .debug_macro   0x00000000       0x1f bin/obj/heap.o
 .debug_macro   0x00000000       0x12 bin/obj/heap.o
 .debug_macro   0x00000000      0x3ae bin/obj/heap.o
 .debug_macro   0x00000000       0xc3 bin/obj/heap.o
 .debug_macro   0x00000000      0x120 bin/obj/heap.o
 .group         0x00000000        0xc bin/obj/i2c.o
 .group         0x00000000        0xc bin/obj/i2c.o
 .group         0x00000000        0xc bin/obj/i2c.o
 .group         0x00000000        0xc bin/obj/i2c.o
 .group         0x00000000        0xc bin/obj/i2c.o
 .group         0x00000000        0xc bin/obj/i2c.o
 .group         0x00000000        0xc bin/obj/i2c.o
 .group         0x00000000        0xc bin/obj/i2c.o
 .group         0x00000000        0xc bin/obj/i2c.o
 .group         0x00000000        0xc bin/obj/i2c.o
 .group         0x00000000        0xc bin/obj/i2c.o
 .group         0x00000000        0xc bin/obj/i2c.o
 .group         0x00000000        0xc bin/obj/i2c.o
 .group         0x00000000        0xc bin/obj/i2c.o
 .group         0x00000000        0xc bin/obj/i2c.o
 .group         0x00000000        0xc bin/obj/i2c.o
 .group         0x00000000        0xc bin/obj/i2c.o
 .group         0x00000000        0xc bin/obj/i2c.o
 .group         0x00000000        0xc bin/obj/i2c.o
 .group         0x00000000        0xc bin/obj/i2c.o
 .group         0x00000000        0xc bin/obj/i2c.o
 .group         0x00000000        0xc bin/obj/i2c.o
 .debug_macro   0x00000000      0xaae bin/obj/i2c.o
 .debug_macro   0x00000000      0x189 bin/obj/i2c.o
 .debug_macro   0x00000000      0x34e bin/obj/i2c.o
 .debug_macro   0x00000000       0x10 bin/obj/i2c.o
 .debug_macro   0x00000000       0x52 bin/obj/i2c.o
 .debug_macro   0x00000000       0xe8 bin/obj/i2c.o
 .debug_macro   0x00000000       0x22 bin/obj/i2c.o
 .debug_macro   0x00000000       0x6a bin/obj/i2c.o
 .debug_macro   0x00000000      0x1c6 bin/obj/i2c.o
 .debug_macro   0x00000000      0x15a bin/obj/i2c.o
 .debug_macro   0x00000000       0xcf bin/obj/i2c.o
 .debug_macro   0x00000000       0x22 bin/obj/i2c.o
 .debug_macro   0x00000000       0x1f bin/obj/i2c.o
 .debug_macro   0x00000000       0x12 bin/obj/i2c.o
 .debug_macro   0x00000000      0x3ae bin/obj/i2c.o
 .debug_macro   0x00000000       0xc3 bin/obj/i2c.o
 .debug_macro   0x00000000      0x120 bin/obj/i2c.o
 .debug_macro   0x00000000       0x80 bin/obj/i2c.o
 .debug_macro   0x00000000       0x70 bin/obj/i2c.o
 .debug_macro   0x00000000       0x8e bin/obj/i2c.o
 .group         0x00000000        0xc bin/obj/list.o
 .group         0x00000000        0xc bin/obj/list.o
 .group         0x00000000        0xc bin/obj/list.o
 .group         0x00000000        0xc bin/obj/list.o
 .group         0x00000000        0xc bin/obj/list.o
 .group         0x00000000        0xc bin/obj/list.o
 .group         0x00000000        0xc bin/obj/list.o
 .group         0x00000000        0xc bin/obj/list.o
 .group         0x00000000        0xc bin/obj/list.o
 .group         0x00000000        0xc bin/obj/list.o
 .group         0x00000000        0xc bin/obj/list.o
 .group         0x00000000        0xc bin/obj/list.o
 .group         0x00000000        0xc bin/obj/list.o
 .group         0x00000000        0xc bin/obj/list.o
 .group         0x00000000        0xc bin/obj/list.o
 .group         0x00000000        0xc bin/obj/list.o
 .group         0x00000000        0xc bin/obj/list.o
 .group         0x00000000        0xc bin/obj/list.o
 .group         0x00000000        0xc bin/obj/list.o
 .group         0x00000000        0xc bin/obj/list.o
 .group         0x00000000        0xc bin/obj/list.o
 .group         0x00000000        0xc bin/obj/list.o
 .group         0x00000000        0xc bin/obj/list.o
 .group         0x00000000        0xc bin/obj/list.o
 .group         0x00000000        0xc bin/obj/list.o
 .group         0x00000000        0xc bin/obj/list.o
 .group         0x00000000        0xc bin/obj/list.o
 .group         0x00000000        0xc bin/obj/list.o
 .debug_macro   0x00000000      0xaae bin/obj/list.o
 .debug_macro   0x00000000       0x18 bin/obj/list.o
 .debug_macro   0x00000000       0x22 bin/obj/list.o
 .debug_macro   0x00000000       0x52 bin/obj/list.o
 .debug_macro   0x00000000       0x5c bin/obj/list.o
 .debug_macro   0x00000000       0x35 bin/obj/list.o
 .debug_macro   0x00000000       0x34 bin/obj/list.o
 .debug_macro   0x00000000       0x16 bin/obj/list.o
 .debug_macro   0x00000000      0x11c bin/obj/list.o
 .debug_macro   0x00000000       0x94 bin/obj/list.o
 .debug_macro   0x00000000       0x16 bin/obj/list.o
 .debug_macro   0x00000000       0x43 bin/obj/list.o
 .debug_macro   0x00000000       0x57 bin/obj/list.o
 .debug_macro   0x00000000       0x34 bin/obj/list.o
 .debug_macro   0x00000000       0x10 bin/obj/list.o
 .debug_macro   0x00000000       0x52 bin/obj/list.o
 .debug_macro   0x00000000      0x182 bin/obj/list.o
 .debug_macro   0x00000000      0x333 bin/obj/list.o
 .debug_macro   0x00000000       0x22 bin/obj/list.o
 .debug_macro   0x00000000      0x34e bin/obj/list.o
 .debug_macro   0x00000000      0x1c6 bin/obj/list.o
 .debug_macro   0x00000000      0x15a bin/obj/list.o
 .debug_macro   0x00000000       0xcf bin/obj/list.o
 .debug_macro   0x00000000       0x22 bin/obj/list.o
 .debug_macro   0x00000000       0x1f bin/obj/list.o
 .debug_macro   0x00000000       0x12 bin/obj/list.o
 .debug_macro   0x00000000      0x3ae bin/obj/list.o
 .debug_macro   0x00000000       0xc3 bin/obj/list.o
 .group         0x00000000        0xc bin/obj/main.o
 .group         0x00000000        0xc bin/obj/main.o
 .group         0x00000000        0xc bin/obj/main.o
 .group         0x00000000        0xc bin/obj/main.o
 .group         0x00000000        0xc bin/obj/main.o
 .group         0x00000000        0xc bin/obj/main.o
 .group         0x00000000        0xc bin/obj/main.o
 .group         0x00000000        0xc bin/obj/main.o
 .group         0x00000000        0xc bin/obj/main.o
 .group         0x00000000        0xc bin/obj/main.o
 .group         0x00000000        0xc bin/obj/main.o
 .group         0x00000000        0xc bin/obj/main.o
 .group         0x00000000        0xc bin/obj/main.o
 .group         0x00000000        0xc bin/obj/main.o
 .group         0x00000000        0xc bin/obj/main.o
 .group         0x00000000        0xc bin/obj/main.o
 .group         0x00000000        0xc bin/obj/main.o
 .group         0x00000000        0xc bin/obj/main.o
 .group         0x00000000        0xc bin/obj/main.o
 .group         0x00000000        0xc bin/obj/main.o
 .group         0x00000000        0xc bin/obj/main.o
 .group         0x00000000        0xc bin/obj/main.o
 .group         0x00000000        0xc bin/obj/main.o
 .group         0x00000000        0xc bin/obj/main.o
 .group         0x00000000        0xc bin/obj/main.o
 .group         0x00000000        0xc bin/obj/main.o
 .group         0x00000000        0xc bin/obj/main.o
 .group         0x00000000        0xc bin/obj/main.o
 .group         0x00000000        0xc bin/obj/main.o
 .group         0x00000000        0xc bin/obj/main.o
 .group         0x00000000        0xc bin/obj/main.o
 .group         0x00000000        0xc bin/obj/main.o
 .group         0x00000000        0xc bin/obj/main.o
 .group         0x00000000        0xc bin/obj/main.o
 .debug_macro   0x00000000      0xaae bin/obj/main.o
 .debug_macro   0x00000000       0x22 bin/obj/main.o
 .debug_macro   0x00000000       0x52 bin/obj/main.o
 .debug_macro   0x00000000       0x18 bin/obj/main.o
 .debug_macro   0x00000000       0x5c bin/obj/main.o
 .debug_macro   0x00000000       0x35 bin/obj/main.o
 .debug_macro   0x00000000       0x34 bin/obj/main.o
 .debug_macro   0x00000000      0x189 bin/obj/main.o
 .debug_macro   0x00000000       0x16 bin/obj/main.o
 .debug_macro   0x00000000       0x43 bin/obj/main.o
 .debug_macro   0x00000000       0x57 bin/obj/main.o
 .debug_macro   0x00000000       0x34 bin/obj/main.o
 .debug_macro   0x00000000       0x10 bin/obj/main.o
 .debug_macro   0x00000000       0x52 bin/obj/main.o
 .debug_macro   0x00000000      0x182 bin/obj/main.o
 .debug_macro   0x00000000      0x333 bin/obj/main.o
 .debug_macro   0x00000000       0xde bin/obj/main.o
 .debug_macro   0x00000000       0x16 bin/obj/main.o
 .debug_macro   0x00000000       0x35 bin/obj/main.o
 .debug_macro   0x00000000      0x34e bin/obj/main.o
 .debug_macro   0x00000000      0x1c6 bin/obj/main.o
 .debug_macro   0x00000000      0x15a bin/obj/main.o
 .debug_macro   0x00000000       0xcf bin/obj/main.o
 .debug_macro   0x00000000       0x22 bin/obj/main.o
 .debug_macro   0x00000000       0x1f bin/obj/main.o
 .debug_macro   0x00000000       0x12 bin/obj/main.o
 .debug_macro   0x00000000      0x3ae bin/obj/main.o
 .debug_macro   0x00000000       0x18 bin/obj/main.o
 .debug_macro   0x00000000       0x6d bin/obj/main.o
 .debug_macro   0x00000000       0xc3 bin/obj/main.o
 .debug_macro   0x00000000      0x120 bin/obj/main.o
 .debug_macro   0x00000000       0x91 bin/obj/main.o
 .debug_macro   0x00000000       0x10 bin/obj/main.o
 .debug_macro   0x00000000       0x8e bin/obj/main.o
 .group         0x00000000        0xc bin/obj/mems.o
 .group         0x00000000        0xc bin/obj/mems.o
 .group         0x00000000        0xc bin/obj/mems.o
 .group         0x00000000        0xc bin/obj/mems.o
 .group         0x00000000        0xc bin/obj/mems.o
 .group         0x00000000        0xc bin/obj/mems.o
 .group         0x00000000        0xc bin/obj/mems.o
 .group         0x00000000        0xc bin/obj/mems.o
 .group         0x00000000        0xc bin/obj/mems.o
 .group         0x00000000        0xc bin/obj/mems.o
 .group         0x00000000        0xc bin/obj/mems.o
 .group         0x00000000        0xc bin/obj/mems.o
 .group         0x00000000        0xc bin/obj/mems.o
 .group         0x00000000        0xc bin/obj/mems.o
 .group         0x00000000        0xc bin/obj/mems.o
 .group         0x00000000        0xc bin/obj/mems.o
 .group         0x00000000        0xc bin/obj/mems.o
 .group         0x00000000        0xc bin/obj/mems.o
 .group         0x00000000        0xc bin/obj/mems.o
 .group         0x00000000        0xc bin/obj/mems.o
 .group         0x00000000        0xc bin/obj/mems.o
 .group         0x00000000        0xc bin/obj/mems.o
 .group         0x00000000        0xc bin/obj/mems.o
 .group         0x00000000        0xc bin/obj/mems.o
 .group         0x00000000        0xc bin/obj/mems.o
 .group         0x00000000        0xc bin/obj/mems.o
 .group         0x00000000        0xc bin/obj/mems.o
 .group         0x00000000        0xc bin/obj/mems.o
 .group         0x00000000        0xc bin/obj/mems.o
 .group         0x00000000        0xc bin/obj/mems.o
 .group         0x00000000        0xc bin/obj/mems.o
 .group         0x00000000        0xc bin/obj/mems.o
 .group         0x00000000        0xc bin/obj/mems.o
 .group         0x00000000        0xc bin/obj/mems.o
 .group         0x00000000        0xc bin/obj/mems.o
 .group         0x00000000        0xc bin/obj/mems.o
 .group         0x00000000        0xc bin/obj/mems.o
 .group         0x00000000        0xc bin/obj/mems.o
 .group         0x00000000        0xc bin/obj/mems.o
 .group         0x00000000        0xc bin/obj/mems.o
 .group         0x00000000        0xc bin/obj/mems.o
 .group         0x00000000        0xc bin/obj/mems.o
 .debug_macro   0x00000000      0xaae bin/obj/mems.o
 .debug_macro   0x00000000       0x22 bin/obj/mems.o
 .debug_macro   0x00000000       0x52 bin/obj/mems.o
 .debug_macro   0x00000000       0x18 bin/obj/mems.o
 .debug_macro   0x00000000       0x5c bin/obj/mems.o
 .debug_macro   0x00000000       0x35 bin/obj/mems.o
 .debug_macro   0x00000000       0x34 bin/obj/mems.o
 .debug_macro   0x00000000      0x189 bin/obj/mems.o
 .debug_macro   0x00000000       0x16 bin/obj/mems.o
 .debug_macro   0x00000000       0x43 bin/obj/mems.o
 .debug_macro   0x00000000       0x57 bin/obj/mems.o
 .debug_macro   0x00000000       0x34 bin/obj/mems.o
 .debug_macro   0x00000000       0x10 bin/obj/mems.o
 .debug_macro   0x00000000       0x52 bin/obj/mems.o
 .debug_macro   0x00000000      0x182 bin/obj/mems.o
 .debug_macro   0x00000000      0x333 bin/obj/mems.o
 .debug_macro   0x00000000       0x35 bin/obj/mems.o
 .debug_macro   0x00000000       0x1c bin/obj/mems.o
 .debug_macro   0x00000000       0x10 bin/obj/mems.o
 .debug_macro   0x00000000       0x10 bin/obj/mems.o
 .debug_macro   0x00000000       0x6a bin/obj/mems.o
 .debug_macro   0x00000000       0xb2 bin/obj/mems.o
 .debug_macro   0x00000000       0x16 bin/obj/mems.o
 .debug_macro   0x00000000      0x129 bin/obj/mems.o
 .debug_macro   0x00000000      0x34e bin/obj/mems.o
 .debug_macro   0x00000000      0x1c6 bin/obj/mems.o
 .debug_macro   0x00000000      0x15a bin/obj/mems.o
 .debug_macro   0x00000000       0xcf bin/obj/mems.o
 .debug_macro   0x00000000       0x22 bin/obj/mems.o
 .debug_macro   0x00000000       0x1f bin/obj/mems.o
 .debug_macro   0x00000000       0x12 bin/obj/mems.o
 .debug_macro   0x00000000      0x3ae bin/obj/mems.o
 .debug_macro   0x00000000       0x18 bin/obj/mems.o
 .debug_macro   0x00000000       0x6d bin/obj/mems.o
 .debug_macro   0x00000000       0xc3 bin/obj/mems.o
 .debug_macro   0x00000000      0x120 bin/obj/mems.o
 .debug_macro   0x00000000       0x80 bin/obj/mems.o
 .debug_macro   0x00000000       0x70 bin/obj/mems.o
 .debug_macro   0x00000000       0x10 bin/obj/mems.o
 .debug_macro   0x00000000       0xf4 bin/obj/mems.o
 .group         0x00000000        0xc bin/obj/motor.o
 .group         0x00000000        0xc bin/obj/motor.o
 .group         0x00000000        0xc bin/obj/motor.o
 .group         0x00000000        0xc bin/obj/motor.o
 .group         0x00000000        0xc bin/obj/motor.o
 .group         0x00000000        0xc bin/obj/motor.o
 .group         0x00000000        0xc bin/obj/motor.o
 .group         0x00000000        0xc bin/obj/motor.o
 .group         0x00000000        0xc bin/obj/motor.o
 .group         0x00000000        0xc bin/obj/motor.o
 .group         0x00000000        0xc bin/obj/motor.o
 .group         0x00000000        0xc bin/obj/motor.o
 .group         0x00000000        0xc bin/obj/motor.o
 .group         0x00000000        0xc bin/obj/motor.o
 .group         0x00000000        0xc bin/obj/motor.o
 .group         0x00000000        0xc bin/obj/motor.o
 .group         0x00000000        0xc bin/obj/motor.o
 .group         0x00000000        0xc bin/obj/motor.o
 .group         0x00000000        0xc bin/obj/motor.o
 .group         0x00000000        0xc bin/obj/motor.o
 .group         0x00000000        0xc bin/obj/motor.o
 .group         0x00000000        0xc bin/obj/motor.o
 .group         0x00000000        0xc bin/obj/motor.o
 .group         0x00000000        0xc bin/obj/motor.o
 .group         0x00000000        0xc bin/obj/motor.o
 .group         0x00000000        0xc bin/obj/motor.o
 .group         0x00000000        0xc bin/obj/motor.o
 .group         0x00000000        0xc bin/obj/motor.o
 .group         0x00000000        0xc bin/obj/motor.o
 .group         0x00000000        0xc bin/obj/motor.o
 .group         0x00000000        0xc bin/obj/motor.o
 .group         0x00000000        0xc bin/obj/motor.o
 .group         0x00000000        0xc bin/obj/motor.o
 .group         0x00000000        0xc bin/obj/motor.o
 .group         0x00000000        0xc bin/obj/motor.o
 .group         0x00000000        0xc bin/obj/motor.o
 .group         0x00000000        0xc bin/obj/motor.o
 .group         0x00000000        0xc bin/obj/motor.o
 .group         0x00000000        0xc bin/obj/motor.o
 .group         0x00000000        0xc bin/obj/motor.o
 .group         0x00000000        0xc bin/obj/motor.o
 .group         0x00000000        0xc bin/obj/motor.o
 .group         0x00000000        0xc bin/obj/motor.o
 .group         0x00000000        0xc bin/obj/motor.o
 .debug_macro   0x00000000      0xaae bin/obj/motor.o
 .debug_macro   0x00000000       0x22 bin/obj/motor.o
 .debug_macro   0x00000000       0x52 bin/obj/motor.o
 .debug_macro   0x00000000       0x18 bin/obj/motor.o
 .debug_macro   0x00000000       0x5c bin/obj/motor.o
 .debug_macro   0x00000000       0x35 bin/obj/motor.o
 .debug_macro   0x00000000       0x34 bin/obj/motor.o
 .debug_macro   0x00000000      0x189 bin/obj/motor.o
 .debug_macro   0x00000000       0x16 bin/obj/motor.o
 .debug_macro   0x00000000       0x43 bin/obj/motor.o
 .debug_macro   0x00000000       0x57 bin/obj/motor.o
 .debug_macro   0x00000000       0x34 bin/obj/motor.o
 .debug_macro   0x00000000       0x10 bin/obj/motor.o
 .debug_macro   0x00000000       0x52 bin/obj/motor.o
 .debug_macro   0x00000000      0x182 bin/obj/motor.o
 .debug_macro   0x00000000      0x333 bin/obj/motor.o
 .debug_macro   0x00000000       0xde bin/obj/motor.o
 .debug_macro   0x00000000       0x16 bin/obj/motor.o
 .debug_macro   0x00000000       0x35 bin/obj/motor.o
 .debug_macro   0x00000000       0x1c bin/obj/motor.o
 .debug_macro   0x00000000       0x10 bin/obj/motor.o
 .debug_macro   0x00000000       0x10 bin/obj/motor.o
 .debug_macro   0x00000000       0x6a bin/obj/motor.o
 .debug_macro   0x00000000       0xb2 bin/obj/motor.o
 .debug_macro   0x00000000       0x16 bin/obj/motor.o
 .debug_macro   0x00000000      0x129 bin/obj/motor.o
 .debug_macro   0x00000000      0x34e bin/obj/motor.o
 .debug_macro   0x00000000      0x1c6 bin/obj/motor.o
 .debug_macro   0x00000000      0x15a bin/obj/motor.o
 .debug_macro   0x00000000       0xcf bin/obj/motor.o
 .debug_macro   0x00000000       0x22 bin/obj/motor.o
 .debug_macro   0x00000000       0x1f bin/obj/motor.o
 .debug_macro   0x00000000       0x12 bin/obj/motor.o
 .debug_macro   0x00000000      0x3ae bin/obj/motor.o
 .debug_macro   0x00000000       0x18 bin/obj/motor.o
 .debug_macro   0x00000000       0x6d bin/obj/motor.o
 .debug_macro   0x00000000       0xc3 bin/obj/motor.o
 .debug_macro   0x00000000      0x120 bin/obj/motor.o
 .debug_macro   0x00000000       0x80 bin/obj/motor.o
 .debug_macro   0x00000000       0x70 bin/obj/motor.o
 .debug_macro   0x00000000       0x97 bin/obj/motor.o
 .debug_macro   0x00000000       0x10 bin/obj/motor.o
 .debug_macro   0x00000000       0x8e bin/obj/motor.o
 .debug_macro   0x00000000       0xf4 bin/obj/motor.o
 .group         0x00000000        0xc bin/obj/port.o
 .group         0x00000000        0xc bin/obj/port.o
 .group         0x00000000        0xc bin/obj/port.o
 .group         0x00000000        0xc bin/obj/port.o
 .group         0x00000000        0xc bin/obj/port.o
 .group         0x00000000        0xc bin/obj/port.o
 .group         0x00000000        0xc bin/obj/port.o
 .group         0x00000000        0xc bin/obj/port.o
 .group         0x00000000        0xc bin/obj/port.o
 .group         0x00000000        0xc bin/obj/port.o
 .group         0x00000000        0xc bin/obj/port.o
 .group         0x00000000        0xc bin/obj/port.o
 .debug_macro   0x00000000      0xaae bin/obj/port.o
 .debug_macro   0x00000000      0x189 bin/obj/port.o
 .debug_macro   0x00000000      0x34e bin/obj/port.o
 .debug_macro   0x00000000      0x1c6 bin/obj/port.o
 .debug_macro   0x00000000      0x15a bin/obj/port.o
 .debug_macro   0x00000000       0xcf bin/obj/port.o
 .debug_macro   0x00000000       0x22 bin/obj/port.o
 .debug_macro   0x00000000       0x1f bin/obj/port.o
 .debug_macro   0x00000000       0x12 bin/obj/port.o
 .debug_macro   0x00000000      0x3ae bin/obj/port.o
 .debug_macro   0x00000000       0xc3 bin/obj/port.o
 .debug_macro   0x00000000      0x120 bin/obj/port.o
 .group         0x00000000        0xc bin/obj/queue.o
 .group         0x00000000        0xc bin/obj/queue.o
 .group         0x00000000        0xc bin/obj/queue.o
 .group         0x00000000        0xc bin/obj/queue.o
 .group         0x00000000        0xc bin/obj/queue.o
 .group         0x00000000        0xc bin/obj/queue.o
 .group         0x00000000        0xc bin/obj/queue.o
 .group         0x00000000        0xc bin/obj/queue.o
 .group         0x00000000        0xc bin/obj/queue.o
 .group         0x00000000        0xc bin/obj/queue.o
 .group         0x00000000        0xc bin/obj/queue.o
 .group         0x00000000        0xc bin/obj/queue.o
 .group         0x00000000        0xc bin/obj/queue.o
 .group         0x00000000        0xc bin/obj/queue.o
 .group         0x00000000        0xc bin/obj/queue.o
 .group         0x00000000        0xc bin/obj/queue.o
 .group         0x00000000        0xc bin/obj/queue.o
 .group         0x00000000        0xc bin/obj/queue.o
 .group         0x00000000        0xc bin/obj/queue.o
 .group         0x00000000        0xc bin/obj/queue.o
 .group         0x00000000        0xc bin/obj/queue.o
 .group         0x00000000        0xc bin/obj/queue.o
 .group         0x00000000        0xc bin/obj/queue.o
 .group         0x00000000        0xc bin/obj/queue.o
 .group         0x00000000        0xc bin/obj/queue.o
 .group         0x00000000        0xc bin/obj/queue.o
 .group         0x00000000        0xc bin/obj/queue.o
 .group         0x00000000        0xc bin/obj/queue.o
 .group         0x00000000        0xc bin/obj/queue.o
 .group         0x00000000        0xc bin/obj/queue.o
 .group         0x00000000        0xc bin/obj/queue.o
 .group         0x00000000        0xc bin/obj/queue.o
 .debug_macro   0x00000000      0xaae bin/obj/queue.o
 .debug_macro   0x00000000       0x18 bin/obj/queue.o
 .debug_macro   0x00000000       0x22 bin/obj/queue.o
 .debug_macro   0x00000000       0x52 bin/obj/queue.o
 .debug_macro   0x00000000       0x5c bin/obj/queue.o
 .debug_macro   0x00000000       0x35 bin/obj/queue.o
 .debug_macro   0x00000000       0x34 bin/obj/queue.o
 .debug_macro   0x00000000       0x16 bin/obj/queue.o
 .debug_macro   0x00000000      0x11c bin/obj/queue.o
 .debug_macro   0x00000000       0x94 bin/obj/queue.o
 .debug_macro   0x00000000       0x16 bin/obj/queue.o
 .debug_macro   0x00000000       0x43 bin/obj/queue.o
 .debug_macro   0x00000000       0x57 bin/obj/queue.o
 .debug_macro   0x00000000       0x34 bin/obj/queue.o
 .debug_macro   0x00000000       0x10 bin/obj/queue.o
 .debug_macro   0x00000000       0x52 bin/obj/queue.o
 .debug_macro   0x00000000      0x182 bin/obj/queue.o
 .debug_macro   0x00000000      0x333 bin/obj/queue.o
 .debug_macro   0x00000000       0x22 bin/obj/queue.o
 .debug_macro   0x00000000       0x16 bin/obj/queue.o
 .debug_macro   0x00000000       0x35 bin/obj/queue.o
 .debug_macro   0x00000000      0x34e bin/obj/queue.o
 .debug_macro   0x00000000      0x1c6 bin/obj/queue.o
 .debug_macro   0x00000000      0x15a bin/obj/queue.o
 .debug_macro   0x00000000       0xcf bin/obj/queue.o
 .debug_macro   0x00000000       0x22 bin/obj/queue.o
 .debug_macro   0x00000000       0x1f bin/obj/queue.o
 .debug_macro   0x00000000       0x12 bin/obj/queue.o
 .debug_macro   0x00000000      0x3ae bin/obj/queue.o
 .debug_macro   0x00000000       0xc3 bin/obj/queue.o
 .debug_macro   0x00000000      0x120 bin/obj/queue.o
 .debug_macro   0x00000000       0x80 bin/obj/queue.o
 .group         0x00000000        0xc bin/obj/rcc.o
 .group         0x00000000        0xc bin/obj/rcc.o
 .group         0x00000000        0xc bin/obj/rcc.o
 .group         0x00000000        0xc bin/obj/rcc.o
 .group         0x00000000        0xc bin/obj/rcc.o
 .group         0x00000000        0xc bin/obj/rcc.o
 .group         0x00000000        0xc bin/obj/rcc.o
 .debug_macro   0x00000000      0xaae bin/obj/rcc.o
 .debug_macro   0x00000000      0x189 bin/obj/rcc.o
 .debug_macro   0x00000000      0x34e bin/obj/rcc.o
 .debug_macro   0x00000000       0x10 bin/obj/rcc.o
 .debug_macro   0x00000000       0x52 bin/obj/rcc.o
 .debug_macro   0x00000000       0xe8 bin/obj/rcc.o
 .group         0x00000000        0xc bin/obj/stream_buffer.o
 .group         0x00000000        0xc bin/obj/stream_buffer.o
 .group         0x00000000        0xc bin/obj/stream_buffer.o
 .group         0x00000000        0xc bin/obj/stream_buffer.o
 .group         0x00000000        0xc bin/obj/stream_buffer.o
 .group         0x00000000        0xc bin/obj/stream_buffer.o
 .group         0x00000000        0xc bin/obj/stream_buffer.o
 .group         0x00000000        0xc bin/obj/stream_buffer.o
 .group         0x00000000        0xc bin/obj/stream_buffer.o
 .group         0x00000000        0xc bin/obj/stream_buffer.o
 .group         0x00000000        0xc bin/obj/stream_buffer.o
 .group         0x00000000        0xc bin/obj/stream_buffer.o
 .group         0x00000000        0xc bin/obj/stream_buffer.o
 .group         0x00000000        0xc bin/obj/stream_buffer.o
 .group         0x00000000        0xc bin/obj/stream_buffer.o
 .group         0x00000000        0xc bin/obj/stream_buffer.o
 .group         0x00000000        0xc bin/obj/stream_buffer.o
 .group         0x00000000        0xc bin/obj/stream_buffer.o
 .group         0x00000000        0xc bin/obj/stream_buffer.o
 .group         0x00000000        0xc bin/obj/stream_buffer.o
 .group         0x00000000        0xc bin/obj/stream_buffer.o
 .group         0x00000000        0xc bin/obj/stream_buffer.o
 .group         0x00000000        0xc bin/obj/stream_buffer.o
 .group         0x00000000        0xc bin/obj/stream_buffer.o
 .group         0x00000000        0xc bin/obj/stream_buffer.o
 .group         0x00000000        0xc bin/obj/stream_buffer.o
 .group         0x00000000        0xc bin/obj/stream_buffer.o
 .group         0x00000000        0xc bin/obj/stream_buffer.o
 .group         0x00000000        0xc bin/obj/stream_buffer.o
 .debug_macro   0x00000000      0xaae bin/obj/stream_buffer.o
 .debug_macro   0x00000000      0x34e bin/obj/stream_buffer.o
 .debug_macro   0x00000000       0x22 bin/obj/stream_buffer.o
 .debug_macro   0x00000000       0x52 bin/obj/stream_buffer.o
 .debug_macro   0x00000000       0x18 bin/obj/stream_buffer.o
 .debug_macro   0x00000000       0x5c bin/obj/stream_buffer.o
 .debug_macro   0x00000000       0x35 bin/obj/stream_buffer.o
 .debug_macro   0x00000000       0x34 bin/obj/stream_buffer.o
 .debug_macro   0x00000000      0x189 bin/obj/stream_buffer.o
 .debug_macro   0x00000000       0x16 bin/obj/stream_buffer.o
 .debug_macro   0x00000000       0x43 bin/obj/stream_buffer.o
 .debug_macro   0x00000000       0x57 bin/obj/stream_buffer.o
 .debug_macro   0x00000000       0x34 bin/obj/stream_buffer.o
 .debug_macro   0x00000000       0x10 bin/obj/stream_buffer.o
 .debug_macro   0x00000000       0x52 bin/obj/stream_buffer.o
 .debug_macro   0x00000000      0x182 bin/obj/stream_buffer.o
 .debug_macro   0x00000000      0x333 bin/obj/stream_buffer.o
 .debug_macro   0x00000000       0x10 bin/obj/stream_buffer.o
 .debug_macro   0x00000000       0x35 bin/obj/stream_buffer.o
 .debug_macro   0x00000000      0x1c6 bin/obj/stream_buffer.o
 .debug_macro   0x00000000      0x15a bin/obj/stream_buffer.o
 .debug_macro   0x00000000       0xcf bin/obj/stream_buffer.o
 .debug_macro   0x00000000       0x22 bin/obj/stream_buffer.o
 .debug_macro   0x00000000       0x1f bin/obj/stream_buffer.o
 .debug_macro   0x00000000       0x12 bin/obj/stream_buffer.o
 .debug_macro   0x00000000      0x3ae bin/obj/stream_buffer.o
 .debug_macro   0x00000000       0xc3 bin/obj/stream_buffer.o
 .debug_macro   0x00000000      0x120 bin/obj/stream_buffer.o
 .debug_macro   0x00000000       0x18 bin/obj/stream_buffer.o
 .group         0x00000000        0xc bin/obj/sys.o
 .group         0x00000000        0xc bin/obj/sys.o
 .group         0x00000000        0xc bin/obj/sys.o
 .group         0x00000000        0xc bin/obj/sys.o
 .group         0x00000000        0xc bin/obj/sys.o
 .group         0x00000000        0xc bin/obj/sys.o
 .group         0x00000000        0xc bin/obj/sys.o
 .group         0x00000000        0xc bin/obj/sys.o
 .group         0x00000000        0xc bin/obj/sys.o
 .group         0x00000000        0xc bin/obj/sys.o
 .group         0x00000000        0xc bin/obj/sys.o
 .group         0x00000000        0xc bin/obj/sys.o
 .group         0x00000000        0xc bin/obj/sys.o
 .group         0x00000000        0xc bin/obj/sys.o
 .group         0x00000000        0xc bin/obj/sys.o
 .group         0x00000000        0xc bin/obj/sys.o
 .group         0x00000000        0xc bin/obj/sys.o
 .group         0x00000000        0xc bin/obj/sys.o
 .group         0x00000000        0xc bin/obj/sys.o
 .group         0x00000000        0xc bin/obj/sys.o
 .group         0x00000000        0xc bin/obj/sys.o
 .group         0x00000000        0xc bin/obj/sys.o
 .group         0x00000000        0xc bin/obj/sys.o
 .group         0x00000000        0xc bin/obj/sys.o
 .group         0x00000000        0xc bin/obj/sys.o
 .group         0x00000000        0xc bin/obj/sys.o
 .group         0x00000000        0xc bin/obj/sys.o
 .group         0x00000000        0xc bin/obj/sys.o
 .group         0x00000000        0xc bin/obj/sys.o
 .debug_macro   0x00000000      0xaae bin/obj/sys.o
 .debug_macro   0x00000000      0x1c6 bin/obj/sys.o
 .debug_macro   0x00000000      0x189 bin/obj/sys.o
 .debug_macro   0x00000000      0x34e bin/obj/sys.o
 .debug_macro   0x00000000      0x15a bin/obj/sys.o
 .debug_macro   0x00000000       0xcf bin/obj/sys.o
 .debug_macro   0x00000000       0x22 bin/obj/sys.o
 .debug_macro   0x00000000       0x1f bin/obj/sys.o
 .debug_macro   0x00000000       0x12 bin/obj/sys.o
 .debug_macro   0x00000000      0x3ae bin/obj/sys.o
 .debug_macro   0x00000000       0x18 bin/obj/sys.o
 .debug_macro   0x00000000       0xc3 bin/obj/sys.o
 .debug_macro   0x00000000      0x120 bin/obj/sys.o
 .debug_macro   0x00000000       0x91 bin/obj/sys.o
 .debug_macro   0x00000000       0x19 bin/obj/sys.o
 .debug_macro   0x00000000       0x86 bin/obj/sys.o
 .debug_macro   0x00000000       0x70 bin/obj/sys.o
 .debug_macro   0x00000000       0x22 bin/obj/sys.o
 .debug_macro   0x00000000       0x10 bin/obj/sys.o
 .debug_macro   0x00000000       0x52 bin/obj/sys.o
 .debug_macro   0x00000000       0x8e bin/obj/sys.o
 .debug_macro   0x00000000       0x6a bin/obj/sys.o
 .debug_macro   0x00000000      0x323 bin/obj/sys.o
 .debug_macro   0x00000000       0x64 bin/obj/sys.o
 .debug_macro   0x00000000       0xe8 bin/obj/sys.o
 .debug_macro   0x00000000       0xf4 bin/obj/sys.o
 .debug_macro   0x00000000       0x16 bin/obj/sys.o
 .debug_macro   0x00000000       0x34 bin/obj/sys.o
 .debug_macro   0x00000000       0x6a bin/obj/sys.o
 .group         0x00000000        0xc bin/obj/tasks.o
 .group         0x00000000        0xc bin/obj/tasks.o
 .group         0x00000000        0xc bin/obj/tasks.o
 .group         0x00000000        0xc bin/obj/tasks.o
 .group         0x00000000        0xc bin/obj/tasks.o
 .group         0x00000000        0xc bin/obj/tasks.o
 .group         0x00000000        0xc bin/obj/tasks.o
 .group         0x00000000        0xc bin/obj/tasks.o
 .group         0x00000000        0xc bin/obj/tasks.o
 .group         0x00000000        0xc bin/obj/tasks.o
 .group         0x00000000        0xc bin/obj/tasks.o
 .group         0x00000000        0xc bin/obj/tasks.o
 .group         0x00000000        0xc bin/obj/tasks.o
 .group         0x00000000        0xc bin/obj/tasks.o
 .group         0x00000000        0xc bin/obj/tasks.o
 .group         0x00000000        0xc bin/obj/tasks.o
 .group         0x00000000        0xc bin/obj/tasks.o
 .group         0x00000000        0xc bin/obj/tasks.o
 .group         0x00000000        0xc bin/obj/tasks.o
 .group         0x00000000        0xc bin/obj/tasks.o
 .group         0x00000000        0xc bin/obj/tasks.o
 .group         0x00000000        0xc bin/obj/tasks.o
 .group         0x00000000        0xc bin/obj/tasks.o
 .group         0x00000000        0xc bin/obj/tasks.o
 .group         0x00000000        0xc bin/obj/tasks.o
 .group         0x00000000        0xc bin/obj/tasks.o
 .group         0x00000000        0xc bin/obj/tasks.o
 .group         0x00000000        0xc bin/obj/tasks.o
 .group         0x00000000        0xc bin/obj/tasks.o
 .group         0x00000000        0xc bin/obj/tasks.o
 .group         0x00000000        0xc bin/obj/tasks.o
 .group         0x00000000        0xc bin/obj/tasks.o
 .group         0x00000000        0xc bin/obj/tasks.o
 .debug_macro   0x00000000      0xaae bin/obj/tasks.o
 .debug_macro   0x00000000       0x18 bin/obj/tasks.o
 .debug_macro   0x00000000       0x22 bin/obj/tasks.o
 .debug_macro   0x00000000       0x52 bin/obj/tasks.o
 .debug_macro   0x00000000       0x5c bin/obj/tasks.o
 .debug_macro   0x00000000       0x35 bin/obj/tasks.o
 .debug_macro   0x00000000       0x34 bin/obj/tasks.o
 .debug_macro   0x00000000       0x16 bin/obj/tasks.o
 .debug_macro   0x00000000      0x11c bin/obj/tasks.o
 .debug_macro   0x00000000       0x94 bin/obj/tasks.o
 .debug_macro   0x00000000       0x16 bin/obj/tasks.o
 .debug_macro   0x00000000       0x43 bin/obj/tasks.o
 .debug_macro   0x00000000       0x57 bin/obj/tasks.o
 .debug_macro   0x00000000       0x34 bin/obj/tasks.o
 .debug_macro   0x00000000       0x10 bin/obj/tasks.o
 .debug_macro   0x00000000       0x52 bin/obj/tasks.o
 .debug_macro   0x00000000      0x182 bin/obj/tasks.o
 .debug_macro   0x00000000      0x333 bin/obj/tasks.o
 .debug_macro   0x00000000       0x22 bin/obj/tasks.o
 .debug_macro   0x00000000       0x16 bin/obj/tasks.o
 .debug_macro   0x00000000       0x35 bin/obj/tasks.o
 .debug_macro   0x00000000      0x34e bin/obj/tasks.o
 .debug_macro   0x00000000      0x1c6 bin/obj/tasks.o
 .debug_macro   0x00000000      0x15a bin/obj/tasks.o
 .debug_macro   0x00000000       0xcf bin/obj/tasks.o
 .debug_macro   0x00000000       0x22 bin/obj/tasks.o
 .debug_macro   0x00000000       0x1f bin/obj/tasks.o
 .debug_macro   0x00000000       0x12 bin/obj/tasks.o
 .debug_macro   0x00000000      0x3ae bin/obj/tasks.o
 .debug_macro   0x00000000       0xc3 bin/obj/tasks.o
 .debug_macro   0x00000000      0x120 bin/obj/tasks.o
 .debug_macro   0x00000000       0x91 bin/obj/tasks.o
 .group         0x00000000        0xc bin/obj/timers.o
 .group         0x00000000        0xc bin/obj/timers.o
 .group         0x00000000        0xc bin/obj/timers.o
 .group         0x00000000        0xc bin/obj/timers.o
 .group         0x00000000        0xc bin/obj/timers.o
 .group         0x00000000        0xc bin/obj/timers.o
 .group         0x00000000        0xc bin/obj/timers.o
 .group         0x00000000        0xc bin/obj/timers.o
 .group         0x00000000        0xc bin/obj/timers.o
 .group         0x00000000        0xc bin/obj/timers.o
 .group         0x00000000        0xc bin/obj/timers.o
 .group         0x00000000        0xc bin/obj/timers.o
 .group         0x00000000        0xc bin/obj/timers.o
 .group         0x00000000        0xc bin/obj/timers.o
 .group         0x00000000        0xc bin/obj/timers.o
 .group         0x00000000        0xc bin/obj/timers.o
 .group         0x00000000        0xc bin/obj/timers.o
 .group         0x00000000        0xc bin/obj/timers.o
 .group         0x00000000        0xc bin/obj/timers.o
 .group         0x00000000        0xc bin/obj/timers.o
 .group         0x00000000        0xc bin/obj/timers.o
 .group         0x00000000        0xc bin/obj/timers.o
 .group         0x00000000        0xc bin/obj/timers.o
 .group         0x00000000        0xc bin/obj/timers.o
 .group         0x00000000        0xc bin/obj/timers.o
 .group         0x00000000        0xc bin/obj/timers.o
 .group         0x00000000        0xc bin/obj/timers.o
 .group         0x00000000        0xc bin/obj/timers.o
 .group         0x00000000        0xc bin/obj/timers.o
 .group         0x00000000        0xc bin/obj/timers.o
 .group         0x00000000        0xc bin/obj/timers.o
 .debug_macro   0x00000000      0xaae bin/obj/timers.o
 .debug_macro   0x00000000       0x18 bin/obj/timers.o
 .debug_macro   0x00000000       0x22 bin/obj/timers.o
 .debug_macro   0x00000000       0x52 bin/obj/timers.o
 .debug_macro   0x00000000       0x5c bin/obj/timers.o
 .debug_macro   0x00000000       0x35 bin/obj/timers.o
 .debug_macro   0x00000000       0x34 bin/obj/timers.o
 .debug_macro   0x00000000       0x16 bin/obj/timers.o
 .debug_macro   0x00000000      0x11c bin/obj/timers.o
 .debug_macro   0x00000000       0x94 bin/obj/timers.o
 .debug_macro   0x00000000       0x16 bin/obj/timers.o
 .debug_macro   0x00000000       0x43 bin/obj/timers.o
 .debug_macro   0x00000000       0x57 bin/obj/timers.o
 .debug_macro   0x00000000       0x34 bin/obj/timers.o
 .debug_macro   0x00000000       0x10 bin/obj/timers.o
 .debug_macro   0x00000000       0x52 bin/obj/timers.o
 .debug_macro   0x00000000      0x182 bin/obj/timers.o
 .debug_macro   0x00000000      0x333 bin/obj/timers.o
 .debug_macro   0x00000000       0x22 bin/obj/timers.o
 .debug_macro   0x00000000      0x34e bin/obj/timers.o
 .debug_macro   0x00000000      0x1c6 bin/obj/timers.o
 .debug_macro   0x00000000      0x15a bin/obj/timers.o
 .debug_macro   0x00000000       0xcf bin/obj/timers.o
 .debug_macro   0x00000000       0x22 bin/obj/timers.o
 .debug_macro   0x00000000       0x1f bin/obj/timers.o
 .debug_macro   0x00000000       0x12 bin/obj/timers.o
 .debug_macro   0x00000000      0x3ae bin/obj/timers.o
 .debug_macro   0x00000000       0xc3 bin/obj/timers.o
 .debug_macro   0x00000000      0x120 bin/obj/timers.o
 .debug_macro   0x00000000       0x80 bin/obj/timers.o
 .debug_macro   0x00000000       0x97 bin/obj/timers.o
 .group         0x00000000        0xc bin/obj/usart.o
 .group         0x00000000        0xc bin/obj/usart.o
 .group         0x00000000        0xc bin/obj/usart.o
 .group         0x00000000        0xc bin/obj/usart.o
 .group         0x00000000        0xc bin/obj/usart.o
 .group         0x00000000        0xc bin/obj/usart.o
 .group         0x00000000        0xc bin/obj/usart.o
 .group         0x00000000        0xc bin/obj/usart.o
 .group         0x00000000        0xc bin/obj/usart.o
 .group         0x00000000        0xc bin/obj/usart.o
 .group         0x00000000        0xc bin/obj/usart.o
 .group         0x00000000        0xc bin/obj/usart.o
 .group         0x00000000        0xc bin/obj/usart.o
 .group         0x00000000        0xc bin/obj/usart.o
 .group         0x00000000        0xc bin/obj/usart.o
 .group         0x00000000        0xc bin/obj/usart.o
 .group         0x00000000        0xc bin/obj/usart.o
 .group         0x00000000        0xc bin/obj/usart.o
 .group         0x00000000        0xc bin/obj/usart.o
 .group         0x00000000        0xc bin/obj/usart.o
 .group         0x00000000        0xc bin/obj/usart.o
 .group         0x00000000        0xc bin/obj/usart.o
 .group         0x00000000        0xc bin/obj/usart.o
 .group         0x00000000        0xc bin/obj/usart.o
 .group         0x00000000        0xc bin/obj/usart.o
 .group         0x00000000        0xc bin/obj/usart.o
 .debug_macro   0x00000000      0xaae bin/obj/usart.o
 .debug_macro   0x00000000      0x189 bin/obj/usart.o
 .debug_macro   0x00000000      0x34e bin/obj/usart.o
 .debug_macro   0x00000000      0x1c6 bin/obj/usart.o
 .debug_macro   0x00000000      0x15a bin/obj/usart.o
 .debug_macro   0x00000000       0xcf bin/obj/usart.o
 .debug_macro   0x00000000       0x22 bin/obj/usart.o
 .debug_macro   0x00000000       0x1f bin/obj/usart.o
 .debug_macro   0x00000000       0x12 bin/obj/usart.o
 .debug_macro   0x00000000      0x3ae bin/obj/usart.o
 .debug_macro   0x00000000       0xc3 bin/obj/usart.o
 .debug_macro   0x00000000      0x120 bin/obj/usart.o
 .debug_macro   0x00000000       0x18 bin/obj/usart.o
 .debug_macro   0x00000000       0x91 bin/obj/usart.o
 .debug_macro   0x00000000       0x19 bin/obj/usart.o
 .debug_macro   0x00000000       0x86 bin/obj/usart.o
 .debug_macro   0x00000000       0x70 bin/obj/usart.o
 .debug_macro   0x00000000       0x6a bin/obj/usart.o
 .debug_macro   0x00000000       0x10 bin/obj/usart.o
 .debug_macro   0x00000000       0x52 bin/obj/usart.o
 .debug_macro   0x00000000       0x8e bin/obj/usart.o
 .debug_macro   0x00000000       0xe8 bin/obj/usart.o
 .debug_macro   0x00000000       0x64 bin/obj/usart.o
 .debug_macro   0x00000000       0xf4 bin/obj/usart.o
 .debug_macro   0x00000000       0x22 bin/obj/usart.o
 .debug_macro   0x00000000      0x323 bin/obj/usart.o

Memory Configuration

Name             Origin             Length             Attributes
FLASH            0x08000000         0x00080000         xr
RAM              0x20000000         0x00020000         xrw
*default*        0x00000000         0xffffffff

Linker script and memory map

LOAD bin/obj/adc.o
LOAD bin/obj/bno055.o
LOAD bin/obj/croutine.o
LOAD bin/obj/dialog.o
LOAD bin/obj/dma.o
LOAD bin/obj/event_groups.o
LOAD bin/obj/exti.o
LOAD bin/obj/gpio.o
LOAD bin/obj/heap.o
LOAD bin/obj/i2c.o
LOAD bin/obj/list.o
LOAD bin/obj/main.o
LOAD bin/obj/mems.o
LOAD bin/obj/motor.o
LOAD bin/obj/port.o
LOAD bin/obj/queue.o
LOAD bin/obj/rcc.o
LOAD bin/obj/stream_buffer.o
LOAD bin/obj/sys.o
LOAD bin/obj/tasks.o
LOAD bin/obj/timers.o
LOAD bin/obj/usart.o
LOAD /usr/lib/gcc/arm-none-eabi/12.2.1/../../../arm-none-eabi/lib/thumb/v7e-m+fp/hard/libm.a
LOAD /usr/lib/gcc/arm-none-eabi/12.2.1/../../../arm-none-eabi/lib/thumb/v7e-m+fp/hard/libg.a
LOAD /usr/lib/gcc/arm-none-eabi/12.2.1/../../../arm-none-eabi/lib/thumb/v7e-m+fp/hard/libc.a
START GROUP
LOAD /usr/lib/gcc/arm-none-eabi/12.2.1/thumb/v7e-m+fp/hard/libgcc.a
LOAD /usr/lib/gcc/arm-none-eabi/12.2.1/../../../arm-none-eabi/lib/thumb/v7e-m+fp/hard/libg.a
LOAD /usr/lib/gcc/arm-none-eabi/12.2.1/../../../arm-none-eabi/lib/thumb/v7e-m+fp/hard/libc.a
END GROUP
START GROUP
LOAD /usr/lib/gcc/arm-none-eabi/12.2.1/thumb/v7e-m+fp/hard/libgcc.a
LOAD /usr/lib/gcc/arm-none-eabi/12.2.1/../../../arm-none-eabi/lib/thumb/v7e-m+fp/hard/libc.a
LOAD /usr/lib/gcc/arm-none-eabi/12.2.1/../../../arm-none-eabi/lib/thumb/v7e-m+fp/hard/libnosys.a
END GROUP
                0x00000200                        STACK_SIZE = 0x200
                0x20020000                        _estack = (ORIGIN (RAM) + LENGTH (RAM))
                0x2001fe00                        _sstack = (_estack - STACK_SIZE)

.text           0x08000000    0x15538
                0x08000000                        _stext = .
 *(.vector_table)
 .vector_table  0x08000000      0x200 bin/obj/sys.o
                0x08000000                vector_table
 *(.text)
 .text          0x08000200       0x74 bin/obj/adc.o
                0x08000200                ADC_init_all
                0x0800021c                ADC_init
                0x08000230                ADC_reset
                0x08000244                ADC_select_channel
 .text          0x08000274      0x1e8 bin/obj/bno055.o
                0x08000274                BNO055_init
                0x08000296                BNO055_write
                0x0800037c                BNO055_read
 .text          0x0800045c        0x0 bin/obj/croutine.o
 .text          0x0800045c       0xc8 bin/obj/dialog.o
                0x0800045c                fct
                0x0800046a                taskDialog
 .text          0x08000524      0x568 bin/obj/dma.o
                0x08000524                DMA_init_all
                0x08000532                DMA_init
                0x0800054e                DMA_CHANNEL_init
                0x0800059a                DMA_CHANNEL_get_flags
                0x08000688                DMA_CHANNEL_clr_flags
                0x0800079a                DMA1_Ch0_Handler
                0x080007c8                DMA1_Ch1_Handler
                0x080007f4                DMA1_Ch2_Handler
                0x08000820                DMA1_Ch3_Handler
                0x0800084c                DMA1_Ch4_Handler
                0x08000878                DMA1_Ch5_Handler
                0x080008a4                DMA1_Ch6_Handler
                0x080008d0                DMA1_Ch7_Handler
                0x080008fc                DMA2_Ch0_Handler
                0x0800092c                DMA2_Ch1_Handler
                0x0800095c                DMA2_Ch2_Handler
                0x0800098c                DMA2_Ch3_Handler
                0x080009bc                DMA2_Ch4_Handler
                0x080009fc                DMA2_Ch5_Handler
                0x08000a2c                DMA2_Ch6_Handler
                0x08000a5c                DMA2_Ch7_Handler
 .text          0x08000a8c      0x600 bin/obj/event_groups.o
                0x08000a8c                xEventGroupCreate
                0x08000aba                xEventGroupSync
                0x08000c1c                xEventGroupWaitBits
                0x08000dc0                xEventGroupClearBits
                0x08000e32                xEventGroupGetBitsFromISR
                0x08000e7a                xEventGroupSetBits
                0x08000f92                vEventGroupDelete
                0x08001014                vEventGroupSetBitsCallback
                0x0800102e                vEventGroupClearBitsCallback
 .text          0x0800108c      0x344 bin/obj/exti.o
                0x0800108c                EXTI_Select_Edges
                0x08001110                EXTI_Select_srce_input
                0x08001160                EXTI_Intr_enable_line
                0x080011ac                EXTI_Event_enable_line
                0x080011f8                EXTI0_Handler
                0x08001218                EXTI1_Handler
                0x08001228                EXTI2_Handler
                0x08001238                EXTI3_Handler
                0x08001248                EXTI4_Handler
                0x08001258                EXTI5_9_Handler
                0x080012f8                EXTI10_15_Handler
 .text          0x080013d0      0x392 bin/obj/gpio.o
                0x080013d0                GPIO_init_pin_input
                0x08001444                GPIO_init_pin_output
                0x0800152a                GPIO_init_pin_altfct
                0x0800167a                GPIO_init_pin_adc
                0x08001704                GPIO_init_pin_unused
 *fill*         0x08001762        0x2 
 .text          0x08001764      0x500 bin/obj/heap.o
                0x08001764                pvPortMalloc
                0x08001928                vPortFree
                0x080019f0                xPortGetFreeHeapSize
                0x08001a08                xPortGetMinimumEverFreeHeapSize
                0x08001a20                vPortInitialiseBlocks
                0x08001ba8                vPortGetHeapStats
 .text          0x08001c64      0x3b8 bin/obj/i2c.o
                0x08001c64                I2C_init_all
                0x08001d6c                I2C_init
                0x08001dda                I2C_set_std_speed
                0x08001dee                I2C_set_fast_speed
                0x08001e02                I2C_enable
                0x08001ea8                I2C_transfer
                0x08001f44                I2C_event
                0x08001f50                I2C_error
                0x08001f5c                I2C1_Event
                0x08001f84                I2C2_Event
                0x08001f94                I2C3_Event
                0x08001fbc                I2C1_Error
                0x08001fe4                I2C2_Error
                0x08001ff4                I2C3_Error
 .text          0x0800201c      0x168 bin/obj/list.o
                0x0800201c                vListInitialise
                0x0800205c                vListInitialiseItem
                0x08002076                vListInsertEnd
                0x080020be                vListInsert
                0x08002130                uxListRemove
 .text          0x08002184      0x130 bin/obj/main.o
                0x08002184                vTimerCallback
                0x080021a8                TaskMain
                0x08002288                main
 .text          0x080022b4      0x2f4 bin/obj/mems.o
                0x080022b4                timerMEMsCallback
                0x080022dc                taskMEMs
 .text          0x080025a8      0x15c bin/obj/motor.o
                0x080025a8                LetInTheClutch
                0x080025c8                letOutTheClutch
                0x080025e8                runMotorToPort
                0x08002604                stopMotor
                0x08002620                runMotorToStarboard
                0x08002668                taskMotor
 *fill*         0x08002704        0xc 
 .text          0x08002710      0x498 bin/obj/port.o
                0x08002710                pxPortInitialiseStack
                0x080027d4                vPortSVCHandler
                0x0800281e                xPortStartScheduler
                0x08002944                vPortEndScheduler
                0x0800297c                vPortEnterCritical
                0x080029e0                vPortExitCritical
                0x08002a34                xPortPendSVHandler
                0x08002a96                xPortSysTickHandler
                0x08002adc                vPortSetupTimerInterrupt
                0x08002b26                vPortValidateInterruptPriority
 .text          0x08002ba8     0x147c bin/obj/queue.o
                0x08002ba8                xQueueGenericReset
                0x08002ccc                xQueueGenericCreate
                0x08002ddc                xQueueCreateMutex
                0x08002e0c                xQueueGenericSend
                0x08003010                xQueueGenericSendFromISR
                0x0800316c                xQueueGiveFromISR
                0x080032ac                xQueueReceive
                0x08003470                xQueueSemaphoreTake
                0x08003690                xQueuePeek
                0x08003858                xQueueReceiveFromISR
                0x0800397c                xQueuePeekFromISR
                0x08003a54                uxQueueMessagesWaiting
                0x08003a92                uxQueueSpacesAvailable
                0x08003ada                uxQueueMessagesWaitingFromISR
                0x08003b18                vQueueDelete
                0x08003d76                xQueueIsQueueEmptyFromISR
                0x08003df0                xQueueIsQueueFullFromISR
                0x08003e3e                vQueueAddToRegistry
                0x08003edc                pcQueueGetName
                0x08003f48                vQueueUnregisterQueue
                0x08003fbc                vQueueWaitForMessageRestricted
 .text          0x08004024       0xac bin/obj/rcc.o
                0x08004024                RCC_init_for_nauteff
 .text          0x080040d0      0xcde bin/obj/stream_buffer.o
                0x080040d0                xStreamBufferGenericCreate
                0x0800419a                vStreamBufferDelete
                0x080041ea                xStreamBufferReset
                0x08004258                xStreamBufferSetTriggerLevel
                0x080042b6                xStreamBufferSpacesAvailable
                0x0800432e                xStreamBufferBytesAvailable
                0x0800436a                xStreamBufferSend
                0x0800450c                xStreamBufferSendFromISR
                0x08004662                xStreamBufferReceive
                0x08004798                xStreamBufferNextMessageLengthBytes
                0x08004824                xStreamBufferReceiveFromISR
                0x08004980                xStreamBufferIsEmpty
                0x080049d2                xStreamBufferIsFull
                0x08004a34                xStreamBufferSendCompletedFromISR
                0x08004ac0                xStreamBufferReceiveCompletedFromISR
 *fill*         0x08004dae        0x2 
 .text          0x08004db0      0x594 bin/obj/sys.o
                0x08004db0                start
                0x080052a8                FPU_enable
                0x080052c8                sys_init_DMA
                0x080052d6                sys_init_USART1
                0x080052e4                sys_init_EXTI
                0x080052f2                NMI_Handler
                0x08005302                HardFault_Handler
                0x08005312                MemManage_Handler
                0x08005322                BusFault_Handler
                0x08005332                UsageFault_Handler
 .text          0x08005344     0x2910 bin/obj/tasks.o
                0x08005344                xTaskCreate
                0x08005638                vTaskDelete
                0x08005728                xTaskDelayUntil
                0x0800582c                vTaskDelay
                0x08005898                uxTaskPriorityGet
                0x080058cc                uxTaskPriorityGetFromISR
                0x08005924                vTaskPrioritySet
                0x08005ab4                vTaskSuspend
                0x08005c20                vTaskResume
                0x08005d30                xTaskResumeFromISR
                0x08005e70                vTaskStartScheduler
                0x08005f14                vTaskEndScheduler
                0x08005f44                vTaskSuspendAll
                0x08005f60                xTaskResumeAll
                0x0800615c                xTaskGetTickCount
                0x0800617c                xTaskGetTickCountFromISR
                0x080061a0                uxTaskGetNumberOfTasks
                0x080061b8                pcTaskGetName
                0x08006204                xTaskCatchUpTicks
                0x08006254                xTaskIncrementTick
                0x08006468                vTaskSwitchContext
                0x08006524                vTaskPlaceOnEventList
                0x08006570                vTaskPlaceOnUnorderedEventList
                0x08006620                vTaskPlaceOnEventListRestricted
                0x080066ac                xTaskRemoveFromEventList
                0x0800685c                vTaskRemoveFromUnorderedEventList
                0x080069e4                vTaskSetTimeOutState
                0x08006a34                vTaskInternalSetTimeOutState
                0x08006a60                xTaskCheckForTimeOut
                0x08006b30                vTaskMissedYield
                0x08006b78                vTaskSetThreadLocalStoragePointer
                0x08006bd8                pvTaskGetThreadLocalStoragePointer
                0x08006d58                xTaskGetCurrentTaskHandle
                0x08006d78                xTaskGetSchedulerState
                0x08006db4                xTaskPriorityInherit
                0x08006ed4                xTaskPriorityDisinherit
                0x08007004                vTaskPriorityDisinheritAfterTimeout
                0x0800715c                uxTaskResetEventItemValue
                0x0800718c                pvTaskIncrementMutexHeldCount
                0x080071b4                ulTaskGenericNotifyTake
                0x08007284                xTaskGenericNotifyWait
                0x08007384                xTaskGenericNotify
                0x080075d4                xTaskGenericNotifyFromISR
                0x08007894                vTaskGenericNotifyGiveFromISR
                0x08007aa8                xTaskGenericNotifyStateClear
                0x08007b1c                ulTaskGenericNotifyValueClear
 .text          0x08007c54      0x8e0 bin/obj/timers.o
                0x08007c54                xTimerCreateTimerTask
                0x08007cb8                xTimerCreate
                0x08007d6c                xTimerGenericCommand
                0x08007e08                xTimerGetTimerDaemonTaskHandle
                0x08007e44                xTimerGetPeriod
                0x08007e7e                vTimerSetReloadMode
                0x08007ee6                uxTimerGetReloadMode
                0x08007f3a                xTimerGetExpiryTime
                0x08007f78                pcTimerGetName
                0x0800845c                xTimerIsTimerActive
                0x080084b0                pvTimerGetTimerID
                0x080084f2                vTimerSetTimerID
 .text          0x08008534      0x51c bin/obj/usart.o
                0x08008534                USART_init_all
                0x08008568                USART_init
                0x080085f8                USART_reset
                0x0800860c                USART_set_baudrate
                0x08008664                USART_set_stop_bits
                0x080086aa                USART_set_word_length
                0x08008716                USART_write
                0x080087a8                USART_read
                0x0800884e                USART_flush_rx_buffer
                0x080088b0                USART_Event_Handler
                0x080089b0                USART1_Event
                0x080089d4                USART2_Event
                0x080089ea                USART3_Event
                0x08008a00                USART4_Event
                0x08008a16                USART5_Event
                0x08008a38                USART6_Event
 .text          0x08008a50       0x74 /usr/lib/gcc/arm-none-eabi/12.2.1/../../../arm-none-eabi/lib/thumb/v7e-m+fp/hard/libm.a(lib_a-w_sqrt.o)
                0x08008a50                sqrt
 .text          0x08008ac4      0x198 /usr/lib/gcc/arm-none-eabi/12.2.1/../../../arm-none-eabi/lib/thumb/v7e-m+fp/hard/libm.a(lib_a-e_sqrt.o)
                0x08008ac4                __ieee754_sqrt
 .text          0x08008c5c        0x0 /usr/lib/gcc/arm-none-eabi/12.2.1/../../../arm-none-eabi/lib/thumb/v7e-m+fp/hard/libm.a(lib_a-s_lib_ver.o)
 .text          0x08008c5c        0x0 /usr/lib/gcc/arm-none-eabi/12.2.1/../../../arm-none-eabi/lib/thumb/v7e-m+fp/hard/libg.a(lib_a-ctype_.o)
 .text          0x08008c5c        0xc /usr/lib/gcc/arm-none-eabi/12.2.1/../../../arm-none-eabi/lib/thumb/v7e-m+fp/hard/libg.a(lib_a-errno.o)
                0x08008c5c                __errno
 .text          0x08008c68        0x0 /usr/lib/gcc/arm-none-eabi/12.2.1/../../../arm-none-eabi/lib/thumb/v7e-m+fp/hard/libg.a(lib_a-impure.o)
 .text          0x08008c68      0x134 /usr/lib/gcc/arm-none-eabi/12.2.1/../../../arm-none-eabi/lib/thumb/v7e-m+fp/hard/libg.a(lib_a-memcpy.o)
                0x08008c68                memcpy
 .text          0x08008d9c       0xa4 /usr/lib/gcc/arm-none-eabi/12.2.1/../../../arm-none-eabi/lib/thumb/v7e-m+fp/hard/libg.a(lib_a-memset.o)
                0x08008d9c                memset
 .text          0x08008e40       0x78 /usr/lib/gcc/arm-none-eabi/12.2.1/../../../arm-none-eabi/lib/thumb/v7e-m+fp/hard/libg.a(lib_a-sprintf.o)
                0x08008e40                _sprintf_r
                0x08008e78                sprintf
 .text          0x08008eb8       0xa8 /usr/lib/gcc/arm-none-eabi/12.2.1/../../../arm-none-eabi/lib/thumb/v7e-m+fp/hard/libg.a(lib_a-sscanf.o)
                0x08008eb8                sscanf
                0x08008f0c                _sscanf_r
 .text          0x08008f60       0x94 /usr/lib/gcc/arm-none-eabi/12.2.1/../../../arm-none-eabi/lib/thumb/v7e-m+fp/hard/libg.a(lib_a-stdio.o)
                0x08008f60                __sread
                0x08008f84                __seofread
                0x08008f88                __swrite
                0x08008fc8                __sseek
                0x08008fec                __sclose
 *fill*         0x08008ff4        0xc 
 .text          0x08009000       0xdc /usr/lib/gcc/arm-none-eabi/12.2.1/../../../arm-none-eabi/lib/thumb/v7e-m+fp/hard/libg.a(lib_a-strlen.o)
                0x08009000                strlen
 *fill*         0x080090dc        0x4 
 .text          0x080090e0     0x13b4 /usr/lib/gcc/arm-none-eabi/12.2.1/../../../arm-none-eabi/lib/thumb/v7e-m+fp/hard/libg.a(lib_a-svfprintf.o)
                0x080090e0                _svfprintf_r
 .text          0x0800a494     0x10bc /usr/lib/gcc/arm-none-eabi/12.2.1/../../../arm-none-eabi/lib/thumb/v7e-m+fp/hard/libg.a(lib_a-svfscanf.o)
                0x0800a494                __ssvfscanf_r
 .text          0x0800b550       0x2c /usr/lib/gcc/arm-none-eabi/12.2.1/../../../arm-none-eabi/lib/thumb/v7e-m+fp/hard/libg.a(lib_a-writer.o)
                0x0800b550                _write_r
 .text          0x0800b57c       0x24 /usr/lib/gcc/arm-none-eabi/12.2.1/../../../arm-none-eabi/lib/thumb/v7e-m+fp/hard/libg.a(lib_a-closer.o)
                0x0800b57c                _close_r
 .text          0x0800b5a0      0xff4 /usr/lib/gcc/arm-none-eabi/12.2.1/../../../arm-none-eabi/lib/thumb/v7e-m+fp/hard/libg.a(lib_a-dtoa.o)
                0x0800b6cc                _dtoa_r
 .text          0x0800c594        0x8 /usr/lib/gcc/arm-none-eabi/12.2.1/../../../arm-none-eabi/lib/thumb/v7e-m+fp/hard/libg.a(lib_a-iswspace.o)
                0x0800c594                iswspace
 .text          0x0800c59c       0x14 /usr/lib/gcc/arm-none-eabi/12.2.1/../../../arm-none-eabi/lib/thumb/v7e-m+fp/hard/libg.a(lib_a-iswspace_l.o)
                0x0800c59c                iswspace_l
 .text          0x0800c5b0       0x8c /usr/lib/gcc/arm-none-eabi/12.2.1/../../../arm-none-eabi/lib/thumb/v7e-m+fp/hard/libg.a(lib_a-locale.o)
                0x0800c5b0                _setlocale_r
                0x0800c5f0                __locale_mb_cur_max
                0x0800c5fc                setlocale
 .text          0x0800c63c       0x14 /usr/lib/gcc/arm-none-eabi/12.2.1/../../../arm-none-eabi/lib/thumb/v7e-m+fp/hard/libg.a(lib_a-localeconv.o)
                0x0800c63c                __localeconv_l
                0x0800c640                _localeconv_r
                0x0800c648                localeconv
 .text          0x0800c650       0x2c /usr/lib/gcc/arm-none-eabi/12.2.1/../../../arm-none-eabi/lib/thumb/v7e-m+fp/hard/libg.a(lib_a-lseekr.o)
                0x0800c650                _lseek_r
 .text          0x0800c67c      0x538 /usr/lib/gcc/arm-none-eabi/12.2.1/../../../arm-none-eabi/lib/thumb/v7e-m+fp/hard/libg.a(lib_a-mallocr.o)
                0x0800c67c                _malloc_r
 .text          0x0800cbb4       0x98 /usr/lib/gcc/arm-none-eabi/12.2.1/../../../arm-none-eabi/lib/thumb/v7e-m+fp/hard/libg.a(lib_a-mbrtowc.o)
                0x0800cbb4                _mbrtowc_r
                0x0800cbf8                mbrtowc
 .text          0x0800cc4c       0x40 /usr/lib/gcc/arm-none-eabi/12.2.1/../../../arm-none-eabi/lib/thumb/v7e-m+fp/hard/libg.a(lib_a-mbtowc_r.o)
                0x0800cc4c                _mbtowc_r
                0x0800cc60                __ascii_mbtowc
 *fill*         0x0800cc8c        0x4 
 .text          0x0800cc90       0xa0 /usr/lib/gcc/arm-none-eabi/12.2.1/../../../arm-none-eabi/lib/thumb/v7e-m+fp/hard/libg.a(lib_a-memchr.o)
                0x0800cc90                memchr
 .text          0x0800cd30        0x8 /usr/lib/gcc/arm-none-eabi/12.2.1/../../../arm-none-eabi/lib/thumb/v7e-m+fp/hard/libg.a(lib_a-mlock.o)
                0x0800cd30                __malloc_lock
                0x0800cd34                __malloc_unlock
 .text          0x0800cd38      0xac0 /usr/lib/gcc/arm-none-eabi/12.2.1/../../../arm-none-eabi/lib/thumb/v7e-m+fp/hard/libg.a(lib_a-mprec.o)
                0x0800cd38                _Balloc
                0x0800cd84                _Bfree
                0x0800cd98                __multadd
                0x0800ce38                __s2b
                0x0800cee8                __hi0bits
                0x0800cf2c                __lo0bits
                0x0800cf8c                __i2b
                0x0800cfe8                __multiply
                0x0800d154                __pow5mult
                0x0800d208                __lshift
                0x0800d2f8                __mcmp
                0x0800d33c                __mdiff
                0x0800d4a0                __ulp
                0x0800d504                __b2d
                0x0800d5c8                __d2b
                0x0800d69c                __ratio
                0x0800d6f8                _mprec_log10
                0x0800d738                __copybits
                0x0800d794                __any_on
 .text          0x0800d7f8       0x2c /usr/lib/gcc/arm-none-eabi/12.2.1/../../../arm-none-eabi/lib/thumb/v7e-m+fp/hard/libg.a(lib_a-readr.o)
                0x0800d7f8                _read_r
 .text          0x0800d824       0xd8 /usr/lib/gcc/arm-none-eabi/12.2.1/../../../arm-none-eabi/lib/thumb/v7e-m+fp/hard/libg.a(lib_a-reent.o)
                0x0800d824                cleanup_glue
                0x0800d86c                _reclaim_reent
 .text          0x0800d8fc       0x24 /usr/lib/gcc/arm-none-eabi/12.2.1/../../../arm-none-eabi/lib/thumb/v7e-m+fp/hard/libg.a(lib_a-sbrkr.o)
                0x0800d8fc                _sbrk_r
 .text          0x0800d920       0x98 /usr/lib/gcc/arm-none-eabi/12.2.1/../../../arm-none-eabi/lib/thumb/v7e-m+fp/hard/libg.a(lib_a-sccl.o)
                0x0800d920                __sccl
 .text          0x0800d9b8        0xc /usr/lib/gcc/arm-none-eabi/12.2.1/../../../arm-none-eabi/lib/thumb/v7e-m+fp/hard/libg.a(lib_a-sf_nan.o)
                0x0800d9b8                nanf
 *fill*         0x0800d9c4       0x1c 
 .text          0x0800d9e0      0x2dc /usr/lib/gcc/arm-none-eabi/12.2.1/../../../arm-none-eabi/lib/thumb/v7e-m+fp/hard/libg.a(lib_a-strcmp.o)
                0x0800d9e8                strcmp
 *fill*         0x0800dcbc        0x4 
 .text          0x0800dcc0     0x11c0 /usr/lib/gcc/arm-none-eabi/12.2.1/../../../arm-none-eabi/lib/thumb/v7e-m+fp/hard/libg.a(lib_a-strtod.o)
                0x0800dcc0                _strtod_l
                0x0800ecd4                _strtod_r
                0x0800ece0                strtod_l
                0x0800ecfc                strtod
                0x0800ed1c                strtof_l
                0x0800edcc                strtof
 .text          0x0800ee80      0x16c /usr/lib/gcc/arm-none-eabi/12.2.1/../../../arm-none-eabi/lib/thumb/v7e-m+fp/hard/libg.a(lib_a-strtol.o)
                0x0800efb8                _strtol_r
                0x0800efbc                strtol_l
                0x0800efd4                strtol
 .text          0x0800efec      0x1b0 /usr/lib/gcc/arm-none-eabi/12.2.1/../../../arm-none-eabi/lib/thumb/v7e-m+fp/hard/libg.a(lib_a-strtoll.o)
                0x0800f168                _strtoll_r
                0x0800f16c                strtoll_l
                0x0800f184                strtoll
 .text          0x0800f19c      0x168 /usr/lib/gcc/arm-none-eabi/12.2.1/../../../arm-none-eabi/lib/thumb/v7e-m+fp/hard/libg.a(lib_a-strtoul.o)
                0x0800f2d0                _strtoul_r
                0x0800f2d4                strtoul_l
                0x0800f2ec                strtoul
 .text          0x0800f304      0x1c8 /usr/lib/gcc/arm-none-eabi/12.2.1/../../../arm-none-eabi/lib/thumb/v7e-m+fp/hard/libg.a(lib_a-strtoull.o)
                0x0800f498                _strtoull_r
                0x0800f49c                strtoull_l
                0x0800f4b4                strtoull
 .text          0x0800f4cc      0xc10 /usr/lib/gcc/arm-none-eabi/12.2.1/../../../arm-none-eabi/lib/thumb/v7e-m+fp/hard/libg.a(lib_a-svfiprintf.o)
                0x0800f4cc                __ssprint_r
                0x0800f5c8                _svfiprintf_r
 .text          0x080100dc      0xf6c /usr/lib/gcc/arm-none-eabi/12.2.1/../../../arm-none-eabi/lib/thumb/v7e-m+fp/hard/libg.a(lib_a-svfiscanf.o)
                0x080100dc                _sungetc_r
                0x08010158                __ssrefill_r
                0x08010190                _sfread_r
                0x08010250                __ssvfiscanf_r
 .text          0x08011048      0x160 /usr/lib/gcc/arm-none-eabi/12.2.1/../../../arm-none-eabi/lib/thumb/v7e-m+fp/hard/libg.a(lib_a-ungetc.o)
                0x08011048                __submore
                0x080110bc                _ungetc_r
                0x08011190                ungetc
 .text          0x080111a8       0x30 /usr/lib/gcc/arm-none-eabi/12.2.1/../../../arm-none-eabi/lib/thumb/v7e-m+fp/hard/libg.a(lib_a-wctomb_r.o)
                0x080111a8                _wctomb_r
                0x080111bc                __ascii_wctomb
 .text          0x080111d8       0x4c /usr/lib/gcc/arm-none-eabi/12.2.1/../../../arm-none-eabi/lib/thumb/v7e-m+fp/hard/libg.a(lib_a-assert.o)
                0x080111d8                __assert_func
                0x08011218                __assert
 .text          0x08011224       0x60 /usr/lib/gcc/arm-none-eabi/12.2.1/../../../arm-none-eabi/lib/thumb/v7e-m+fp/hard/libg.a(lib_a-callocr.o)
                0x08011224                _calloc_r
 .text          0x08011284      0x1b4 /usr/lib/gcc/arm-none-eabi/12.2.1/../../../arm-none-eabi/lib/thumb/v7e-m+fp/hard/libg.a(lib_a-fflush.o)
                0x08011284                __sflush_r
                0x080113bc                _fflush_r
                0x080113e8                fflush
 .text          0x08011438      0x210 /usr/lib/gcc/arm-none-eabi/12.2.1/../../../arm-none-eabi/lib/thumb/v7e-m+fp/hard/libg.a(lib_a-findfp.o)
                0x0801143c                _cleanup_r
                0x08011524                __sfmoreglue
                0x08011554                __sfp
                0x080115f4                _cleanup
                0x08011608                __sinit
                0x08011610                __sfp_lock_acquire
                0x08011614                __sfp_lock_release
                0x08011618                __sinit_lock_acquire
                0x0801161c                __sinit_lock_release
                0x08011620                __fp_lock_all
                0x08011634                __fp_unlock_all
 .text          0x08011648       0x44 /usr/lib/gcc/arm-none-eabi/12.2.1/../../../arm-none-eabi/lib/thumb/v7e-m+fp/hard/libg.a(lib_a-fiprintf.o)
                0x08011648                _fiprintf_r
                0x08011664                fiprintf
 .text          0x0801168c      0x2a0 /usr/lib/gcc/arm-none-eabi/12.2.1/../../../arm-none-eabi/lib/thumb/v7e-m+fp/hard/libg.a(lib_a-freer.o)
                0x0801168c                _malloc_trim_r
                0x08011728                _free_r
 .text          0x0801192c       0x88 /usr/lib/gcc/arm-none-eabi/12.2.1/../../../arm-none-eabi/lib/thumb/v7e-m+fp/hard/libg.a(lib_a-fwalk.o)
                0x0801192c                _fwalk
                0x0801196c                _fwalk_reent
 .text          0x080119b4      0x684 /usr/lib/gcc/arm-none-eabi/12.2.1/../../../arm-none-eabi/lib/thumb/v7e-m+fp/hard/libg.a(lib_a-gdtoa-gethex.o)
                0x08011a58                __gethex
 .text          0x08012038      0x204 /usr/lib/gcc/arm-none-eabi/12.2.1/../../../arm-none-eabi/lib/thumb/v7e-m+fp/hard/libg.a(lib_a-gdtoa-hexnan.o)
                0x08012038                __match
                0x08012070                __hexnan
 .text          0x0801223c        0x4 /usr/lib/gcc/arm-none-eabi/12.2.1/../../../arm-none-eabi/lib/thumb/v7e-m+fp/hard/libg.a(lib_a-lnumeric.o)
                0x0801223c                __numeric_load_locale
 .text          0x08012240      0x100 /usr/lib/gcc/arm-none-eabi/12.2.1/../../../arm-none-eabi/lib/thumb/v7e-m+fp/hard/libg.a(lib_a-memmove.o)
                0x08012240                memmove
 .text          0x08012340      0x34c /usr/lib/gcc/arm-none-eabi/12.2.1/../../../arm-none-eabi/lib/thumb/v7e-m+fp/hard/libg.a(lib_a-reallocr.o)
                0x08012340                _realloc_r
 *fill*         0x0801268c        0x4 
 .text          0x08012690       0x10 /usr/lib/gcc/arm-none-eabi/12.2.1/../../../arm-none-eabi/lib/thumb/v7e-m+fp/hard/libg.a(lib_a-s_nan.o)
                0x08012690                nan
 .text          0x080126a0       0x84 /usr/lib/gcc/arm-none-eabi/12.2.1/../../../arm-none-eabi/lib/thumb/v7e-m+fp/hard/libg.a(lib_a-strncmp.o)
                0x080126a0                strncmp
 .text          0x08012724      0xd64 /usr/lib/gcc/arm-none-eabi/12.2.1/../../../arm-none-eabi/lib/thumb/v7e-m+fp/hard/libg.a(lib_a-vfiprintf.o)
                0x0801279c                __sprint_r
                0x080127b4                _vfiprintf_r
                0x08013400                vfiprintf
 .text          0x08013488       0xc4 /usr/lib/gcc/arm-none-eabi/12.2.1/../../../arm-none-eabi/lib/thumb/v7e-m+fp/hard/libg.a(lib_a-wsetup.o)
                0x08013488                __swsetup_r
 .text          0x0801354c       0x10 /usr/lib/gcc/arm-none-eabi/12.2.1/../../../arm-none-eabi/lib/thumb/v7e-m+fp/hard/libg.a(lib_a-abort.o)
                0x0801354c                abort
 .text          0x0801355c       0x98 /usr/lib/gcc/arm-none-eabi/12.2.1/../../../arm-none-eabi/lib/thumb/v7e-m+fp/hard/libg.a(lib_a-fclose.o)
                0x0801355c                _fclose_r
                0x080135e4                fclose
 .text          0x080135f4       0xe4 /usr/lib/gcc/arm-none-eabi/12.2.1/../../../arm-none-eabi/lib/thumb/v7e-m+fp/hard/libg.a(lib_a-fputwc.o)
                0x080135f4                __fputwc
                0x08013670                _fputwc_r
                0x08013698                fputwc
 .text          0x080136d8      0x2e4 /usr/lib/gcc/arm-none-eabi/12.2.1/../../../arm-none-eabi/lib/thumb/v7e-m+fp/hard/libg.a(lib_a-fvwrite.o)
                0x080136d8                __sfvwrite_r
 .text          0x080139bc      0x144 /usr/lib/gcc/arm-none-eabi/12.2.1/../../../arm-none-eabi/lib/thumb/v7e-m+fp/hard/libg.a(lib_a-makebuf.o)
                0x080139bc                __smakebuf_r
                0x08013aa0                __swhatbuf_r
 .text          0x08013b00      0x280 /usr/lib/gcc/arm-none-eabi/12.2.1/../../../arm-none-eabi/lib/thumb/v7e-m+fp/hard/libg.a(lib_a-signal.o)
                0x08013b00                _init_signal_r
                0x08013b30                _signal_r
                0x08013b80                _raise_r
                0x08013bd4                __sigtramp_r
                0x08013c38                raise
                0x08013c90                signal
                0x08013ce0                _init_signal
                0x08013d18                __sigtramp
 .text          0x08013d80       0x30 /usr/lib/gcc/arm-none-eabi/12.2.1/../../../arm-none-eabi/lib/thumb/v7e-m+fp/hard/libg.a(lib_a-signalr.o)
                0x08013d80                _kill_r
                0x08013dac                _getpid_r
 .text          0x08013db0       0xc4 /usr/lib/gcc/arm-none-eabi/12.2.1/../../../arm-none-eabi/lib/thumb/v7e-m+fp/hard/libg.a(lib_a-wbuf.o)
                0x08013db0                __swbuf_r
                0x08013e5c                __swbuf
 .text          0x08013e74       0x8c /usr/lib/gcc/arm-none-eabi/12.2.1/../../../arm-none-eabi/lib/thumb/v7e-m+fp/hard/libg.a(lib_a-wcrtomb.o)
                0x08013e74                _wcrtomb_r
                0x08013eb0                wcrtomb
 .text          0x08013f00       0x2c /usr/lib/gcc/arm-none-eabi/12.2.1/../../../arm-none-eabi/lib/thumb/v7e-m+fp/hard/libg.a(lib_a-fstatr.o)
                0x08013f00                _fstat_r
 .text          0x08013f2c       0x24 /usr/lib/gcc/arm-none-eabi/12.2.1/../../../arm-none-eabi/lib/thumb/v7e-m+fp/hard/libg.a(lib_a-isattyr.o)
                0x08013f2c                _isatty_r
 .text          0x08013f50      0x254 /usr/lib/gcc/arm-none-eabi/12.2.1/thumb/v7e-m+fp/hard/libgcc.a(_arm_muldf3.o)
 .text          0x080141a4      0x378 /usr/lib/gcc/arm-none-eabi/12.2.1/thumb/v7e-m+fp/hard/libgcc.a(_arm_addsubdf3.o)
                0x080141a4                __aeabi_drsub
                0x080141ac                __aeabi_dsub
                0x080141ac                __subdf3
                0x080141b0                __adddf3
                0x080141b0                __aeabi_dadd
                0x08014428                __aeabi_ui2d
                0x08014428                __floatunsidf
                0x08014448                __floatsidf
                0x08014448                __aeabi_i2d
                0x0801446c                __extendsfdf2
                0x0801446c                __aeabi_f2d
                0x080144b0                __aeabi_ul2d
                0x080144b0                __floatundidf
                0x080144c0                __floatdidf
                0x080144c0                __aeabi_l2d
 .text          0x0801451c      0x424 /usr/lib/gcc/arm-none-eabi/12.2.1/thumb/v7e-m+fp/hard/libgcc.a(_arm_muldivdf3.o)
                0x0801451c                __aeabi_dmul
                0x0801451c                __muldf3
                0x08014770                __aeabi_ddiv
                0x08014770                __divdf3
 .text          0x08014940      0x110 /usr/lib/gcc/arm-none-eabi/12.2.1/thumb/v7e-m+fp/hard/libgcc.a(_arm_cmpdf2.o)
                0x08014940                __gtdf2
                0x08014940                __gedf2
                0x08014948                __ltdf2
                0x08014948                __ledf2
                0x08014950                __cmpdf2
                0x08014950                __eqdf2
                0x08014950                __nedf2
                0x080149cc                __aeabi_cdrcmple
                0x080149dc                __aeabi_cdcmple
                0x080149dc                __aeabi_cdcmpeq
                0x080149ec                __aeabi_dcmpeq
                0x08014a00                __aeabi_dcmplt
                0x08014a14                __aeabi_dcmple
                0x08014a28                __aeabi_dcmpge
                0x08014a3c                __aeabi_dcmpgt
 .text          0x08014a50       0x2c /usr/lib/gcc/arm-none-eabi/12.2.1/thumb/v7e-m+fp/hard/libgcc.a(_arm_unorddf2.o)
                0x08014a50                __aeabi_dcmpun
                0x08014a50                __unorddf2
 .text          0x08014a7c       0x50 /usr/lib/gcc/arm-none-eabi/12.2.1/thumb/v7e-m+fp/hard/libgcc.a(_arm_fixdfsi.o)
                0x08014a7c                __fixdfsi
                0x08014a7c                __aeabi_d2iz
 .text          0x08014acc       0x40 /usr/lib/gcc/arm-none-eabi/12.2.1/thumb/v7e-m+fp/hard/libgcc.a(_arm_fixunsdfsi.o)
                0x08014acc                __fixunsdfsi
                0x08014acc                __aeabi_d2uiz
 .text          0x08014b0c       0xa0 /usr/lib/gcc/arm-none-eabi/12.2.1/thumb/v7e-m+fp/hard/libgcc.a(_arm_truncdfsf2.o)
                0x08014b0c                __aeabi_d2f
                0x08014b0c                __truncdfsf2
 .text          0x08014bac       0x30 /usr/lib/gcc/arm-none-eabi/12.2.1/thumb/v7e-m+fp/hard/libgcc.a(_aeabi_uldivmod.o)
                0x08014bac                __aeabi_uldivmod
 .text          0x08014bdc       0x30 /usr/lib/gcc/arm-none-eabi/12.2.1/thumb/v7e-m+fp/hard/libgcc.a(_fixdfdi.o)
                0x08014bdc                __aeabi_d2lz
                0x08014bdc                __fixdfdi
 .text          0x08014c0c       0x3c /usr/lib/gcc/arm-none-eabi/12.2.1/thumb/v7e-m+fp/hard/libgcc.a(_fixunsdfdi.o)
                0x08014c0c                __aeabi_d2ulz
                0x08014c0c                __fixunsdfdi
 .text          0x08014c48      0x2bc /usr/lib/gcc/arm-none-eabi/12.2.1/thumb/v7e-m+fp/hard/libgcc.a(_udivmoddi4.o)
                0x08014c48                __udivmoddi4
 .text          0x08014f04        0x4 /usr/lib/gcc/arm-none-eabi/12.2.1/thumb/v7e-m+fp/hard/libgcc.a(_dvmd_tls.o)
                0x08014f04                __aeabi_ldiv0
                0x08014f04                __aeabi_idiv0
 .text          0x08014f08       0x10 /usr/lib/gcc/arm-none-eabi/12.2.1/../../../arm-none-eabi/lib/thumb/v7e-m+fp/hard/libnosys.a(close.o)
                0x08014f08                _close
 .text          0x08014f18       0x10 /usr/lib/gcc/arm-none-eabi/12.2.1/../../../arm-none-eabi/lib/thumb/v7e-m+fp/hard/libnosys.a(fstat.o)
                0x08014f18                _fstat
 .text          0x08014f28       0x10 /usr/lib/gcc/arm-none-eabi/12.2.1/../../../arm-none-eabi/lib/thumb/v7e-m+fp/hard/libnosys.a(getpid.o)
                0x08014f28                _getpid
 .text          0x08014f38       0x10 /usr/lib/gcc/arm-none-eabi/12.2.1/../../../arm-none-eabi/lib/thumb/v7e-m+fp/hard/libnosys.a(isatty.o)
                0x08014f38                _isatty
 .text          0x08014f48       0x10 /usr/lib/gcc/arm-none-eabi/12.2.1/../../../arm-none-eabi/lib/thumb/v7e-m+fp/hard/libnosys.a(kill.o)
                0x08014f48                _kill
 .text          0x08014f58       0x10 /usr/lib/gcc/arm-none-eabi/12.2.1/../../../arm-none-eabi/lib/thumb/v7e-m+fp/hard/libnosys.a(lseek.o)
                0x08014f58                _lseek
 .text          0x08014f68       0x10 /usr/lib/gcc/arm-none-eabi/12.2.1/../../../arm-none-eabi/lib/thumb/v7e-m+fp/hard/libnosys.a(read.o)
                0x08014f68                _read
 .text          0x08014f78       0x1c /usr/lib/gcc/arm-none-eabi/12.2.1/../../../arm-none-eabi/lib/thumb/v7e-m+fp/hard/libnosys.a(sbrk.o)
                0x08014f78                _sbrk
 .text          0x08014f94       0x10 /usr/lib/gcc/arm-none-eabi/12.2.1/../../../arm-none-eabi/lib/thumb/v7e-m+fp/hard/libnosys.a(write.o)
                0x08014f94                _write
 .text          0x08014fa4        0x4 /usr/lib/gcc/arm-none-eabi/12.2.1/../../../arm-none-eabi/lib/thumb/v7e-m+fp/hard/libnosys.a(_exit.o)
                0x08014fa4                _exit
 *(.text.*)
                0x08014fa8                        _srodata = .
 *(.rodata)
 .rodata        0x08014fa8       0x42 bin/obj/bno055.o
 *fill*         0x08014fea        0x2 
 .rodata        0x08014fec       0x26 bin/obj/dialog.o
 *fill*         0x08015012        0x2 
 .rodata        0x08015014        0x4 bin/obj/heap.o
 .rodata        0x08015018        0xd bin/obj/main.o
 *fill*         0x08015025        0x3 
 .rodata        0x08015028       0xa9 bin/obj/mems.o
 *fill*         0x080150d1        0x3 
 .rodata        0x080150d4       0x14 bin/obj/motor.o
 .rodata        0x080150e8        0x4 bin/obj/port.o
 .rodata        0x080150ec        0x5 bin/obj/tasks.o
 *fill*         0x080150f1        0x3 
 .rodata        0x080150f4        0xd bin/obj/timers.o
 *fill*         0x08015101        0x3 
 .rodata        0x08015104      0x101 /usr/lib/gcc/arm-none-eabi/12.2.1/../../../arm-none-eabi/lib/thumb/v7e-m+fp/hard/libg.a(lib_a-ctype_.o)
                0x08015104                _ctype_
 *fill*         0x08015205        0x3 
 .rodata        0x08015208        0x4 /usr/lib/gcc/arm-none-eabi/12.2.1/../../../arm-none-eabi/lib/thumb/v7e-m+fp/hard/libg.a(lib_a-impure.o)
                0x08015208                _global_impure_ptr
 .rodata        0x0801520c       0x20 /usr/lib/gcc/arm-none-eabi/12.2.1/../../../arm-none-eabi/lib/thumb/v7e-m+fp/hard/libg.a(lib_a-svfprintf.o)
 .rodata        0x0801522c       0x22 /usr/lib/gcc/arm-none-eabi/12.2.1/../../../arm-none-eabi/lib/thumb/v7e-m+fp/hard/libg.a(lib_a-svfscanf.o)
 *fill*         0x0801524e        0x2 
 .rodata        0x08015250      0x128 /usr/lib/gcc/arm-none-eabi/12.2.1/../../../arm-none-eabi/lib/thumb/v7e-m+fp/hard/libg.a(lib_a-mprec.o)
                0x08015260                __mprec_tens
                0x08015328                __mprec_tinytens
                0x08015350                __mprec_bigtens
 .rodata        0x08015378       0x50 /usr/lib/gcc/arm-none-eabi/12.2.1/../../../arm-none-eabi/lib/thumb/v7e-m+fp/hard/libg.a(lib_a-strtod.o)
 .rodata        0x080153c8       0x20 /usr/lib/gcc/arm-none-eabi/12.2.1/../../../arm-none-eabi/lib/thumb/v7e-m+fp/hard/libg.a(lib_a-svfiprintf.o)
 .rodata        0x080153e8       0x22 /usr/lib/gcc/arm-none-eabi/12.2.1/../../../arm-none-eabi/lib/thumb/v7e-m+fp/hard/libg.a(lib_a-svfiscanf.o)
 *fill*         0x0801540a        0x2 
 .rodata        0x0801540c      0x100 /usr/lib/gcc/arm-none-eabi/12.2.1/../../../arm-none-eabi/lib/thumb/v7e-m+fp/hard/libg.a(lib_a-gdtoa-gethex.o)
                0x0801540c                __hexdig
 .rodata        0x0801550c        0xc /usr/lib/gcc/arm-none-eabi/12.2.1/../../../arm-none-eabi/lib/thumb/v7e-m+fp/hard/libg.a(lib_a-lnumeric.o)
                0x0801550c                _C_numeric_locale
 .rodata        0x08015518       0x20 /usr/lib/gcc/arm-none-eabi/12.2.1/../../../arm-none-eabi/lib/thumb/v7e-m+fp/hard/libg.a(lib_a-vfiprintf.o)
                0x08015538                        . = ALIGN (0x4)
                0x08015538                        _erodata = .
                0x08015538                        _etext = .
                0x08015538                        _sidata = _etext
                0x080156b4                        _la_data = LOADADDR (.data)

.rodata.str1.4  0x08015538      0x172
 .rodata.str1.4
                0x08015538       0x42 /usr/lib/gcc/arm-none-eabi/12.2.1/../../../arm-none-eabi/lib/thumb/v7e-m+fp/hard/libg.a(lib_a-svfprintf.o)
 *fill*         0x0801557a        0x2 
 .rodata.str1.4
                0x0801557c        0x5 /usr/lib/gcc/arm-none-eabi/12.2.1/../../../arm-none-eabi/lib/thumb/v7e-m+fp/hard/libg.a(lib_a-svfscanf.o)
                                  0x9 (size before relaxing)
 *fill*         0x08015581        0x3 
 .rodata.str1.4
                0x08015584       0x56 /usr/lib/gcc/arm-none-eabi/12.2.1/../../../arm-none-eabi/lib/thumb/v7e-m+fp/hard/libg.a(lib_a-dtoa.o)
                                 0x5a (size before relaxing)
 *fill*         0x080155da        0x2 
 .rodata.str1.4
                0x080155dc        0xe /usr/lib/gcc/arm-none-eabi/12.2.1/../../../arm-none-eabi/lib/thumb/v7e-m+fp/hard/libg.a(lib_a-locale.o)
                                 0x12 (size before relaxing)
 .rodata.str1.4
                0x080155ea        0x1 /usr/lib/gcc/arm-none-eabi/12.2.1/../../../arm-none-eabi/lib/thumb/v7e-m+fp/hard/libg.a(lib_a-mbrtowc.o)
 *fill*         0x080155ea        0x2 
 .rodata.str1.4
                0x080155ec       0x33 /usr/lib/gcc/arm-none-eabi/12.2.1/../../../arm-none-eabi/lib/thumb/v7e-m+fp/hard/libg.a(lib_a-mprec.o)
                                 0x47 (size before relaxing)
 *fill*         0x0801561f        0x1 
 .rodata.str1.4
                0x08015620        0xf /usr/lib/gcc/arm-none-eabi/12.2.1/../../../arm-none-eabi/lib/thumb/v7e-m+fp/hard/libg.a(lib_a-strtod.o)
                                 0x11 (size before relaxing)
 .rodata.str1.4
                0x0801562f       0x2f /usr/lib/gcc/arm-none-eabi/12.2.1/../../../arm-none-eabi/lib/thumb/v7e-m+fp/hard/libg.a(lib_a-svfiprintf.o)
 *fill*         0x0801562f        0x1 
 .rodata.str1.4
                0x08015630       0x3f /usr/lib/gcc/arm-none-eabi/12.2.1/../../../arm-none-eabi/lib/thumb/v7e-m+fp/hard/libg.a(lib_a-assert.o)
                                 0x43 (size before relaxing)
 *fill*         0x0801566f        0x1 
 .rodata.str1.4
                0x08015670       0x3a /usr/lib/gcc/arm-none-eabi/12.2.1/../../../arm-none-eabi/lib/thumb/v7e-m+fp/hard/libg.a(lib_a-gdtoa-gethex.o)
                                 0x4e (size before relaxing)
 .rodata.str1.4
                0x080156aa        0x5 /usr/lib/gcc/arm-none-eabi/12.2.1/../../../arm-none-eabi/lib/thumb/v7e-m+fp/hard/libg.a(lib_a-lnumeric.o)
 .rodata.str1.4
                0x080156aa       0x2f /usr/lib/gcc/arm-none-eabi/12.2.1/../../../arm-none-eabi/lib/thumb/v7e-m+fp/hard/libg.a(lib_a-vfiprintf.o)

.ARM.extab      0x080156aa        0x0
 .ARM.extab     0x080156aa        0x0 /usr/lib/gcc/arm-none-eabi/12.2.1/thumb/v7e-m+fp/hard/libgcc.a(_udivmoddi4.o)

.ARM.exidx      0x080156ac        0x8
 .ARM.exidx     0x080156ac        0x8 /usr/lib/gcc/arm-none-eabi/12.2.1/thumb/v7e-m+fp/hard/libgcc.a(_udivmoddi4.o)

.glue_7         0x080156b4        0x0
 .glue_7        0x080156b4        0x0 linker stubs

.glue_7t        0x080156b4        0x0
 .glue_7t       0x080156b4        0x0 linker stubs

.vfp11_veneer   0x080156b4        0x0
 .vfp11_veneer  0x080156b4        0x0 linker stubs

.v4_bx          0x080156b4        0x0
 .v4_bx         0x080156b4        0x0 linker stubs

.iplt           0x080156b4        0x0
 .iplt          0x080156b4        0x0 bin/obj/adc.o

.rel.dyn        0x080156b4        0x0
 .rel.iplt      0x080156b4        0x0 bin/obj/adc.o

.data           0x20000000      0xb5c load address 0x080156b4
                0x20000000                        _sdata = .
 *(.data)
 .data          0x20000000        0x8 bin/obj/adc.o
                0x20000000                adc1_Handle
                0x20000004                adc2_Handle
 .data          0x20000008        0xc bin/obj/bno055.o
                0x20000008                bno055_Handle
 .data          0x20000014        0x0 bin/obj/croutine.o
 .data          0x20000014        0x0 bin/obj/dialog.o
 .data          0x20000014       0x40 bin/obj/dma.o
                0x20000014                dma1_ch0
                0x20000018                dma1_ch1
                0x2000001c                dma1_ch2
                0x20000020                dma1_ch3
                0x20000024                dma1_ch4
                0x20000028                dma1_ch5
                0x2000002c                dma1_ch6
                0x20000030                dma1_ch7
                0x20000034                dma2_ch0
                0x20000038                dma2_ch1
                0x2000003c                dma2_ch2
                0x20000040                dma2_ch3
                0x20000044                dma2_ch4
                0x20000048                dma2_ch5
                0x2000004c                dma2_ch6
                0x20000050                dma2_ch7
 .data          0x20000054        0x0 bin/obj/event_groups.o
 .data          0x20000054        0x0 bin/obj/exti.o
 .data          0x20000054        0x0 bin/obj/gpio.o
 .data          0x20000054        0x0 bin/obj/heap.o
 .data          0x20000054        0x8 bin/obj/i2c.o
                0x20000054                i2c1
                0x20000058                i2c3
 .data          0x2000005c        0x0 bin/obj/list.o
 .data          0x2000005c        0x0 bin/obj/main.o
 .data          0x2000005c        0x4 bin/obj/mems.o
 .data          0x20000060        0x0 bin/obj/motor.o
 .data          0x20000060        0x4 bin/obj/port.o
 .data          0x20000064        0x0 bin/obj/queue.o
 .data          0x20000064        0x0 bin/obj/rcc.o
 .data          0x20000064        0x0 bin/obj/stream_buffer.o
 .data          0x20000064        0x0 bin/obj/sys.o
 .data          0x20000064        0x4 bin/obj/tasks.o
                0x20000064                uxTopUsedPriority
 .data          0x20000068        0x0 bin/obj/timers.o
 .data          0x20000068      0x138 bin/obj/usart.o
                0x20000068                usart1_Handle
                0x20000100                usart5_Handle
                0x20000198                usarts
 .data          0x200001a0        0x0 /usr/lib/gcc/arm-none-eabi/12.2.1/../../../arm-none-eabi/lib/thumb/v7e-m+fp/hard/libm.a(lib_a-w_sqrt.o)
 .data          0x200001a0        0x0 /usr/lib/gcc/arm-none-eabi/12.2.1/../../../arm-none-eabi/lib/thumb/v7e-m+fp/hard/libm.a(lib_a-e_sqrt.o)
 .data          0x200001a0        0x1 /usr/lib/gcc/arm-none-eabi/12.2.1/../../../arm-none-eabi/lib/thumb/v7e-m+fp/hard/libm.a(lib_a-s_lib_ver.o)
                0x200001a0                __fdlib_version
 .data          0x200001a1        0x0 /usr/lib/gcc/arm-none-eabi/12.2.1/../../../arm-none-eabi/lib/thumb/v7e-m+fp/hard/libg.a(lib_a-ctype_.o)
 .data          0x200001a1        0x0 /usr/lib/gcc/arm-none-eabi/12.2.1/../../../arm-none-eabi/lib/thumb/v7e-m+fp/hard/libg.a(lib_a-errno.o)
 *fill*         0x200001a1        0x7 
 .data          0x200001a8      0x430 /usr/lib/gcc/arm-none-eabi/12.2.1/../../../arm-none-eabi/lib/thumb/v7e-m+fp/hard/libg.a(lib_a-impure.o)
                0x200001a8                _impure_ptr
 .data          0x200005d8        0x0 /usr/lib/gcc/arm-none-eabi/12.2.1/../../../arm-none-eabi/lib/thumb/v7e-m+fp/hard/libg.a(lib_a-memcpy.o)
 .data          0x200005d8        0x0 /usr/lib/gcc/arm-none-eabi/12.2.1/../../../arm-none-eabi/lib/thumb/v7e-m+fp/hard/libg.a(lib_a-memset.o)
 .data          0x200005d8        0x0 /usr/lib/gcc/arm-none-eabi/12.2.1/../../../arm-none-eabi/lib/thumb/v7e-m+fp/hard/libg.a(lib_a-sprintf.o)
 .data          0x200005d8        0x0 /usr/lib/gcc/arm-none-eabi/12.2.1/../../../arm-none-eabi/lib/thumb/v7e-m+fp/hard/libg.a(lib_a-sscanf.o)
 .data          0x200005d8        0x0 /usr/lib/gcc/arm-none-eabi/12.2.1/../../../arm-none-eabi/lib/thumb/v7e-m+fp/hard/libg.a(lib_a-stdio.o)
 .data          0x200005d8        0x0 /usr/lib/gcc/arm-none-eabi/12.2.1/../../../arm-none-eabi/lib/thumb/v7e-m+fp/hard/libg.a(lib_a-strlen.o)
 .data          0x200005d8        0x0 /usr/lib/gcc/arm-none-eabi/12.2.1/../../../arm-none-eabi/lib/thumb/v7e-m+fp/hard/libg.a(lib_a-svfprintf.o)
 .data          0x200005d8        0x0 /usr/lib/gcc/arm-none-eabi/12.2.1/../../../arm-none-eabi/lib/thumb/v7e-m+fp/hard/libg.a(lib_a-svfscanf.o)
 .data          0x200005d8        0x0 /usr/lib/gcc/arm-none-eabi/12.2.1/../../../arm-none-eabi/lib/thumb/v7e-m+fp/hard/libg.a(lib_a-writer.o)
 .data          0x200005d8        0x0 /usr/lib/gcc/arm-none-eabi/12.2.1/../../../arm-none-eabi/lib/thumb/v7e-m+fp/hard/libg.a(lib_a-closer.o)
 .data          0x200005d8        0x0 /usr/lib/gcc/arm-none-eabi/12.2.1/../../../arm-none-eabi/lib/thumb/v7e-m+fp/hard/libg.a(lib_a-dtoa.o)
 .data          0x200005d8        0x0 /usr/lib/gcc/arm-none-eabi/12.2.1/../../../arm-none-eabi/lib/thumb/v7e-m+fp/hard/libg.a(lib_a-iswspace.o)
 .data          0x200005d8        0x0 /usr/lib/gcc/arm-none-eabi/12.2.1/../../../arm-none-eabi/lib/thumb/v7e-m+fp/hard/libg.a(lib_a-iswspace_l.o)
 .data          0x200005d8      0x16c /usr/lib/gcc/arm-none-eabi/12.2.1/../../../arm-none-eabi/lib/thumb/v7e-m+fp/hard/libg.a(lib_a-locale.o)
                0x200005d8                __global_locale
 .data          0x20000744        0x0 /usr/lib/gcc/arm-none-eabi/12.2.1/../../../arm-none-eabi/lib/thumb/v7e-m+fp/hard/libg.a(lib_a-localeconv.o)
 .data          0x20000744        0x0 /usr/lib/gcc/arm-none-eabi/12.2.1/../../../arm-none-eabi/lib/thumb/v7e-m+fp/hard/libg.a(lib_a-lseekr.o)
 *fill*         0x20000744        0x4 
 .data          0x20000748      0x410 /usr/lib/gcc/arm-none-eabi/12.2.1/../../../arm-none-eabi/lib/thumb/v7e-m+fp/hard/libg.a(lib_a-mallocr.o)
                0x20000748                __malloc_av_
                0x20000b50                __malloc_sbrk_base
                0x20000b54                __malloc_trim_threshold
 .data          0x20000b58        0x0 /usr/lib/gcc/arm-none-eabi/12.2.1/../../../arm-none-eabi/lib/thumb/v7e-m+fp/hard/libg.a(lib_a-mbrtowc.o)
 .data          0x20000b58        0x0 /usr/lib/gcc/arm-none-eabi/12.2.1/../../../arm-none-eabi/lib/thumb/v7e-m+fp/hard/libg.a(lib_a-mbtowc_r.o)
 .data          0x20000b58        0x0 /usr/lib/gcc/arm-none-eabi/12.2.1/../../../arm-none-eabi/lib/thumb/v7e-m+fp/hard/libg.a(lib_a-memchr.o)
 .data          0x20000b58        0x0 /usr/lib/gcc/arm-none-eabi/12.2.1/../../../arm-none-eabi/lib/thumb/v7e-m+fp/hard/libg.a(lib_a-mlock.o)
 .data          0x20000b58        0x0 /usr/lib/gcc/arm-none-eabi/12.2.1/../../../arm-none-eabi/lib/thumb/v7e-m+fp/hard/libg.a(lib_a-mprec.o)
 .data          0x20000b58        0x0 /usr/lib/gcc/arm-none-eabi/12.2.1/../../../arm-none-eabi/lib/thumb/v7e-m+fp/hard/libg.a(lib_a-readr.o)
 .data          0x20000b58        0x0 /usr/lib/gcc/arm-none-eabi/12.2.1/../../../arm-none-eabi/lib/thumb/v7e-m+fp/hard/libg.a(lib_a-reent.o)
 .data          0x20000b58        0x0 /usr/lib/gcc/arm-none-eabi/12.2.1/../../../arm-none-eabi/lib/thumb/v7e-m+fp/hard/libg.a(lib_a-sbrkr.o)
 .data          0x20000b58        0x0 /usr/lib/gcc/arm-none-eabi/12.2.1/../../../arm-none-eabi/lib/thumb/v7e-m+fp/hard/libg.a(lib_a-sccl.o)
 .data          0x20000b58        0x0 /usr/lib/gcc/arm-none-eabi/12.2.1/../../../arm-none-eabi/lib/thumb/v7e-m+fp/hard/libg.a(lib_a-sf_nan.o)
 .data          0x20000b58        0x0 /usr/lib/gcc/arm-none-eabi/12.2.1/../../../arm-none-eabi/lib/thumb/v7e-m+fp/hard/libg.a(lib_a-strcmp.o)
 .data          0x20000b58        0x0 /usr/lib/gcc/arm-none-eabi/12.2.1/../../../arm-none-eabi/lib/thumb/v7e-m+fp/hard/libg.a(lib_a-strtod.o)
 .data          0x20000b58        0x0 /usr/lib/gcc/arm-none-eabi/12.2.1/../../../arm-none-eabi/lib/thumb/v7e-m+fp/hard/libg.a(lib_a-strtol.o)
 .data          0x20000b58        0x0 /usr/lib/gcc/arm-none-eabi/12.2.1/../../../arm-none-eabi/lib/thumb/v7e-m+fp/hard/libg.a(lib_a-strtoll.o)
 .data          0x20000b58        0x0 /usr/lib/gcc/arm-none-eabi/12.2.1/../../../arm-none-eabi/lib/thumb/v7e-m+fp/hard/libg.a(lib_a-strtoul.o)
 .data          0x20000b58        0x0 /usr/lib/gcc/arm-none-eabi/12.2.1/../../../arm-none-eabi/lib/thumb/v7e-m+fp/hard/libg.a(lib_a-strtoull.o)
 .data          0x20000b58        0x0 /usr/lib/gcc/arm-none-eabi/12.2.1/../../../arm-none-eabi/lib/thumb/v7e-m+fp/hard/libg.a(lib_a-svfiprintf.o)
 .data          0x20000b58        0x0 /usr/lib/gcc/arm-none-eabi/12.2.1/../../../arm-none-eabi/lib/thumb/v7e-m+fp/hard/libg.a(lib_a-svfiscanf.o)
 .data          0x20000b58        0x0 /usr/lib/gcc/arm-none-eabi/12.2.1/../../../arm-none-eabi/lib/thumb/v7e-m+fp/hard/libg.a(lib_a-ungetc.o)
 .data          0x20000b58        0x0 /usr/lib/gcc/arm-none-eabi/12.2.1/../../../arm-none-eabi/lib/thumb/v7e-m+fp/hard/libg.a(lib_a-wctomb_r.o)
 .data          0x20000b58        0x0 /usr/lib/gcc/arm-none-eabi/12.2.1/../../../arm-none-eabi/lib/thumb/v7e-m+fp/hard/libg.a(lib_a-assert.o)
 .data          0x20000b58        0x0 /usr/lib/gcc/arm-none-eabi/12.2.1/../../../arm-none-eabi/lib/thumb/v7e-m+fp/hard/libg.a(lib_a-callocr.o)
 .data          0x20000b58        0x0 /usr/lib/gcc/arm-none-eabi/12.2.1/../../../arm-none-eabi/lib/thumb/v7e-m+fp/hard/libg.a(lib_a-fflush.o)
 .data          0x20000b58        0x0 /usr/lib/gcc/arm-none-eabi/12.2.1/../../../arm-none-eabi/lib/thumb/v7e-m+fp/hard/libg.a(lib_a-findfp.o)
 .data          0x20000b58        0x0 /usr/lib/gcc/arm-none-eabi/12.2.1/../../../arm-none-eabi/lib/thumb/v7e-m+fp/hard/libg.a(lib_a-fiprintf.o)
 .data          0x20000b58        0x0 /usr/lib/gcc/arm-none-eabi/12.2.1/../../../arm-none-eabi/lib/thumb/v7e-m+fp/hard/libg.a(lib_a-freer.o)
 .data          0x20000b58        0x0 /usr/lib/gcc/arm-none-eabi/12.2.1/../../../arm-none-eabi/lib/thumb/v7e-m+fp/hard/libg.a(lib_a-fwalk.o)
 .data          0x20000b58        0x0 /usr/lib/gcc/arm-none-eabi/12.2.1/../../../arm-none-eabi/lib/thumb/v7e-m+fp/hard/libg.a(lib_a-gdtoa-gethex.o)
 .data          0x20000b58        0x0 /usr/lib/gcc/arm-none-eabi/12.2.1/../../../arm-none-eabi/lib/thumb/v7e-m+fp/hard/libg.a(lib_a-gdtoa-hexnan.o)
 .data          0x20000b58        0x2 /usr/lib/gcc/arm-none-eabi/12.2.1/../../../arm-none-eabi/lib/thumb/v7e-m+fp/hard/libg.a(lib_a-lnumeric.o)
 .data          0x20000b5a        0x0 /usr/lib/gcc/arm-none-eabi/12.2.1/../../../arm-none-eabi/lib/thumb/v7e-m+fp/hard/libg.a(lib_a-memmove.o)
 .data          0x20000b5a        0x0 /usr/lib/gcc/arm-none-eabi/12.2.1/../../../arm-none-eabi/lib/thumb/v7e-m+fp/hard/libg.a(lib_a-reallocr.o)
 .data          0x20000b5a        0x0 /usr/lib/gcc/arm-none-eabi/12.2.1/../../../arm-none-eabi/lib/thumb/v7e-m+fp/hard/libg.a(lib_a-s_nan.o)
 .data          0x20000b5a        0x0 /usr/lib/gcc/arm-none-eabi/12.2.1/../../../arm-none-eabi/lib/thumb/v7e-m+fp/hard/libg.a(lib_a-strncmp.o)
 .data          0x20000b5a        0x0 /usr/lib/gcc/arm-none-eabi/12.2.1/../../../arm-none-eabi/lib/thumb/v7e-m+fp/hard/libg.a(lib_a-vfiprintf.o)
 .data          0x20000b5a        0x0 /usr/lib/gcc/arm-none-eabi/12.2.1/../../../arm-none-eabi/lib/thumb/v7e-m+fp/hard/libg.a(lib_a-wsetup.o)
 .data          0x20000b5a        0x0 /usr/lib/gcc/arm-none-eabi/12.2.1/../../../arm-none-eabi/lib/thumb/v7e-m+fp/hard/libg.a(lib_a-abort.o)
 .data          0x20000b5a        0x0 /usr/lib/gcc/arm-none-eabi/12.2.1/../../../arm-none-eabi/lib/thumb/v7e-m+fp/hard/libg.a(lib_a-fclose.o)
 .data          0x20000b5a        0x0 /usr/lib/gcc/arm-none-eabi/12.2.1/../../../arm-none-eabi/lib/thumb/v7e-m+fp/hard/libg.a(lib_a-fputwc.o)
 .data          0x20000b5a        0x0 /usr/lib/gcc/arm-none-eabi/12.2.1/../../../arm-none-eabi/lib/thumb/v7e-m+fp/hard/libg.a(lib_a-fvwrite.o)
 .data          0x20000b5a        0x0 /usr/lib/gcc/arm-none-eabi/12.2.1/../../../arm-none-eabi/lib/thumb/v7e-m+fp/hard/libg.a(lib_a-makebuf.o)
 .data          0x20000b5a        0x0 /usr/lib/gcc/arm-none-eabi/12.2.1/../../../arm-none-eabi/lib/thumb/v7e-m+fp/hard/libg.a(lib_a-signal.o)
 .data          0x20000b5a        0x0 /usr/lib/gcc/arm-none-eabi/12.2.1/../../../arm-none-eabi/lib/thumb/v7e-m+fp/hard/libg.a(lib_a-signalr.o)
 .data          0x20000b5a        0x0 /usr/lib/gcc/arm-none-eabi/12.2.1/../../../arm-none-eabi/lib/thumb/v7e-m+fp/hard/libg.a(lib_a-wbuf.o)
 .data          0x20000b5a        0x0 /usr/lib/gcc/arm-none-eabi/12.2.1/../../../arm-none-eabi/lib/thumb/v7e-m+fp/hard/libg.a(lib_a-wcrtomb.o)
 .data          0x20000b5a        0x0 /usr/lib/gcc/arm-none-eabi/12.2.1/../../../arm-none-eabi/lib/thumb/v7e-m+fp/hard/libg.a(lib_a-fstatr.o)
 .data          0x20000b5a        0x0 /usr/lib/gcc/arm-none-eabi/12.2.1/../../../arm-none-eabi/lib/thumb/v7e-m+fp/hard/libg.a(lib_a-isattyr.o)
 .data          0x20000b5a        0x0 /usr/lib/gcc/arm-none-eabi/12.2.1/thumb/v7e-m+fp/hard/libgcc.a(_arm_muldf3.o)
 .data          0x20000b5a        0x0 /usr/lib/gcc/arm-none-eabi/12.2.1/thumb/v7e-m+fp/hard/libgcc.a(_arm_addsubdf3.o)
 .data          0x20000b5a        0x0 /usr/lib/gcc/arm-none-eabi/12.2.1/thumb/v7e-m+fp/hard/libgcc.a(_arm_muldivdf3.o)
 .data          0x20000b5a        0x0 /usr/lib/gcc/arm-none-eabi/12.2.1/thumb/v7e-m+fp/hard/libgcc.a(_arm_cmpdf2.o)
 .data          0x20000b5a        0x0 /usr/lib/gcc/arm-none-eabi/12.2.1/thumb/v7e-m+fp/hard/libgcc.a(_arm_unorddf2.o)
 .data          0x20000b5a        0x0 /usr/lib/gcc/arm-none-eabi/12.2.1/thumb/v7e-m+fp/hard/libgcc.a(_arm_fixdfsi.o)
 .data          0x20000b5a        0x0 /usr/lib/gcc/arm-none-eabi/12.2.1/thumb/v7e-m+fp/hard/libgcc.a(_arm_fixunsdfsi.o)
 .data          0x20000b5a        0x0 /usr/lib/gcc/arm-none-eabi/12.2.1/thumb/v7e-m+fp/hard/libgcc.a(_arm_truncdfsf2.o)
 .data          0x20000b5a        0x0 /usr/lib/gcc/arm-none-eabi/12.2.1/thumb/v7e-m+fp/hard/libgcc.a(_aeabi_uldivmod.o)
 .data          0x20000b5a        0x0 /usr/lib/gcc/arm-none-eabi/12.2.1/thumb/v7e-m+fp/hard/libgcc.a(_fixdfdi.o)
 .data          0x20000b5a        0x0 /usr/lib/gcc/arm-none-eabi/12.2.1/thumb/v7e-m+fp/hard/libgcc.a(_fixunsdfdi.o)
 .data          0x20000b5a        0x0 /usr/lib/gcc/arm-none-eabi/12.2.1/thumb/v7e-m+fp/hard/libgcc.a(_udivmoddi4.o)
 .data          0x20000b5a        0x0 /usr/lib/gcc/arm-none-eabi/12.2.1/thumb/v7e-m+fp/hard/libgcc.a(_dvmd_tls.o)
 .data          0x20000b5a        0x0 /usr/lib/gcc/arm-none-eabi/12.2.1/../../../arm-none-eabi/lib/thumb/v7e-m+fp/hard/libnosys.a(close.o)
 .data          0x20000b5a        0x0 /usr/lib/gcc/arm-none-eabi/12.2.1/../../../arm-none-eabi/lib/thumb/v7e-m+fp/hard/libnosys.a(fstat.o)
 .data          0x20000b5a        0x0 /usr/lib/gcc/arm-none-eabi/12.2.1/../../../arm-none-eabi/lib/thumb/v7e-m+fp/hard/libnosys.a(getpid.o)
 .data          0x20000b5a        0x0 /usr/lib/gcc/arm-none-eabi/12.2.1/../../../arm-none-eabi/lib/thumb/v7e-m+fp/hard/libnosys.a(isatty.o)
 .data          0x20000b5a        0x0 /usr/lib/gcc/arm-none-eabi/12.2.1/../../../arm-none-eabi/lib/thumb/v7e-m+fp/hard/libnosys.a(kill.o)
 .data          0x20000b5a        0x0 /usr/lib/gcc/arm-none-eabi/12.2.1/../../../arm-none-eabi/lib/thumb/v7e-m+fp/hard/libnosys.a(lseek.o)
 .data          0x20000b5a        0x0 /usr/lib/gcc/arm-none-eabi/12.2.1/../../../arm-none-eabi/lib/thumb/v7e-m+fp/hard/libnosys.a(read.o)
 .data          0x20000b5a        0x0 /usr/lib/gcc/arm-none-eabi/12.2.1/../../../arm-none-eabi/lib/thumb/v7e-m+fp/hard/libnosys.a(sbrk.o)
 .data          0x20000b5a        0x0 /usr/lib/gcc/arm-none-eabi/12.2.1/../../../arm-none-eabi/lib/thumb/v7e-m+fp/hard/libnosys.a(write.o)
 .data          0x20000b5a        0x0 /usr/lib/gcc/arm-none-eabi/12.2.1/../../../arm-none-eabi/lib/thumb/v7e-m+fp/hard/libnosys.a(_exit.o)
                0x20000b5c                        . = ALIGN (0x4)
 *fill*         0x20000b5a        0x2 
                0x20000b5c                        _edata = .

.igot.plt       0x20000b5c        0x0 load address 0x08016210
 .igot.plt      0x20000b5c        0x0 bin/obj/adc.o

.bss            0x20000b5c     0x2e88 load address 0x08016210
                0x20000b5c                        _sbss = .
                0x20000b5c                        __bss_start__ = .
 *(.bss)
 .bss           0x20000b5c        0x0 bin/obj/adc.o
 .bss           0x20000b5c       0x80 bin/obj/bno055.o
 .bss           0x20000bdc        0x0 bin/obj/croutine.o
 .bss           0x20000bdc       0xcc bin/obj/dialog.o
                0x20000bdc                tour
 .bss           0x20000ca8      0x14c bin/obj/dma.o
                0x20000ca8                dma1_Handle
                0x20000cac                dma1_channels
                0x20000d4c                dma2_Handle
                0x20000d50                dma2_channels
 .bss           0x20000df4        0x0 bin/obj/event_groups.o
 .bss           0x20000df4        0x4 bin/obj/exti.o
 .bss           0x20000df8        0x0 bin/obj/gpio.o
 .bss           0x20000df8     0x2820 bin/obj/heap.o
 .bss           0x20003618       0x50 bin/obj/i2c.o
                0x20003618                i2c1_Handle
                0x20003640                i2c3_Handle
 .bss           0x20003668        0x0 bin/obj/list.o
 .bss           0x20003668        0x8 bin/obj/main.o
                0x20003668                compteur
                0x2000366c                xTimer
 .bss           0x20003670       0xd0 bin/obj/mems.o
 .bss           0x20003740       0xcc bin/obj/motor.o
                0x20003740                msgQueueMotor
 .bss           0x2000380c        0x8 bin/obj/port.o
 .bss           0x20003814       0x50 bin/obj/queue.o
                0x20003814                xQueueRegistry
 .bss           0x20003864        0x0 bin/obj/rcc.o
 .bss           0x20003864        0x0 bin/obj/stream_buffer.o
 .bss           0x20003864        0x0 bin/obj/sys.o
 .bss           0x20003864      0x104 bin/obj/tasks.o
                0x20003864                pxCurrentTCB
 .bss           0x20003968       0x3c bin/obj/timers.o
 .bss           0x200039a4        0x0 bin/obj/usart.o
 .bss           0x200039a4        0x0 /usr/lib/gcc/arm-none-eabi/12.2.1/../../../arm-none-eabi/lib/thumb/v7e-m+fp/hard/libm.a(lib_a-w_sqrt.o)
 .bss           0x200039a4        0x0 /usr/lib/gcc/arm-none-eabi/12.2.1/../../../arm-none-eabi/lib/thumb/v7e-m+fp/hard/libm.a(lib_a-e_sqrt.o)
 .bss           0x200039a4        0x0 /usr/lib/gcc/arm-none-eabi/12.2.1/../../../arm-none-eabi/lib/thumb/v7e-m+fp/hard/libm.a(lib_a-s_lib_ver.o)
 .bss           0x200039a4        0x0 /usr/lib/gcc/arm-none-eabi/12.2.1/../../../arm-none-eabi/lib/thumb/v7e-m+fp/hard/libg.a(lib_a-ctype_.o)
 .bss           0x200039a4        0x0 /usr/lib/gcc/arm-none-eabi/12.2.1/../../../arm-none-eabi/lib/thumb/v7e-m+fp/hard/libg.a(lib_a-errno.o)
 .bss           0x200039a4        0x0 /usr/lib/gcc/arm-none-eabi/12.2.1/../../../arm-none-eabi/lib/thumb/v7e-m+fp/hard/libg.a(lib_a-impure.o)
 .bss           0x200039a4        0x0 /usr/lib/gcc/arm-none-eabi/12.2.1/../../../arm-none-eabi/lib/thumb/v7e-m+fp/hard/libg.a(lib_a-memcpy.o)
 .bss           0x200039a4        0x0 /usr/lib/gcc/arm-none-eabi/12.2.1/../../../arm-none-eabi/lib/thumb/v7e-m+fp/hard/libg.a(lib_a-memset.o)
 .bss           0x200039a4        0x0 /usr/lib/gcc/arm-none-eabi/12.2.1/../../../arm-none-eabi/lib/thumb/v7e-m+fp/hard/libg.a(lib_a-sprintf.o)
 .bss           0x200039a4        0x0 /usr/lib/gcc/arm-none-eabi/12.2.1/../../../arm-none-eabi/lib/thumb/v7e-m+fp/hard/libg.a(lib_a-sscanf.o)
 .bss           0x200039a4        0x0 /usr/lib/gcc/arm-none-eabi/12.2.1/../../../arm-none-eabi/lib/thumb/v7e-m+fp/hard/libg.a(lib_a-stdio.o)
 .bss           0x200039a4        0x0 /usr/lib/gcc/arm-none-eabi/12.2.1/../../../arm-none-eabi/lib/thumb/v7e-m+fp/hard/libg.a(lib_a-strlen.o)
 .bss           0x200039a4        0x0 /usr/lib/gcc/arm-none-eabi/12.2.1/../../../arm-none-eabi/lib/thumb/v7e-m+fp/hard/libg.a(lib_a-svfprintf.o)
 .bss           0x200039a4        0x0 /usr/lib/gcc/arm-none-eabi/12.2.1/../../../arm-none-eabi/lib/thumb/v7e-m+fp/hard/libg.a(lib_a-svfscanf.o)
 .bss           0x200039a4        0x0 /usr/lib/gcc/arm-none-eabi/12.2.1/../../../arm-none-eabi/lib/thumb/v7e-m+fp/hard/libg.a(lib_a-writer.o)
 .bss           0x200039a4        0x0 /usr/lib/gcc/arm-none-eabi/12.2.1/../../../arm-none-eabi/lib/thumb/v7e-m+fp/hard/libg.a(lib_a-closer.o)
 .bss           0x200039a4        0x0 /usr/lib/gcc/arm-none-eabi/12.2.1/../../../arm-none-eabi/lib/thumb/v7e-m+fp/hard/libg.a(lib_a-dtoa.o)
 .bss           0x200039a4        0x0 /usr/lib/gcc/arm-none-eabi/12.2.1/../../../arm-none-eabi/lib/thumb/v7e-m+fp/hard/libg.a(lib_a-iswspace.o)
 .bss           0x200039a4        0x0 /usr/lib/gcc/arm-none-eabi/12.2.1/../../../arm-none-eabi/lib/thumb/v7e-m+fp/hard/libg.a(lib_a-iswspace_l.o)
 .bss           0x200039a4        0x4 /usr/lib/gcc/arm-none-eabi/12.2.1/../../../arm-none-eabi/lib/thumb/v7e-m+fp/hard/libg.a(lib_a-locale.o)
                0x200039a4                _PathLocale
 .bss           0x200039a8        0x0 /usr/lib/gcc/arm-none-eabi/12.2.1/../../../arm-none-eabi/lib/thumb/v7e-m+fp/hard/libg.a(lib_a-localeconv.o)
 .bss           0x200039a8        0x0 /usr/lib/gcc/arm-none-eabi/12.2.1/../../../arm-none-eabi/lib/thumb/v7e-m+fp/hard/libg.a(lib_a-lseekr.o)
 .bss           0x200039a8       0x34 /usr/lib/gcc/arm-none-eabi/12.2.1/../../../arm-none-eabi/lib/thumb/v7e-m+fp/hard/libg.a(lib_a-mallocr.o)
                0x200039a8                __malloc_top_pad
                0x200039ac                __malloc_current_mallinfo
                0x200039d4                __malloc_max_sbrked_mem
                0x200039d8                __malloc_max_total_mem
 .bss           0x200039dc        0x0 /usr/lib/gcc/arm-none-eabi/12.2.1/../../../arm-none-eabi/lib/thumb/v7e-m+fp/hard/libg.a(lib_a-mbrtowc.o)
 .bss           0x200039dc        0x0 /usr/lib/gcc/arm-none-eabi/12.2.1/../../../arm-none-eabi/lib/thumb/v7e-m+fp/hard/libg.a(lib_a-mbtowc_r.o)
 .bss           0x200039dc        0x0 /usr/lib/gcc/arm-none-eabi/12.2.1/../../../arm-none-eabi/lib/thumb/v7e-m+fp/hard/libg.a(lib_a-memchr.o)
 .bss           0x200039dc        0x0 /usr/lib/gcc/arm-none-eabi/12.2.1/../../../arm-none-eabi/lib/thumb/v7e-m+fp/hard/libg.a(lib_a-mlock.o)
 .bss           0x200039dc        0x0 /usr/lib/gcc/arm-none-eabi/12.2.1/../../../arm-none-eabi/lib/thumb/v7e-m+fp/hard/libg.a(lib_a-mprec.o)
 .bss           0x200039dc        0x0 /usr/lib/gcc/arm-none-eabi/12.2.1/../../../arm-none-eabi/lib/thumb/v7e-m+fp/hard/libg.a(lib_a-readr.o)
 .bss           0x200039dc        0x4 /usr/lib/gcc/arm-none-eabi/12.2.1/../../../arm-none-eabi/lib/thumb/v7e-m+fp/hard/libg.a(lib_a-reent.o)
                0x200039dc                errno
 .bss           0x200039e0        0x0 /usr/lib/gcc/arm-none-eabi/12.2.1/../../../arm-none-eabi/lib/thumb/v7e-m+fp/hard/libg.a(lib_a-sbrkr.o)
 .bss           0x200039e0        0x0 /usr/lib/gcc/arm-none-eabi/12.2.1/../../../arm-none-eabi/lib/thumb/v7e-m+fp/hard/libg.a(lib_a-sccl.o)
 .bss           0x200039e0        0x0 /usr/lib/gcc/arm-none-eabi/12.2.1/../../../arm-none-eabi/lib/thumb/v7e-m+fp/hard/libg.a(lib_a-sf_nan.o)
 .bss           0x200039e0        0x0 /usr/lib/gcc/arm-none-eabi/12.2.1/../../../arm-none-eabi/lib/thumb/v7e-m+fp/hard/libg.a(lib_a-strcmp.o)
 .bss           0x200039e0        0x0 /usr/lib/gcc/arm-none-eabi/12.2.1/../../../arm-none-eabi/lib/thumb/v7e-m+fp/hard/libg.a(lib_a-strtod.o)
 .bss           0x200039e0        0x0 /usr/lib/gcc/arm-none-eabi/12.2.1/../../../arm-none-eabi/lib/thumb/v7e-m+fp/hard/libg.a(lib_a-strtol.o)
 .bss           0x200039e0        0x0 /usr/lib/gcc/arm-none-eabi/12.2.1/../../../arm-none-eabi/lib/thumb/v7e-m+fp/hard/libg.a(lib_a-strtoll.o)
 .bss           0x200039e0        0x0 /usr/lib/gcc/arm-none-eabi/12.2.1/../../../arm-none-eabi/lib/thumb/v7e-m+fp/hard/libg.a(lib_a-strtoul.o)
 .bss           0x200039e0        0x0 /usr/lib/gcc/arm-none-eabi/12.2.1/../../../arm-none-eabi/lib/thumb/v7e-m+fp/hard/libg.a(lib_a-strtoull.o)
 .bss           0x200039e0        0x0 /usr/lib/gcc/arm-none-eabi/12.2.1/../../../arm-none-eabi/lib/thumb/v7e-m+fp/hard/libg.a(lib_a-svfiprintf.o)
 .bss           0x200039e0        0x0 /usr/lib/gcc/arm-none-eabi/12.2.1/../../../arm-none-eabi/lib/thumb/v7e-m+fp/hard/libg.a(lib_a-svfiscanf.o)
 .bss           0x200039e0        0x0 /usr/lib/gcc/arm-none-eabi/12.2.1/../../../arm-none-eabi/lib/thumb/v7e-m+fp/hard/libg.a(lib_a-ungetc.o)
 .bss           0x200039e0        0x0 /usr/lib/gcc/arm-none-eabi/12.2.1/../../../arm-none-eabi/lib/thumb/v7e-m+fp/hard/libg.a(lib_a-wctomb_r.o)
 .bss           0x200039e0        0x0 /usr/lib/gcc/arm-none-eabi/12.2.1/../../../arm-none-eabi/lib/thumb/v7e-m+fp/hard/libg.a(lib_a-assert.o)
 .bss           0x200039e0        0x0 /usr/lib/gcc/arm-none-eabi/12.2.1/../../../arm-none-eabi/lib/thumb/v7e-m+fp/hard/libg.a(lib_a-callocr.o)
 .bss           0x200039e0        0x0 /usr/lib/gcc/arm-none-eabi/12.2.1/../../../arm-none-eabi/lib/thumb/v7e-m+fp/hard/libg.a(lib_a-fflush.o)
 .bss           0x200039e0        0x0 /usr/lib/gcc/arm-none-eabi/12.2.1/../../../arm-none-eabi/lib/thumb/v7e-m+fp/hard/libg.a(lib_a-findfp.o)
 .bss           0x200039e0        0x0 /usr/lib/gcc/arm-none-eabi/12.2.1/../../../arm-none-eabi/lib/thumb/v7e-m+fp/hard/libg.a(lib_a-fiprintf.o)
 .bss           0x200039e0        0x0 /usr/lib/gcc/arm-none-eabi/12.2.1/../../../arm-none-eabi/lib/thumb/v7e-m+fp/hard/libg.a(lib_a-freer.o)
 .bss           0x200039e0        0x0 /usr/lib/gcc/arm-none-eabi/12.2.1/../../../arm-none-eabi/lib/thumb/v7e-m+fp/hard/libg.a(lib_a-fwalk.o)
 .bss           0x200039e0        0x0 /usr/lib/gcc/arm-none-eabi/12.2.1/../../../arm-none-eabi/lib/thumb/v7e-m+fp/hard/libg.a(lib_a-gdtoa-gethex.o)
 .bss           0x200039e0        0x0 /usr/lib/gcc/arm-none-eabi/12.2.1/../../../arm-none-eabi/lib/thumb/v7e-m+fp/hard/libg.a(lib_a-gdtoa-hexnan.o)
 .bss           0x200039e0        0x0 /usr/lib/gcc/arm-none-eabi/12.2.1/../../../arm-none-eabi/lib/thumb/v7e-m+fp/hard/libg.a(lib_a-lnumeric.o)
 .bss           0x200039e0        0x0 /usr/lib/gcc/arm-none-eabi/12.2.1/../../../arm-none-eabi/lib/thumb/v7e-m+fp/hard/libg.a(lib_a-memmove.o)
 .bss           0x200039e0        0x0 /usr/lib/gcc/arm-none-eabi/12.2.1/../../../arm-none-eabi/lib/thumb/v7e-m+fp/hard/libg.a(lib_a-reallocr.o)
 .bss           0x200039e0        0x0 /usr/lib/gcc/arm-none-eabi/12.2.1/../../../arm-none-eabi/lib/thumb/v7e-m+fp/hard/libg.a(lib_a-s_nan.o)
 .bss           0x200039e0        0x0 /usr/lib/gcc/arm-none-eabi/12.2.1/../../../arm-none-eabi/lib/thumb/v7e-m+fp/hard/libg.a(lib_a-strncmp.o)
 .bss           0x200039e0        0x0 /usr/lib/gcc/arm-none-eabi/12.2.1/../../../arm-none-eabi/lib/thumb/v7e-m+fp/hard/libg.a(lib_a-vfiprintf.o)
 .bss           0x200039e0        0x0 /usr/lib/gcc/arm-none-eabi/12.2.1/../../../arm-none-eabi/lib/thumb/v7e-m+fp/hard/libg.a(lib_a-wsetup.o)
 .bss           0x200039e0        0x0 /usr/lib/gcc/arm-none-eabi/12.2.1/../../../arm-none-eabi/lib/thumb/v7e-m+fp/hard/libg.a(lib_a-abort.o)
 .bss           0x200039e0        0x0 /usr/lib/gcc/arm-none-eabi/12.2.1/../../../arm-none-eabi/lib/thumb/v7e-m+fp/hard/libg.a(lib_a-fclose.o)
 .bss           0x200039e0        0x0 /usr/lib/gcc/arm-none-eabi/12.2.1/../../../arm-none-eabi/lib/thumb/v7e-m+fp/hard/libg.a(lib_a-fputwc.o)
 .bss           0x200039e0        0x0 /usr/lib/gcc/arm-none-eabi/12.2.1/../../../arm-none-eabi/lib/thumb/v7e-m+fp/hard/libg.a(lib_a-fvwrite.o)
 .bss           0x200039e0        0x0 /usr/lib/gcc/arm-none-eabi/12.2.1/../../../arm-none-eabi/lib/thumb/v7e-m+fp/hard/libg.a(lib_a-makebuf.o)
 .bss           0x200039e0        0x0 /usr/lib/gcc/arm-none-eabi/12.2.1/../../../arm-none-eabi/lib/thumb/v7e-m+fp/hard/libg.a(lib_a-signal.o)
 .bss           0x200039e0        0x0 /usr/lib/gcc/arm-none-eabi/12.2.1/../../../arm-none-eabi/lib/thumb/v7e-m+fp/hard/libg.a(lib_a-signalr.o)
 .bss           0x200039e0        0x0 /usr/lib/gcc/arm-none-eabi/12.2.1/../../../arm-none-eabi/lib/thumb/v7e-m+fp/hard/libg.a(lib_a-wbuf.o)
 .bss           0x200039e0        0x0 /usr/lib/gcc/arm-none-eabi/12.2.1/../../../arm-none-eabi/lib/thumb/v7e-m+fp/hard/libg.a(lib_a-wcrtomb.o)
 .bss           0x200039e0        0x0 /usr/lib/gcc/arm-none-eabi/12.2.1/../../../arm-none-eabi/lib/thumb/v7e-m+fp/hard/libg.a(lib_a-fstatr.o)
 .bss           0x200039e0        0x0 /usr/lib/gcc/arm-none-eabi/12.2.1/../../../arm-none-eabi/lib/thumb/v7e-m+fp/hard/libg.a(lib_a-isattyr.o)
 .bss           0x200039e0        0x0 /usr/lib/gcc/arm-none-eabi/12.2.1/thumb/v7e-m+fp/hard/libgcc.a(_arm_muldf3.o)
 .bss           0x200039e0        0x0 /usr/lib/gcc/arm-none-eabi/12.2.1/thumb/v7e-m+fp/hard/libgcc.a(_arm_addsubdf3.o)
 .bss           0x200039e0        0x0 /usr/lib/gcc/arm-none-eabi/12.2.1/thumb/v7e-m+fp/hard/libgcc.a(_arm_muldivdf3.o)
 .bss           0x200039e0        0x0 /usr/lib/gcc/arm-none-eabi/12.2.1/thumb/v7e-m+fp/hard/libgcc.a(_arm_cmpdf2.o)
 .bss           0x200039e0        0x0 /usr/lib/gcc/arm-none-eabi/12.2.1/thumb/v7e-m+fp/hard/libgcc.a(_arm_unorddf2.o)
 .bss           0x200039e0        0x0 /usr/lib/gcc/arm-none-eabi/12.2.1/thumb/v7e-m+fp/hard/libgcc.a(_arm_fixdfsi.o)
 .bss           0x200039e0        0x0 /usr/lib/gcc/arm-none-eabi/12.2.1/thumb/v7e-m+fp/hard/libgcc.a(_arm_fixunsdfsi.o)
 .bss           0x200039e0        0x0 /usr/lib/gcc/arm-none-eabi/12.2.1/thumb/v7e-m+fp/hard/libgcc.a(_arm_truncdfsf2.o)
 .bss           0x200039e0        0x0 /usr/lib/gcc/arm-none-eabi/12.2.1/thumb/v7e-m+fp/hard/libgcc.a(_aeabi_uldivmod.o)
 .bss           0x200039e0        0x0 /usr/lib/gcc/arm-none-eabi/12.2.1/thumb/v7e-m+fp/hard/libgcc.a(_fixdfdi.o)
 .bss           0x200039e0        0x0 /usr/lib/gcc/arm-none-eabi/12.2.1/thumb/v7e-m+fp/hard/libgcc.a(_fixunsdfdi.o)
 .bss           0x200039e0        0x0 /usr/lib/gcc/arm-none-eabi/12.2.1/thumb/v7e-m+fp/hard/libgcc.a(_udivmoddi4.o)
 .bss           0x200039e0        0x0 /usr/lib/gcc/arm-none-eabi/12.2.1/thumb/v7e-m+fp/hard/libgcc.a(_dvmd_tls.o)
 .bss           0x200039e0        0x0 /usr/lib/gcc/arm-none-eabi/12.2.1/../../../arm-none-eabi/lib/thumb/v7e-m+fp/hard/libnosys.a(close.o)
 .bss           0x200039e0        0x0 /usr/lib/gcc/arm-none-eabi/12.2.1/../../../arm-none-eabi/lib/thumb/v7e-m+fp/hard/libnosys.a(fstat.o)
 .bss           0x200039e0        0x0 /usr/lib/gcc/arm-none-eabi/12.2.1/../../../arm-none-eabi/lib/thumb/v7e-m+fp/hard/libnosys.a(getpid.o)
 .bss           0x200039e0        0x0 /usr/lib/gcc/arm-none-eabi/12.2.1/../../../arm-none-eabi/lib/thumb/v7e-m+fp/hard/libnosys.a(isatty.o)
 .bss           0x200039e0        0x0 /usr/lib/gcc/arm-none-eabi/12.2.1/../../../arm-none-eabi/lib/thumb/v7e-m+fp/hard/libnosys.a(kill.o)
 .bss           0x200039e0        0x0 /usr/lib/gcc/arm-none-eabi/12.2.1/../../../arm-none-eabi/lib/thumb/v7e-m+fp/hard/libnosys.a(lseek.o)
 .bss           0x200039e0        0x0 /usr/lib/gcc/arm-none-eabi/12.2.1/../../../arm-none-eabi/lib/thumb/v7e-m+fp/hard/libnosys.a(read.o)
 .bss           0x200039e0        0x4 /usr/lib/gcc/arm-none-eabi/12.2.1/../../../arm-none-eabi/lib/thumb/v7e-m+fp/hard/libnosys.a(sbrk.o)
 .bss           0x200039e4        0x0 /usr/lib/gcc/arm-none-eabi/12.2.1/../../../arm-none-eabi/lib/thumb/v7e-m+fp/hard/libnosys.a(write.o)
 .bss           0x200039e4        0x0 /usr/lib/gcc/arm-none-eabi/12.2.1/../../../arm-none-eabi/lib/thumb/v7e-m+fp/hard/libnosys.a(_exit.o)
 *(COMMON)
                0x200039e4                        _ebss = .
                0x200039e4                        __bss_end__ = .
                0x200039e4                        end = .
                0x2001fe00                        . = _sstack

.stack          0x200039e4      0x200 load address 0x08016210
                0x20003be4                        . = (. + STACK_SIZE)
 *fill*         0x200039e4      0x200 
OUTPUT(./bin/NauteffAutoPilot.elf elf32-littlearm)
LOAD linker stubs

.debug_info     0x00000000    0x3bdd7
 .debug_info    0x00000000      0x275 bin/obj/adc.o
 .debug_info    0x00000275      0x5c8 bin/obj/bno055.o
 .debug_info    0x0000083d       0x77 bin/obj/croutine.o
 .debug_info    0x000008b4      0x4a1 bin/obj/dialog.o
 .debug_info    0x00000d55      0x570 bin/obj/dma.o
 .debug_info    0x000012c5      0x8ec bin/obj/event_groups.o
 .debug_info    0x00001bb1      0x3d7 bin/obj/exti.o
 .debug_info    0x00001f88      0x281 bin/obj/gpio.o
 .debug_info    0x00002209      0x4bb bin/obj/heap.o
 .debug_info    0x000026c4      0x5c5 bin/obj/i2c.o
 .debug_info    0x00002c89      0x2a3 bin/obj/list.o
 .debug_info    0x00002f2c      0x3c4 bin/obj/main.o
 .debug_info    0x000032f0      0x735 bin/obj/mems.o
 .debug_info    0x00003a25      0x6f2 bin/obj/motor.o
 .debug_info    0x00004117      0x498 bin/obj/port.o
 .debug_info    0x000045af     0x1609 bin/obj/queue.o
 .debug_info    0x00005bb8       0xbe bin/obj/rcc.o
 .debug_info    0x00005c76     0x112e bin/obj/stream_buffer.o
 .debug_info    0x00006da4      0xcd6 bin/obj/sys.o
 .debug_info    0x00007a7a     0x209d bin/obj/tasks.o
 .debug_info    0x00009b17      0xd65 bin/obj/timers.o
 .debug_info    0x0000a87c      0x901 bin/obj/usart.o
 .debug_info    0x0000b17d      0x178 /usr/lib/gcc/arm-none-eabi/12.2.1/../../../arm-none-eabi/lib/thumb/v7e-m+fp/hard/libm.a(lib_a-w_sqrt.o)
 .debug_info    0x0000b2f5      0x2b3 /usr/lib/gcc/arm-none-eabi/12.2.1/../../../arm-none-eabi/lib/thumb/v7e-m+fp/hard/libm.a(lib_a-e_sqrt.o)
 .debug_info    0x0000b5a8       0xbc /usr/lib/gcc/arm-none-eabi/12.2.1/../../../arm-none-eabi/lib/thumb/v7e-m+fp/hard/libm.a(lib_a-s_lib_ver.o)
 .debug_info    0x0000b664       0xb9 /usr/lib/gcc/arm-none-eabi/12.2.1/../../../arm-none-eabi/lib/thumb/v7e-m+fp/hard/libg.a(lib_a-ctype_.o)
 .debug_info    0x0000b71d      0x8a9 /usr/lib/gcc/arm-none-eabi/12.2.1/../../../arm-none-eabi/lib/thumb/v7e-m+fp/hard/libg.a(lib_a-errno.o)
 .debug_info    0x0000bfc6      0x8be /usr/lib/gcc/arm-none-eabi/12.2.1/../../../arm-none-eabi/lib/thumb/v7e-m+fp/hard/libg.a(lib_a-impure.o)
 .debug_info    0x0000c884       0x33 /usr/lib/gcc/arm-none-eabi/12.2.1/../../../arm-none-eabi/lib/thumb/v7e-m+fp/hard/libg.a(lib_a-memcpy.o)
 .debug_info    0x0000c8b7      0x135 /usr/lib/gcc/arm-none-eabi/12.2.1/../../../arm-none-eabi/lib/thumb/v7e-m+fp/hard/libg.a(lib_a-memset.o)
 .debug_info    0x0000c9ec      0xa2d /usr/lib/gcc/arm-none-eabi/12.2.1/../../../arm-none-eabi/lib/thumb/v7e-m+fp/hard/libg.a(lib_a-sprintf.o)
 .debug_info    0x0000d419      0xa98 /usr/lib/gcc/arm-none-eabi/12.2.1/../../../arm-none-eabi/lib/thumb/v7e-m+fp/hard/libg.a(lib_a-sscanf.o)
 .debug_info    0x0000deb1      0xbfc /usr/lib/gcc/arm-none-eabi/12.2.1/../../../arm-none-eabi/lib/thumb/v7e-m+fp/hard/libg.a(lib_a-stdio.o)
 .debug_info    0x0000eaad       0x33 /usr/lib/gcc/arm-none-eabi/12.2.1/../../../arm-none-eabi/lib/thumb/v7e-m+fp/hard/libg.a(lib_a-strlen.o)
 .debug_info    0x0000eae0     0x1937 /usr/lib/gcc/arm-none-eabi/12.2.1/../../../arm-none-eabi/lib/thumb/v7e-m+fp/hard/libg.a(lib_a-svfprintf.o)
 .debug_info    0x00010417     0x1843 /usr/lib/gcc/arm-none-eabi/12.2.1/../../../arm-none-eabi/lib/thumb/v7e-m+fp/hard/libg.a(lib_a-svfscanf.o)
 .debug_info    0x00011c5a      0x961 /usr/lib/gcc/arm-none-eabi/12.2.1/../../../arm-none-eabi/lib/thumb/v7e-m+fp/hard/libg.a(lib_a-writer.o)
 .debug_info    0x000125bb      0x905 /usr/lib/gcc/arm-none-eabi/12.2.1/../../../arm-none-eabi/lib/thumb/v7e-m+fp/hard/libg.a(lib_a-closer.o)
 .debug_info    0x00012ec0     0x1aa5 /usr/lib/gcc/arm-none-eabi/12.2.1/../../../arm-none-eabi/lib/thumb/v7e-m+fp/hard/libg.a(lib_a-dtoa.o)
 .debug_info    0x00014965       0xeb /usr/lib/gcc/arm-none-eabi/12.2.1/../../../arm-none-eabi/lib/thumb/v7e-m+fp/hard/libg.a(lib_a-iswspace.o)
 .debug_info    0x00014a50      0xb54 /usr/lib/gcc/arm-none-eabi/12.2.1/../../../arm-none-eabi/lib/thumb/v7e-m+fp/hard/libg.a(lib_a-iswspace_l.o)
 .debug_info    0x000155a4      0xd7c /usr/lib/gcc/arm-none-eabi/12.2.1/../../../arm-none-eabi/lib/thumb/v7e-m+fp/hard/libg.a(lib_a-locale.o)
 .debug_info    0x00016320      0xbd1 /usr/lib/gcc/arm-none-eabi/12.2.1/../../../arm-none-eabi/lib/thumb/v7e-m+fp/hard/libg.a(lib_a-localeconv.o)
 .debug_info    0x00016ef1      0x944 /usr/lib/gcc/arm-none-eabi/12.2.1/../../../arm-none-eabi/lib/thumb/v7e-m+fp/hard/libg.a(lib_a-lseekr.o)
 .debug_info    0x00017835      0xe59 /usr/lib/gcc/arm-none-eabi/12.2.1/../../../arm-none-eabi/lib/thumb/v7e-m+fp/hard/libg.a(lib_a-mallocr.o)
 .debug_info    0x0001868e      0xcf7 /usr/lib/gcc/arm-none-eabi/12.2.1/../../../arm-none-eabi/lib/thumb/v7e-m+fp/hard/libg.a(lib_a-mbrtowc.o)
 .debug_info    0x00019385      0xc5b /usr/lib/gcc/arm-none-eabi/12.2.1/../../../arm-none-eabi/lib/thumb/v7e-m+fp/hard/libg.a(lib_a-mbtowc_r.o)
 .debug_info    0x00019fe0       0x25 /usr/lib/gcc/arm-none-eabi/12.2.1/../../../arm-none-eabi/lib/thumb/v7e-m+fp/hard/libg.a(lib_a-memchr.o)
 .debug_info    0x0001a005      0x8d4 /usr/lib/gcc/arm-none-eabi/12.2.1/../../../arm-none-eabi/lib/thumb/v7e-m+fp/hard/libg.a(lib_a-mlock.o)
 .debug_info    0x0001a8d9     0x1fdd /usr/lib/gcc/arm-none-eabi/12.2.1/../../../arm-none-eabi/lib/thumb/v7e-m+fp/hard/libg.a(lib_a-mprec.o)
 .debug_info    0x0001c8b6      0x95b /usr/lib/gcc/arm-none-eabi/12.2.1/../../../arm-none-eabi/lib/thumb/v7e-m+fp/hard/libg.a(lib_a-readr.o)
 .debug_info    0x0001d211      0xb68 /usr/lib/gcc/arm-none-eabi/12.2.1/../../../arm-none-eabi/lib/thumb/v7e-m+fp/hard/libg.a(lib_a-reent.o)
 .debug_info    0x0001dd79      0x92a /usr/lib/gcc/arm-none-eabi/12.2.1/../../../arm-none-eabi/lib/thumb/v7e-m+fp/hard/libg.a(lib_a-sbrkr.o)
 .debug_info    0x0001e6a3      0x10e /usr/lib/gcc/arm-none-eabi/12.2.1/../../../arm-none-eabi/lib/thumb/v7e-m+fp/hard/libg.a(lib_a-sccl.o)
 .debug_info    0x0001e7b1       0xc9 /usr/lib/gcc/arm-none-eabi/12.2.1/../../../arm-none-eabi/lib/thumb/v7e-m+fp/hard/libg.a(lib_a-sf_nan.o)
 .debug_info    0x0001e87a       0x33 /usr/lib/gcc/arm-none-eabi/12.2.1/../../../arm-none-eabi/lib/thumb/v7e-m+fp/hard/libg.a(lib_a-strcmp.o)
 .debug_info    0x0001e8ad     0x1fe2 /usr/lib/gcc/arm-none-eabi/12.2.1/../../../arm-none-eabi/lib/thumb/v7e-m+fp/hard/libg.a(lib_a-strtod.o)
 .debug_info    0x0002088f      0xeba /usr/lib/gcc/arm-none-eabi/12.2.1/../../../arm-none-eabi/lib/thumb/v7e-m+fp/hard/libg.a(lib_a-strtol.o)
 .debug_info    0x00021749      0xe56 /usr/lib/gcc/arm-none-eabi/12.2.1/../../../arm-none-eabi/lib/thumb/v7e-m+fp/hard/libg.a(lib_a-strtoll.o)
 .debug_info    0x0002259f      0xe2e /usr/lib/gcc/arm-none-eabi/12.2.1/../../../arm-none-eabi/lib/thumb/v7e-m+fp/hard/libg.a(lib_a-strtoul.o)
 .debug_info    0x000233cd      0xe5f /usr/lib/gcc/arm-none-eabi/12.2.1/../../../arm-none-eabi/lib/thumb/v7e-m+fp/hard/libg.a(lib_a-strtoull.o)
 .debug_info    0x0002422c     0x1347 /usr/lib/gcc/arm-none-eabi/12.2.1/../../../arm-none-eabi/lib/thumb/v7e-m+fp/hard/libg.a(lib_a-svfiprintf.o)
 .debug_info    0x00025573     0x1baf /usr/lib/gcc/arm-none-eabi/12.2.1/../../../arm-none-eabi/lib/thumb/v7e-m+fp/hard/libg.a(lib_a-svfiscanf.o)
 .debug_info    0x00027122      0xaed /usr/lib/gcc/arm-none-eabi/12.2.1/../../../arm-none-eabi/lib/thumb/v7e-m+fp/hard/libg.a(lib_a-ungetc.o)
 .debug_info    0x00027c0f      0xc17 /usr/lib/gcc/arm-none-eabi/12.2.1/../../../arm-none-eabi/lib/thumb/v7e-m+fp/hard/libg.a(lib_a-wctomb_r.o)
 .debug_info    0x00028826      0x9cb /usr/lib/gcc/arm-none-eabi/12.2.1/../../../arm-none-eabi/lib/thumb/v7e-m+fp/hard/libg.a(lib_a-assert.o)
 .debug_info    0x000291f1      0xa54 /usr/lib/gcc/arm-none-eabi/12.2.1/../../../arm-none-eabi/lib/thumb/v7e-m+fp/hard/libg.a(lib_a-callocr.o)
 .debug_info    0x00029c45      0xba0 /usr/lib/gcc/arm-none-eabi/12.2.1/../../../arm-none-eabi/lib/thumb/v7e-m+fp/hard/libg.a(lib_a-fflush.o)
 .debug_info    0x0002a7e5      0xfbf /usr/lib/gcc/arm-none-eabi/12.2.1/../../../arm-none-eabi/lib/thumb/v7e-m+fp/hard/libg.a(lib_a-findfp.o)
 .debug_info    0x0002b7a4      0x9fa /usr/lib/gcc/arm-none-eabi/12.2.1/../../../arm-none-eabi/lib/thumb/v7e-m+fp/hard/libg.a(lib_a-fiprintf.o)
 .debug_info    0x0002c19e      0xcc0 /usr/lib/gcc/arm-none-eabi/12.2.1/../../../arm-none-eabi/lib/thumb/v7e-m+fp/hard/libg.a(lib_a-freer.o)
 .debug_info    0x0002ce5e      0x9e7 /usr/lib/gcc/arm-none-eabi/12.2.1/../../../arm-none-eabi/lib/thumb/v7e-m+fp/hard/libg.a(lib_a-fwalk.o)
 .debug_info    0x0002d845     0x1497 /usr/lib/gcc/arm-none-eabi/12.2.1/../../../arm-none-eabi/lib/thumb/v7e-m+fp/hard/libg.a(lib_a-gdtoa-gethex.o)
 .debug_info    0x0002ecdc      0x3cb /usr/lib/gcc/arm-none-eabi/12.2.1/../../../arm-none-eabi/lib/thumb/v7e-m+fp/hard/libg.a(lib_a-gdtoa-hexnan.o)
 .debug_info    0x0002f0a7      0xbda /usr/lib/gcc/arm-none-eabi/12.2.1/../../../arm-none-eabi/lib/thumb/v7e-m+fp/hard/libg.a(lib_a-lnumeric.o)
 .debug_info    0x0002fc81      0x148 /usr/lib/gcc/arm-none-eabi/12.2.1/../../../arm-none-eabi/lib/thumb/v7e-m+fp/hard/libg.a(lib_a-memmove.o)
 .debug_info    0x0002fdc9      0xd68 /usr/lib/gcc/arm-none-eabi/12.2.1/../../../arm-none-eabi/lib/thumb/v7e-m+fp/hard/libg.a(lib_a-reallocr.o)
 .debug_info    0x00030b31       0xcd /usr/lib/gcc/arm-none-eabi/12.2.1/../../../arm-none-eabi/lib/thumb/v7e-m+fp/hard/libg.a(lib_a-s_nan.o)
 .debug_info    0x00030bfe      0x108 /usr/lib/gcc/arm-none-eabi/12.2.1/../../../arm-none-eabi/lib/thumb/v7e-m+fp/hard/libg.a(lib_a-strncmp.o)
 .debug_info    0x00030d06     0x18fe /usr/lib/gcc/arm-none-eabi/12.2.1/../../../arm-none-eabi/lib/thumb/v7e-m+fp/hard/libg.a(lib_a-vfiprintf.o)
 .debug_info    0x00032604      0x969 /usr/lib/gcc/arm-none-eabi/12.2.1/../../../arm-none-eabi/lib/thumb/v7e-m+fp/hard/libg.a(lib_a-wsetup.o)
 .debug_info    0x00032f6d       0xd8 /usr/lib/gcc/arm-none-eabi/12.2.1/../../../arm-none-eabi/lib/thumb/v7e-m+fp/hard/libg.a(lib_a-abort.o)
 .debug_info    0x00033045      0xa7a /usr/lib/gcc/arm-none-eabi/12.2.1/../../../arm-none-eabi/lib/thumb/v7e-m+fp/hard/libg.a(lib_a-fclose.o)
 .debug_info    0x00033abf      0xbf1 /usr/lib/gcc/arm-none-eabi/12.2.1/../../../arm-none-eabi/lib/thumb/v7e-m+fp/hard/libg.a(lib_a-fputwc.o)
 .debug_info    0x000346b0      0xcdc /usr/lib/gcc/arm-none-eabi/12.2.1/../../../arm-none-eabi/lib/thumb/v7e-m+fp/hard/libg.a(lib_a-fvwrite.o)
 .debug_info    0x0003538c      0xdae /usr/lib/gcc/arm-none-eabi/12.2.1/../../../arm-none-eabi/lib/thumb/v7e-m+fp/hard/libg.a(lib_a-makebuf.o)
 .debug_info    0x0003613a      0xddf /usr/lib/gcc/arm-none-eabi/12.2.1/../../../arm-none-eabi/lib/thumb/v7e-m+fp/hard/libg.a(lib_a-signal.o)
 .debug_info    0x00036f19      0x98c /usr/lib/gcc/arm-none-eabi/12.2.1/../../../arm-none-eabi/lib/thumb/v7e-m+fp/hard/libg.a(lib_a-signalr.o)
 .debug_info    0x000378a5      0xa0f /usr/lib/gcc/arm-none-eabi/12.2.1/../../../arm-none-eabi/lib/thumb/v7e-m+fp/hard/libg.a(lib_a-wbuf.o)
 .debug_info    0x000382b4      0xcd7 /usr/lib/gcc/arm-none-eabi/12.2.1/../../../arm-none-eabi/lib/thumb/v7e-m+fp/hard/libg.a(lib_a-wcrtomb.o)
 .debug_info    0x00038f8b      0xb23 /usr/lib/gcc/arm-none-eabi/12.2.1/../../../arm-none-eabi/lib/thumb/v7e-m+fp/hard/libg.a(lib_a-fstatr.o)
 .debug_info    0x00039aae      0x905 /usr/lib/gcc/arm-none-eabi/12.2.1/../../../arm-none-eabi/lib/thumb/v7e-m+fp/hard/libg.a(lib_a-isattyr.o)
 .debug_info    0x0003a3b3       0x3c /usr/lib/gcc/arm-none-eabi/12.2.1/thumb/v7e-m+fp/hard/libgcc.a(_arm_muldf3.o)
 .debug_info    0x0003a3ef       0xb6 /usr/lib/gcc/arm-none-eabi/12.2.1/thumb/v7e-m+fp/hard/libgcc.a(_arm_addsubdf3.o)
 .debug_info    0x0003a4a5       0x52 /usr/lib/gcc/arm-none-eabi/12.2.1/thumb/v7e-m+fp/hard/libgcc.a(_arm_muldivdf3.o)
 .debug_info    0x0003a4f7       0xc0 /usr/lib/gcc/arm-none-eabi/12.2.1/thumb/v7e-m+fp/hard/libgcc.a(_arm_cmpdf2.o)
 .debug_info    0x0003a5b7       0x39 /usr/lib/gcc/arm-none-eabi/12.2.1/thumb/v7e-m+fp/hard/libgcc.a(_arm_unorddf2.o)
 .debug_info    0x0003a5f0       0x39 /usr/lib/gcc/arm-none-eabi/12.2.1/thumb/v7e-m+fp/hard/libgcc.a(_arm_fixdfsi.o)
 .debug_info    0x0003a629       0x39 /usr/lib/gcc/arm-none-eabi/12.2.1/thumb/v7e-m+fp/hard/libgcc.a(_arm_fixunsdfsi.o)
 .debug_info    0x0003a662       0x3c /usr/lib/gcc/arm-none-eabi/12.2.1/thumb/v7e-m+fp/hard/libgcc.a(_arm_truncdfsf2.o)
 .debug_info    0x0003a69e       0x24 /usr/lib/gcc/arm-none-eabi/12.2.1/thumb/v7e-m+fp/hard/libgcc.a(_aeabi_uldivmod.o)
 .debug_info    0x0003a6c2      0x329 /usr/lib/gcc/arm-none-eabi/12.2.1/thumb/v7e-m+fp/hard/libgcc.a(_fixdfdi.o)
 .debug_info    0x0003a9eb      0x36e /usr/lib/gcc/arm-none-eabi/12.2.1/thumb/v7e-m+fp/hard/libgcc.a(_fixunsdfdi.o)
 .debug_info    0x0003ad59      0x6ef /usr/lib/gcc/arm-none-eabi/12.2.1/thumb/v7e-m+fp/hard/libgcc.a(_udivmoddi4.o)
 .debug_info    0x0003b448       0x39 /usr/lib/gcc/arm-none-eabi/12.2.1/thumb/v7e-m+fp/hard/libgcc.a(_dvmd_tls.o)
 .debug_info    0x0003b481       0xb2 /usr/lib/gcc/arm-none-eabi/12.2.1/../../../arm-none-eabi/lib/thumb/v7e-m+fp/hard/libnosys.a(close.o)
 .debug_info    0x0003b533      0x2cb /usr/lib/gcc/arm-none-eabi/12.2.1/../../../arm-none-eabi/lib/thumb/v7e-m+fp/hard/libnosys.a(fstat.o)
 .debug_info    0x0003b7fe       0x9d /usr/lib/gcc/arm-none-eabi/12.2.1/../../../arm-none-eabi/lib/thumb/v7e-m+fp/hard/libnosys.a(getpid.o)
 .debug_info    0x0003b89b       0xb2 /usr/lib/gcc/arm-none-eabi/12.2.1/../../../arm-none-eabi/lib/thumb/v7e-m+fp/hard/libnosys.a(isatty.o)
 .debug_info    0x0003b94d       0xc0 /usr/lib/gcc/arm-none-eabi/12.2.1/../../../arm-none-eabi/lib/thumb/v7e-m+fp/hard/libnosys.a(kill.o)
 .debug_info    0x0003ba0d       0xd4 /usr/lib/gcc/arm-none-eabi/12.2.1/../../../arm-none-eabi/lib/thumb/v7e-m+fp/hard/libnosys.a(lseek.o)
 .debug_info    0x0003bae1       0xda /usr/lib/gcc/arm-none-eabi/12.2.1/../../../arm-none-eabi/lib/thumb/v7e-m+fp/hard/libnosys.a(read.o)
 .debug_info    0x0003bbbb       0x9e /usr/lib/gcc/arm-none-eabi/12.2.1/../../../arm-none-eabi/lib/thumb/v7e-m+fp/hard/libnosys.a(sbrk.o)
 .debug_info    0x0003bc59       0xda /usr/lib/gcc/arm-none-eabi/12.2.1/../../../arm-none-eabi/lib/thumb/v7e-m+fp/hard/libnosys.a(write.o)
 .debug_info    0x0003bd33       0xa4 /usr/lib/gcc/arm-none-eabi/12.2.1/../../../arm-none-eabi/lib/thumb/v7e-m+fp/hard/libnosys.a(_exit.o)

.debug_abbrev   0x00000000     0xd5dd
 .debug_abbrev  0x00000000       0xf0 bin/obj/adc.o
 .debug_abbrev  0x000000f0      0x1ab bin/obj/bno055.o
 .debug_abbrev  0x0000029b       0x28 bin/obj/croutine.o
 .debug_abbrev  0x000002c3      0x191 bin/obj/dialog.o
 .debug_abbrev  0x00000454      0x1cf bin/obj/dma.o
 .debug_abbrev  0x00000623      0x29f bin/obj/event_groups.o
 .debug_abbrev  0x000008c2      0x142 bin/obj/exti.o
 .debug_abbrev  0x00000a04       0xda bin/obj/gpio.o
 .debug_abbrev  0x00000ade      0x21e bin/obj/heap.o
 .debug_abbrev  0x00000cfc      0x262 bin/obj/i2c.o
 .debug_abbrev  0x00000f5e       0xf5 bin/obj/list.o
 .debug_abbrev  0x00001053      0x1f0 bin/obj/main.o
 .debug_abbrev  0x00001243      0x1f2 bin/obj/mems.o
 .debug_abbrev  0x00001435      0x1e2 bin/obj/motor.o
 .debug_abbrev  0x00001617      0x247 bin/obj/port.o
 .debug_abbrev  0x0000185e      0x323 bin/obj/queue.o
 .debug_abbrev  0x00001b81       0x6e bin/obj/rcc.o
 .debug_abbrev  0x00001bef      0x30a bin/obj/stream_buffer.o
 .debug_abbrev  0x00001ef9      0x249 bin/obj/sys.o
 .debug_abbrev  0x00002142      0x358 bin/obj/tasks.o
 .debug_abbrev  0x0000249a      0x2b0 bin/obj/timers.o
 .debug_abbrev  0x0000274a      0x35d bin/obj/usart.o
 .debug_abbrev  0x00002aa7      0x10f /usr/lib/gcc/arm-none-eabi/12.2.1/../../../arm-none-eabi/lib/thumb/v7e-m+fp/hard/libm.a(lib_a-w_sqrt.o)
 .debug_abbrev  0x00002bb6      0x157 /usr/lib/gcc/arm-none-eabi/12.2.1/../../../arm-none-eabi/lib/thumb/v7e-m+fp/hard/libm.a(lib_a-e_sqrt.o)
 .debug_abbrev  0x00002d0d       0x6f /usr/lib/gcc/arm-none-eabi/12.2.1/../../../arm-none-eabi/lib/thumb/v7e-m+fp/hard/libm.a(lib_a-s_lib_ver.o)
 .debug_abbrev  0x00002d7c       0x62 /usr/lib/gcc/arm-none-eabi/12.2.1/../../../arm-none-eabi/lib/thumb/v7e-m+fp/hard/libg.a(lib_a-ctype_.o)
 .debug_abbrev  0x00002dde      0x1ce /usr/lib/gcc/arm-none-eabi/12.2.1/../../../arm-none-eabi/lib/thumb/v7e-m+fp/hard/libg.a(lib_a-errno.o)
 .debug_abbrev  0x00002fac      0x1ca /usr/lib/gcc/arm-none-eabi/12.2.1/../../../arm-none-eabi/lib/thumb/v7e-m+fp/hard/libg.a(lib_a-impure.o)
 .debug_abbrev  0x00003176       0x28 /usr/lib/gcc/arm-none-eabi/12.2.1/../../../arm-none-eabi/lib/thumb/v7e-m+fp/hard/libg.a(lib_a-memcpy.o)
 .debug_abbrev  0x0000319e       0xb7 /usr/lib/gcc/arm-none-eabi/12.2.1/../../../arm-none-eabi/lib/thumb/v7e-m+fp/hard/libg.a(lib_a-memset.o)
 .debug_abbrev  0x00003255      0x28c /usr/lib/gcc/arm-none-eabi/12.2.1/../../../arm-none-eabi/lib/thumb/v7e-m+fp/hard/libg.a(lib_a-sprintf.o)
 .debug_abbrev  0x000034e1      0x296 /usr/lib/gcc/arm-none-eabi/12.2.1/../../../arm-none-eabi/lib/thumb/v7e-m+fp/hard/libg.a(lib_a-sscanf.o)
 .debug_abbrev  0x00003777      0x294 /usr/lib/gcc/arm-none-eabi/12.2.1/../../../arm-none-eabi/lib/thumb/v7e-m+fp/hard/libg.a(lib_a-stdio.o)
 .debug_abbrev  0x00003a0b       0x28 /usr/lib/gcc/arm-none-eabi/12.2.1/../../../arm-none-eabi/lib/thumb/v7e-m+fp/hard/libg.a(lib_a-strlen.o)
 .debug_abbrev  0x00003a33      0x40d /usr/lib/gcc/arm-none-eabi/12.2.1/../../../arm-none-eabi/lib/thumb/v7e-m+fp/hard/libg.a(lib_a-svfprintf.o)
 .debug_abbrev  0x00003e40      0x3fb /usr/lib/gcc/arm-none-eabi/12.2.1/../../../arm-none-eabi/lib/thumb/v7e-m+fp/hard/libg.a(lib_a-svfscanf.o)
 .debug_abbrev  0x0000423b      0x225 /usr/lib/gcc/arm-none-eabi/12.2.1/../../../arm-none-eabi/lib/thumb/v7e-m+fp/hard/libg.a(lib_a-writer.o)
 .debug_abbrev  0x00004460      0x220 /usr/lib/gcc/arm-none-eabi/12.2.1/../../../arm-none-eabi/lib/thumb/v7e-m+fp/hard/libg.a(lib_a-closer.o)
 .debug_abbrev  0x00004680      0x371 /usr/lib/gcc/arm-none-eabi/12.2.1/../../../arm-none-eabi/lib/thumb/v7e-m+fp/hard/libg.a(lib_a-dtoa.o)
 .debug_abbrev  0x000049f1       0xbc /usr/lib/gcc/arm-none-eabi/12.2.1/../../../arm-none-eabi/lib/thumb/v7e-m+fp/hard/libg.a(lib_a-iswspace.o)
 .debug_abbrev  0x00004aad      0x1eb /usr/lib/gcc/arm-none-eabi/12.2.1/../../../arm-none-eabi/lib/thumb/v7e-m+fp/hard/libg.a(lib_a-iswspace_l.o)
 .debug_abbrev  0x00004c98      0x2e6 /usr/lib/gcc/arm-none-eabi/12.2.1/../../../arm-none-eabi/lib/thumb/v7e-m+fp/hard/libg.a(lib_a-locale.o)
 .debug_abbrev  0x00004f7e      0x277 /usr/lib/gcc/arm-none-eabi/12.2.1/../../../arm-none-eabi/lib/thumb/v7e-m+fp/hard/libg.a(lib_a-localeconv.o)
 .debug_abbrev  0x000051f5      0x234 /usr/lib/gcc/arm-none-eabi/12.2.1/../../../arm-none-eabi/lib/thumb/v7e-m+fp/hard/libg.a(lib_a-lseekr.o)
 .debug_abbrev  0x00005429      0x309 /usr/lib/gcc/arm-none-eabi/12.2.1/../../../arm-none-eabi/lib/thumb/v7e-m+fp/hard/libg.a(lib_a-mallocr.o)
 .debug_abbrev  0x00005732      0x24c /usr/lib/gcc/arm-none-eabi/12.2.1/../../../arm-none-eabi/lib/thumb/v7e-m+fp/hard/libg.a(lib_a-mbrtowc.o)
 .debug_abbrev  0x0000597e      0x251 /usr/lib/gcc/arm-none-eabi/12.2.1/../../../arm-none-eabi/lib/thumb/v7e-m+fp/hard/libg.a(lib_a-mbtowc_r.o)
 .debug_abbrev  0x00005bcf       0x14 /usr/lib/gcc/arm-none-eabi/12.2.1/../../../arm-none-eabi/lib/thumb/v7e-m+fp/hard/libg.a(lib_a-memchr.o)
 .debug_abbrev  0x00005be3      0x202 /usr/lib/gcc/arm-none-eabi/12.2.1/../../../arm-none-eabi/lib/thumb/v7e-m+fp/hard/libg.a(lib_a-mlock.o)
 .debug_abbrev  0x00005de5      0x50d /usr/lib/gcc/arm-none-eabi/12.2.1/../../../arm-none-eabi/lib/thumb/v7e-m+fp/hard/libg.a(lib_a-mprec.o)
 .debug_abbrev  0x000062f2      0x220 /usr/lib/gcc/arm-none-eabi/12.2.1/../../../arm-none-eabi/lib/thumb/v7e-m+fp/hard/libg.a(lib_a-readr.o)
 .debug_abbrev  0x00006512      0x2fe /usr/lib/gcc/arm-none-eabi/12.2.1/../../../arm-none-eabi/lib/thumb/v7e-m+fp/hard/libg.a(lib_a-reent.o)
 .debug_abbrev  0x00006810      0x24a /usr/lib/gcc/arm-none-eabi/12.2.1/../../../arm-none-eabi/lib/thumb/v7e-m+fp/hard/libg.a(lib_a-sbrkr.o)
 .debug_abbrev  0x00006a5a       0x9a /usr/lib/gcc/arm-none-eabi/12.2.1/../../../arm-none-eabi/lib/thumb/v7e-m+fp/hard/libg.a(lib_a-sccl.o)
 .debug_abbrev  0x00006af4       0x77 /usr/lib/gcc/arm-none-eabi/12.2.1/../../../arm-none-eabi/lib/thumb/v7e-m+fp/hard/libg.a(lib_a-sf_nan.o)
 .debug_abbrev  0x00006b6b       0x28 /usr/lib/gcc/arm-none-eabi/12.2.1/../../../arm-none-eabi/lib/thumb/v7e-m+fp/hard/libg.a(lib_a-strcmp.o)
 .debug_abbrev  0x00006b93      0x4e2 /usr/lib/gcc/arm-none-eabi/12.2.1/../../../arm-none-eabi/lib/thumb/v7e-m+fp/hard/libg.a(lib_a-strtod.o)
 .debug_abbrev  0x00007075      0x31c /usr/lib/gcc/arm-none-eabi/12.2.1/../../../arm-none-eabi/lib/thumb/v7e-m+fp/hard/libg.a(lib_a-strtol.o)
 .debug_abbrev  0x00007391      0x304 /usr/lib/gcc/arm-none-eabi/12.2.1/../../../arm-none-eabi/lib/thumb/v7e-m+fp/hard/libg.a(lib_a-strtoll.o)
 .debug_abbrev  0x00007695      0x2e9 /usr/lib/gcc/arm-none-eabi/12.2.1/../../../arm-none-eabi/lib/thumb/v7e-m+fp/hard/libg.a(lib_a-strtoul.o)
 .debug_abbrev  0x0000797e      0x304 /usr/lib/gcc/arm-none-eabi/12.2.1/../../../arm-none-eabi/lib/thumb/v7e-m+fp/hard/libg.a(lib_a-strtoull.o)
 .debug_abbrev  0x00007c82      0x31c /usr/lib/gcc/arm-none-eabi/12.2.1/../../../arm-none-eabi/lib/thumb/v7e-m+fp/hard/libg.a(lib_a-svfiprintf.o)
 .debug_abbrev  0x00007f9e      0x451 /usr/lib/gcc/arm-none-eabi/12.2.1/../../../arm-none-eabi/lib/thumb/v7e-m+fp/hard/libg.a(lib_a-svfiscanf.o)
 .debug_abbrev  0x000083ef      0x2e6 /usr/lib/gcc/arm-none-eabi/12.2.1/../../../arm-none-eabi/lib/thumb/v7e-m+fp/hard/libg.a(lib_a-ungetc.o)
 .debug_abbrev  0x000086d5      0x25b /usr/lib/gcc/arm-none-eabi/12.2.1/../../../arm-none-eabi/lib/thumb/v7e-m+fp/hard/libg.a(lib_a-wctomb_r.o)
 .debug_abbrev  0x00008930      0x25a /usr/lib/gcc/arm-none-eabi/12.2.1/../../../arm-none-eabi/lib/thumb/v7e-m+fp/hard/libg.a(lib_a-assert.o)
 .debug_abbrev  0x00008b8a      0x255 /usr/lib/gcc/arm-none-eabi/12.2.1/../../../arm-none-eabi/lib/thumb/v7e-m+fp/hard/libg.a(lib_a-callocr.o)
 .debug_abbrev  0x00008ddf      0x354 /usr/lib/gcc/arm-none-eabi/12.2.1/../../../arm-none-eabi/lib/thumb/v7e-m+fp/hard/libg.a(lib_a-fflush.o)
 .debug_abbrev  0x00009133      0x43d /usr/lib/gcc/arm-none-eabi/12.2.1/../../../arm-none-eabi/lib/thumb/v7e-m+fp/hard/libg.a(lib_a-findfp.o)
 .debug_abbrev  0x00009570      0x286 /usr/lib/gcc/arm-none-eabi/12.2.1/../../../arm-none-eabi/lib/thumb/v7e-m+fp/hard/libg.a(lib_a-fiprintf.o)
 .debug_abbrev  0x000097f6      0x2c2 /usr/lib/gcc/arm-none-eabi/12.2.1/../../../arm-none-eabi/lib/thumb/v7e-m+fp/hard/libg.a(lib_a-freer.o)
 .debug_abbrev  0x00009ab8      0x20f /usr/lib/gcc/arm-none-eabi/12.2.1/../../../arm-none-eabi/lib/thumb/v7e-m+fp/hard/libg.a(lib_a-fwalk.o)
 .debug_abbrev  0x00009cc7      0x40f /usr/lib/gcc/arm-none-eabi/12.2.1/../../../arm-none-eabi/lib/thumb/v7e-m+fp/hard/libg.a(lib_a-gdtoa-gethex.o)
 .debug_abbrev  0x0000a0d6      0x1a9 /usr/lib/gcc/arm-none-eabi/12.2.1/../../../arm-none-eabi/lib/thumb/v7e-m+fp/hard/libg.a(lib_a-gdtoa-hexnan.o)
 .debug_abbrev  0x0000a27f      0x228 /usr/lib/gcc/arm-none-eabi/12.2.1/../../../arm-none-eabi/lib/thumb/v7e-m+fp/hard/libg.a(lib_a-lnumeric.o)
 .debug_abbrev  0x0000a4a7       0xc3 /usr/lib/gcc/arm-none-eabi/12.2.1/../../../arm-none-eabi/lib/thumb/v7e-m+fp/hard/libg.a(lib_a-memmove.o)
 .debug_abbrev  0x0000a56a      0x2d5 /usr/lib/gcc/arm-none-eabi/12.2.1/../../../arm-none-eabi/lib/thumb/v7e-m+fp/hard/libg.a(lib_a-reallocr.o)
 .debug_abbrev  0x0000a83f       0x77 /usr/lib/gcc/arm-none-eabi/12.2.1/../../../arm-none-eabi/lib/thumb/v7e-m+fp/hard/libg.a(lib_a-s_nan.o)
 .debug_abbrev  0x0000a8b6       0x92 /usr/lib/gcc/arm-none-eabi/12.2.1/../../../arm-none-eabi/lib/thumb/v7e-m+fp/hard/libg.a(lib_a-strncmp.o)
 .debug_abbrev  0x0000a948      0x460 /usr/lib/gcc/arm-none-eabi/12.2.1/../../../arm-none-eabi/lib/thumb/v7e-m+fp/hard/libg.a(lib_a-vfiprintf.o)
 .debug_abbrev  0x0000ada8      0x252 /usr/lib/gcc/arm-none-eabi/12.2.1/../../../arm-none-eabi/lib/thumb/v7e-m+fp/hard/libg.a(lib_a-wsetup.o)
 .debug_abbrev  0x0000affa       0x99 /usr/lib/gcc/arm-none-eabi/12.2.1/../../../arm-none-eabi/lib/thumb/v7e-m+fp/hard/libg.a(lib_a-abort.o)
 .debug_abbrev  0x0000b093      0x321 /usr/lib/gcc/arm-none-eabi/12.2.1/../../../arm-none-eabi/lib/thumb/v7e-m+fp/hard/libg.a(lib_a-fclose.o)
 .debug_abbrev  0x0000b3b4      0x381 /usr/lib/gcc/arm-none-eabi/12.2.1/../../../arm-none-eabi/lib/thumb/v7e-m+fp/hard/libg.a(lib_a-fputwc.o)
 .debug_abbrev  0x0000b735      0x28b /usr/lib/gcc/arm-none-eabi/12.2.1/../../../arm-none-eabi/lib/thumb/v7e-m+fp/hard/libg.a(lib_a-fvwrite.o)
 .debug_abbrev  0x0000b9c0      0x30a /usr/lib/gcc/arm-none-eabi/12.2.1/../../../arm-none-eabi/lib/thumb/v7e-m+fp/hard/libg.a(lib_a-makebuf.o)
 .debug_abbrev  0x0000bcca      0x347 /usr/lib/gcc/arm-none-eabi/12.2.1/../../../arm-none-eabi/lib/thumb/v7e-m+fp/hard/libg.a(lib_a-signal.o)
 .debug_abbrev  0x0000c011      0x26d /usr/lib/gcc/arm-none-eabi/12.2.1/../../../arm-none-eabi/lib/thumb/v7e-m+fp/hard/libg.a(lib_a-signalr.o)
 .debug_abbrev  0x0000c27e      0x2a6 /usr/lib/gcc/arm-none-eabi/12.2.1/../../../arm-none-eabi/lib/thumb/v7e-m+fp/hard/libg.a(lib_a-wbuf.o)
 .debug_abbrev  0x0000c524      0x25f /usr/lib/gcc/arm-none-eabi/12.2.1/../../../arm-none-eabi/lib/thumb/v7e-m+fp/hard/libg.a(lib_a-wcrtomb.o)
 .debug_abbrev  0x0000c783      0x233 /usr/lib/gcc/arm-none-eabi/12.2.1/../../../arm-none-eabi/lib/thumb/v7e-m+fp/hard/libg.a(lib_a-fstatr.o)
 .debug_abbrev  0x0000c9b6      0x220 /usr/lib/gcc/arm-none-eabi/12.2.1/../../../arm-none-eabi/lib/thumb/v7e-m+fp/hard/libg.a(lib_a-isattyr.o)
 .debug_abbrev  0x0000cbd6       0x1f /usr/lib/gcc/arm-none-eabi/12.2.1/thumb/v7e-m+fp/hard/libgcc.a(_arm_muldf3.o)
 .debug_abbrev  0x0000cbf5       0x21 /usr/lib/gcc/arm-none-eabi/12.2.1/thumb/v7e-m+fp/hard/libgcc.a(_arm_addsubdf3.o)
 .debug_abbrev  0x0000cc16       0x21 /usr/lib/gcc/arm-none-eabi/12.2.1/thumb/v7e-m+fp/hard/libgcc.a(_arm_muldivdf3.o)
 .debug_abbrev  0x0000cc37       0x21 /usr/lib/gcc/arm-none-eabi/12.2.1/thumb/v7e-m+fp/hard/libgcc.a(_arm_cmpdf2.o)
 .debug_abbrev  0x0000cc58       0x21 /usr/lib/gcc/arm-none-eabi/12.2.1/thumb/v7e-m+fp/hard/libgcc.a(_arm_unorddf2.o)
 .debug_abbrev  0x0000cc79       0x21 /usr/lib/gcc/arm-none-eabi/12.2.1/thumb/v7e-m+fp/hard/libgcc.a(_arm_fixdfsi.o)
 .debug_abbrev  0x0000cc9a       0x21 /usr/lib/gcc/arm-none-eabi/12.2.1/thumb/v7e-m+fp/hard/libgcc.a(_arm_fixunsdfsi.o)
 .debug_abbrev  0x0000ccbb       0x21 /usr/lib/gcc/arm-none-eabi/12.2.1/thumb/v7e-m+fp/hard/libgcc.a(_arm_truncdfsf2.o)
 .debug_abbrev  0x0000ccdc       0x14 /usr/lib/gcc/arm-none-eabi/12.2.1/thumb/v7e-m+fp/hard/libgcc.a(_aeabi_uldivmod.o)
 .debug_abbrev  0x0000ccf0      0x119 /usr/lib/gcc/arm-none-eabi/12.2.1/thumb/v7e-m+fp/hard/libgcc.a(_fixdfdi.o)
 .debug_abbrev  0x0000ce09      0x103 /usr/lib/gcc/arm-none-eabi/12.2.1/thumb/v7e-m+fp/hard/libgcc.a(_fixunsdfdi.o)
 .debug_abbrev  0x0000cf0c      0x16a /usr/lib/gcc/arm-none-eabi/12.2.1/thumb/v7e-m+fp/hard/libgcc.a(_udivmoddi4.o)
 .debug_abbrev  0x0000d076       0x1f /usr/lib/gcc/arm-none-eabi/12.2.1/thumb/v7e-m+fp/hard/libgcc.a(_dvmd_tls.o)
 .debug_abbrev  0x0000d095       0x6c /usr/lib/gcc/arm-none-eabi/12.2.1/../../../arm-none-eabi/lib/thumb/v7e-m+fp/hard/libnosys.a(close.o)
 .debug_abbrev  0x0000d101       0xcc /usr/lib/gcc/arm-none-eabi/12.2.1/../../../arm-none-eabi/lib/thumb/v7e-m+fp/hard/libnosys.a(fstat.o)
 .debug_abbrev  0x0000d1cd       0x58 /usr/lib/gcc/arm-none-eabi/12.2.1/../../../arm-none-eabi/lib/thumb/v7e-m+fp/hard/libnosys.a(getpid.o)
 .debug_abbrev  0x0000d225       0x6c /usr/lib/gcc/arm-none-eabi/12.2.1/../../../arm-none-eabi/lib/thumb/v7e-m+fp/hard/libnosys.a(isatty.o)
 .debug_abbrev  0x0000d291       0x7d /usr/lib/gcc/arm-none-eabi/12.2.1/../../../arm-none-eabi/lib/thumb/v7e-m+fp/hard/libnosys.a(kill.o)
 .debug_abbrev  0x0000d30e       0x91 /usr/lib/gcc/arm-none-eabi/12.2.1/../../../arm-none-eabi/lib/thumb/v7e-m+fp/hard/libnosys.a(lseek.o)
 .debug_abbrev  0x0000d39f       0x9a /usr/lib/gcc/arm-none-eabi/12.2.1/../../../arm-none-eabi/lib/thumb/v7e-m+fp/hard/libnosys.a(read.o)
 .debug_abbrev  0x0000d439       0xa1 /usr/lib/gcc/arm-none-eabi/12.2.1/../../../arm-none-eabi/lib/thumb/v7e-m+fp/hard/libnosys.a(sbrk.o)
 .debug_abbrev  0x0000d4da       0x9a /usr/lib/gcc/arm-none-eabi/12.2.1/../../../arm-none-eabi/lib/thumb/v7e-m+fp/hard/libnosys.a(write.o)
 .debug_abbrev  0x0000d574       0x69 /usr/lib/gcc/arm-none-eabi/12.2.1/../../../arm-none-eabi/lib/thumb/v7e-m+fp/hard/libnosys.a(_exit.o)

.debug_aranges  0x00000000      0xe40
 .debug_aranges
                0x00000000       0x20 bin/obj/adc.o
 .debug_aranges
                0x00000020       0x20 bin/obj/bno055.o
 .debug_aranges
                0x00000040       0x18 bin/obj/croutine.o
 .debug_aranges
                0x00000058       0x20 bin/obj/dialog.o
 .debug_aranges
                0x00000078       0x20 bin/obj/dma.o
 .debug_aranges
                0x00000098       0x20 bin/obj/event_groups.o
 .debug_aranges
                0x000000b8       0x20 bin/obj/exti.o
 .debug_aranges
                0x000000d8       0x20 bin/obj/gpio.o
 .debug_aranges
                0x000000f8       0x20 bin/obj/heap.o
 .debug_aranges
                0x00000118       0x20 bin/obj/i2c.o
 .debug_aranges
                0x00000138       0x20 bin/obj/list.o
 .debug_aranges
                0x00000158       0x20 bin/obj/main.o
 .debug_aranges
                0x00000178       0x20 bin/obj/mems.o
 .debug_aranges
                0x00000198       0x20 bin/obj/motor.o
 .debug_aranges
                0x000001b8       0x20 bin/obj/port.o
 .debug_aranges
                0x000001d8       0x20 bin/obj/queue.o
 .debug_aranges
                0x000001f8       0x20 bin/obj/rcc.o
 .debug_aranges
                0x00000218       0x20 bin/obj/stream_buffer.o
 .debug_aranges
                0x00000238       0x20 bin/obj/sys.o
 .debug_aranges
                0x00000258       0x20 bin/obj/tasks.o
 .debug_aranges
                0x00000278       0x20 bin/obj/timers.o
 .debug_aranges
                0x00000298       0x20 bin/obj/usart.o
 .debug_aranges
                0x000002b8       0x20 /usr/lib/gcc/arm-none-eabi/12.2.1/../../../arm-none-eabi/lib/thumb/v7e-m+fp/hard/libm.a(lib_a-w_sqrt.o)
 .debug_aranges
                0x000002d8       0x20 /usr/lib/gcc/arm-none-eabi/12.2.1/../../../arm-none-eabi/lib/thumb/v7e-m+fp/hard/libm.a(lib_a-e_sqrt.o)
 .debug_aranges
                0x000002f8       0x18 /usr/lib/gcc/arm-none-eabi/12.2.1/../../../arm-none-eabi/lib/thumb/v7e-m+fp/hard/libm.a(lib_a-s_lib_ver.o)
 .debug_aranges
                0x00000310       0x18 /usr/lib/gcc/arm-none-eabi/12.2.1/../../../arm-none-eabi/lib/thumb/v7e-m+fp/hard/libg.a(lib_a-ctype_.o)
 .debug_aranges
                0x00000328       0x20 /usr/lib/gcc/arm-none-eabi/12.2.1/../../../arm-none-eabi/lib/thumb/v7e-m+fp/hard/libg.a(lib_a-errno.o)
 .debug_aranges
                0x00000348       0x18 /usr/lib/gcc/arm-none-eabi/12.2.1/../../../arm-none-eabi/lib/thumb/v7e-m+fp/hard/libg.a(lib_a-impure.o)
 .debug_aranges
                0x00000360       0x20 /usr/lib/gcc/arm-none-eabi/12.2.1/../../../arm-none-eabi/lib/thumb/v7e-m+fp/hard/libg.a(lib_a-memcpy.o)
 .debug_aranges
                0x00000380       0x20 /usr/lib/gcc/arm-none-eabi/12.2.1/../../../arm-none-eabi/lib/thumb/v7e-m+fp/hard/libg.a(lib_a-memset.o)
 .debug_aranges
                0x000003a0       0x20 /usr/lib/gcc/arm-none-eabi/12.2.1/../../../arm-none-eabi/lib/thumb/v7e-m+fp/hard/libg.a(lib_a-sprintf.o)
 .debug_aranges
                0x000003c0       0x20 /usr/lib/gcc/arm-none-eabi/12.2.1/../../../arm-none-eabi/lib/thumb/v7e-m+fp/hard/libg.a(lib_a-sscanf.o)
 .debug_aranges
                0x000003e0       0x20 /usr/lib/gcc/arm-none-eabi/12.2.1/../../../arm-none-eabi/lib/thumb/v7e-m+fp/hard/libg.a(lib_a-stdio.o)
 .debug_aranges
                0x00000400       0x20 /usr/lib/gcc/arm-none-eabi/12.2.1/../../../arm-none-eabi/lib/thumb/v7e-m+fp/hard/libg.a(lib_a-strlen.o)
 .debug_aranges
                0x00000420       0x20 /usr/lib/gcc/arm-none-eabi/12.2.1/../../../arm-none-eabi/lib/thumb/v7e-m+fp/hard/libg.a(lib_a-svfprintf.o)
 .debug_aranges
                0x00000440       0x20 /usr/lib/gcc/arm-none-eabi/12.2.1/../../../arm-none-eabi/lib/thumb/v7e-m+fp/hard/libg.a(lib_a-svfscanf.o)
 .debug_aranges
                0x00000460       0x20 /usr/lib/gcc/arm-none-eabi/12.2.1/../../../arm-none-eabi/lib/thumb/v7e-m+fp/hard/libg.a(lib_a-writer.o)
 .debug_aranges
                0x00000480       0x20 /usr/lib/gcc/arm-none-eabi/12.2.1/../../../arm-none-eabi/lib/thumb/v7e-m+fp/hard/libg.a(lib_a-closer.o)
 .debug_aranges
                0x000004a0       0x20 /usr/lib/gcc/arm-none-eabi/12.2.1/../../../arm-none-eabi/lib/thumb/v7e-m+fp/hard/libg.a(lib_a-dtoa.o)
 .debug_aranges
                0x000004c0       0x20 /usr/lib/gcc/arm-none-eabi/12.2.1/../../../arm-none-eabi/lib/thumb/v7e-m+fp/hard/libg.a(lib_a-iswspace.o)
 .debug_aranges
                0x000004e0       0x20 /usr/lib/gcc/arm-none-eabi/12.2.1/../../../arm-none-eabi/lib/thumb/v7e-m+fp/hard/libg.a(lib_a-iswspace_l.o)
 .debug_aranges
                0x00000500       0x20 /usr/lib/gcc/arm-none-eabi/12.2.1/../../../arm-none-eabi/lib/thumb/v7e-m+fp/hard/libg.a(lib_a-locale.o)
 .debug_aranges
                0x00000520       0x20 /usr/lib/gcc/arm-none-eabi/12.2.1/../../../arm-none-eabi/lib/thumb/v7e-m+fp/hard/libg.a(lib_a-localeconv.o)
 .debug_aranges
                0x00000540       0x20 /usr/lib/gcc/arm-none-eabi/12.2.1/../../../arm-none-eabi/lib/thumb/v7e-m+fp/hard/libg.a(lib_a-lseekr.o)
 .debug_aranges
                0x00000560       0x20 /usr/lib/gcc/arm-none-eabi/12.2.1/../../../arm-none-eabi/lib/thumb/v7e-m+fp/hard/libg.a(lib_a-mallocr.o)
 .debug_aranges
                0x00000580       0x20 /usr/lib/gcc/arm-none-eabi/12.2.1/../../../arm-none-eabi/lib/thumb/v7e-m+fp/hard/libg.a(lib_a-mbrtowc.o)
 .debug_aranges
                0x000005a0       0x20 /usr/lib/gcc/arm-none-eabi/12.2.1/../../../arm-none-eabi/lib/thumb/v7e-m+fp/hard/libg.a(lib_a-mbtowc_r.o)
 .debug_aranges
                0x000005c0       0x20 /usr/lib/gcc/arm-none-eabi/12.2.1/../../../arm-none-eabi/lib/thumb/v7e-m+fp/hard/libg.a(lib_a-memchr.o)
 .debug_aranges
                0x000005e0       0x20 /usr/lib/gcc/arm-none-eabi/12.2.1/../../../arm-none-eabi/lib/thumb/v7e-m+fp/hard/libg.a(lib_a-mlock.o)
 .debug_aranges
                0x00000600       0x20 /usr/lib/gcc/arm-none-eabi/12.2.1/../../../arm-none-eabi/lib/thumb/v7e-m+fp/hard/libg.a(lib_a-mprec.o)
 .debug_aranges
                0x00000620       0x20 /usr/lib/gcc/arm-none-eabi/12.2.1/../../../arm-none-eabi/lib/thumb/v7e-m+fp/hard/libg.a(lib_a-readr.o)
 .debug_aranges
                0x00000640       0x20 /usr/lib/gcc/arm-none-eabi/12.2.1/../../../arm-none-eabi/lib/thumb/v7e-m+fp/hard/libg.a(lib_a-reent.o)
 .debug_aranges
                0x00000660       0x20 /usr/lib/gcc/arm-none-eabi/12.2.1/../../../arm-none-eabi/lib/thumb/v7e-m+fp/hard/libg.a(lib_a-sbrkr.o)
 .debug_aranges
                0x00000680       0x20 /usr/lib/gcc/arm-none-eabi/12.2.1/../../../arm-none-eabi/lib/thumb/v7e-m+fp/hard/libg.a(lib_a-sccl.o)
 .debug_aranges
                0x000006a0       0x20 /usr/lib/gcc/arm-none-eabi/12.2.1/../../../arm-none-eabi/lib/thumb/v7e-m+fp/hard/libg.a(lib_a-sf_nan.o)
 .debug_aranges
                0x000006c0       0x20 /usr/lib/gcc/arm-none-eabi/12.2.1/../../../arm-none-eabi/lib/thumb/v7e-m+fp/hard/libg.a(lib_a-strcmp.o)
 .debug_aranges
                0x000006e0       0x20 /usr/lib/gcc/arm-none-eabi/12.2.1/../../../arm-none-eabi/lib/thumb/v7e-m+fp/hard/libg.a(lib_a-strtod.o)
 .debug_aranges
                0x00000700       0x20 /usr/lib/gcc/arm-none-eabi/12.2.1/../../../arm-none-eabi/lib/thumb/v7e-m+fp/hard/libg.a(lib_a-strtol.o)
 .debug_aranges
                0x00000720       0x20 /usr/lib/gcc/arm-none-eabi/12.2.1/../../../arm-none-eabi/lib/thumb/v7e-m+fp/hard/libg.a(lib_a-strtoll.o)
 .debug_aranges
                0x00000740       0x20 /usr/lib/gcc/arm-none-eabi/12.2.1/../../../arm-none-eabi/lib/thumb/v7e-m+fp/hard/libg.a(lib_a-strtoul.o)
 .debug_aranges
                0x00000760       0x20 /usr/lib/gcc/arm-none-eabi/12.2.1/../../../arm-none-eabi/lib/thumb/v7e-m+fp/hard/libg.a(lib_a-strtoull.o)
 .debug_aranges
                0x00000780       0x20 /usr/lib/gcc/arm-none-eabi/12.2.1/../../../arm-none-eabi/lib/thumb/v7e-m+fp/hard/libg.a(lib_a-svfiprintf.o)
 .debug_aranges
                0x000007a0       0x20 /usr/lib/gcc/arm-none-eabi/12.2.1/../../../arm-none-eabi/lib/thumb/v7e-m+fp/hard/libg.a(lib_a-svfiscanf.o)
 .debug_aranges
                0x000007c0       0x20 /usr/lib/gcc/arm-none-eabi/12.2.1/../../../arm-none-eabi/lib/thumb/v7e-m+fp/hard/libg.a(lib_a-ungetc.o)
 .debug_aranges
                0x000007e0       0x20 /usr/lib/gcc/arm-none-eabi/12.2.1/../../../arm-none-eabi/lib/thumb/v7e-m+fp/hard/libg.a(lib_a-wctomb_r.o)
 .debug_aranges
                0x00000800       0x20 /usr/lib/gcc/arm-none-eabi/12.2.1/../../../arm-none-eabi/lib/thumb/v7e-m+fp/hard/libg.a(lib_a-assert.o)
 .debug_aranges
                0x00000820       0x20 /usr/lib/gcc/arm-none-eabi/12.2.1/../../../arm-none-eabi/lib/thumb/v7e-m+fp/hard/libg.a(lib_a-callocr.o)
 .debug_aranges
                0x00000840       0x20 /usr/lib/gcc/arm-none-eabi/12.2.1/../../../arm-none-eabi/lib/thumb/v7e-m+fp/hard/libg.a(lib_a-fflush.o)
 .debug_aranges
                0x00000860       0x20 /usr/lib/gcc/arm-none-eabi/12.2.1/../../../arm-none-eabi/lib/thumb/v7e-m+fp/hard/libg.a(lib_a-findfp.o)
 .debug_aranges
                0x00000880       0x20 /usr/lib/gcc/arm-none-eabi/12.2.1/../../../arm-none-eabi/lib/thumb/v7e-m+fp/hard/libg.a(lib_a-fiprintf.o)
 .debug_aranges
                0x000008a0       0x20 /usr/lib/gcc/arm-none-eabi/12.2.1/../../../arm-none-eabi/lib/thumb/v7e-m+fp/hard/libg.a(lib_a-freer.o)
 .debug_aranges
                0x000008c0       0x20 /usr/lib/gcc/arm-none-eabi/12.2.1/../../../arm-none-eabi/lib/thumb/v7e-m+fp/hard/libg.a(lib_a-fwalk.o)
 .debug_aranges
                0x000008e0       0x20 /usr/lib/gcc/arm-none-eabi/12.2.1/../../../arm-none-eabi/lib/thumb/v7e-m+fp/hard/libg.a(lib_a-gdtoa-gethex.o)
 .debug_aranges
                0x00000900       0x20 /usr/lib/gcc/arm-none-eabi/12.2.1/../../../arm-none-eabi/lib/thumb/v7e-m+fp/hard/libg.a(lib_a-gdtoa-hexnan.o)
 .debug_aranges
                0x00000920       0x20 /usr/lib/gcc/arm-none-eabi/12.2.1/../../../arm-none-eabi/lib/thumb/v7e-m+fp/hard/libg.a(lib_a-lnumeric.o)
 .debug_aranges
                0x00000940       0x20 /usr/lib/gcc/arm-none-eabi/12.2.1/../../../arm-none-eabi/lib/thumb/v7e-m+fp/hard/libg.a(lib_a-memmove.o)
 .debug_aranges
                0x00000960       0x20 /usr/lib/gcc/arm-none-eabi/12.2.1/../../../arm-none-eabi/lib/thumb/v7e-m+fp/hard/libg.a(lib_a-reallocr.o)
 .debug_aranges
                0x00000980       0x20 /usr/lib/gcc/arm-none-eabi/12.2.1/../../../arm-none-eabi/lib/thumb/v7e-m+fp/hard/libg.a(lib_a-s_nan.o)
 .debug_aranges
                0x000009a0       0x20 /usr/lib/gcc/arm-none-eabi/12.2.1/../../../arm-none-eabi/lib/thumb/v7e-m+fp/hard/libg.a(lib_a-strncmp.o)
 .debug_aranges
                0x000009c0       0x20 /usr/lib/gcc/arm-none-eabi/12.2.1/../../../arm-none-eabi/lib/thumb/v7e-m+fp/hard/libg.a(lib_a-vfiprintf.o)
 .debug_aranges
                0x000009e0       0x20 /usr/lib/gcc/arm-none-eabi/12.2.1/../../../arm-none-eabi/lib/thumb/v7e-m+fp/hard/libg.a(lib_a-wsetup.o)
 .debug_aranges
                0x00000a00       0x20 /usr/lib/gcc/arm-none-eabi/12.2.1/../../../arm-none-eabi/lib/thumb/v7e-m+fp/hard/libg.a(lib_a-abort.o)
 .debug_aranges
                0x00000a20       0x20 /usr/lib/gcc/arm-none-eabi/12.2.1/../../../arm-none-eabi/lib/thumb/v7e-m+fp/hard/libg.a(lib_a-fclose.o)
 .debug_aranges
                0x00000a40       0x20 /usr/lib/gcc/arm-none-eabi/12.2.1/../../../arm-none-eabi/lib/thumb/v7e-m+fp/hard/libg.a(lib_a-fputwc.o)
 .debug_aranges
                0x00000a60       0x20 /usr/lib/gcc/arm-none-eabi/12.2.1/../../../arm-none-eabi/lib/thumb/v7e-m+fp/hard/libg.a(lib_a-fvwrite.o)
 .debug_aranges
                0x00000a80       0x20 /usr/lib/gcc/arm-none-eabi/12.2.1/../../../arm-none-eabi/lib/thumb/v7e-m+fp/hard/libg.a(lib_a-makebuf.o)
 .debug_aranges
                0x00000aa0       0x20 /usr/lib/gcc/arm-none-eabi/12.2.1/../../../arm-none-eabi/lib/thumb/v7e-m+fp/hard/libg.a(lib_a-signal.o)
 .debug_aranges
                0x00000ac0       0x20 /usr/lib/gcc/arm-none-eabi/12.2.1/../../../arm-none-eabi/lib/thumb/v7e-m+fp/hard/libg.a(lib_a-signalr.o)
 .debug_aranges
                0x00000ae0       0x20 /usr/lib/gcc/arm-none-eabi/12.2.1/../../../arm-none-eabi/lib/thumb/v7e-m+fp/hard/libg.a(lib_a-wbuf.o)
 .debug_aranges
                0x00000b00       0x20 /usr/lib/gcc/arm-none-eabi/12.2.1/../../../arm-none-eabi/lib/thumb/v7e-m+fp/hard/libg.a(lib_a-wcrtomb.o)
 .debug_aranges
                0x00000b20       0x20 /usr/lib/gcc/arm-none-eabi/12.2.1/../../../arm-none-eabi/lib/thumb/v7e-m+fp/hard/libg.a(lib_a-fstatr.o)
 .debug_aranges
                0x00000b40       0x20 /usr/lib/gcc/arm-none-eabi/12.2.1/../../../arm-none-eabi/lib/thumb/v7e-m+fp/hard/libg.a(lib_a-isattyr.o)
 .debug_aranges
                0x00000b60       0x20 /usr/lib/gcc/arm-none-eabi/12.2.1/thumb/v7e-m+fp/hard/libgcc.a(_arm_muldf3.o)
 .debug_aranges
                0x00000b80       0x20 /usr/lib/gcc/arm-none-eabi/12.2.1/thumb/v7e-m+fp/hard/libgcc.a(_arm_addsubdf3.o)
 .debug_aranges
                0x00000ba0       0x20 /usr/lib/gcc/arm-none-eabi/12.2.1/thumb/v7e-m+fp/hard/libgcc.a(_arm_muldivdf3.o)
 .debug_aranges
                0x00000bc0       0x20 /usr/lib/gcc/arm-none-eabi/12.2.1/thumb/v7e-m+fp/hard/libgcc.a(_arm_cmpdf2.o)
 .debug_aranges
                0x00000be0       0x20 /usr/lib/gcc/arm-none-eabi/12.2.1/thumb/v7e-m+fp/hard/libgcc.a(_arm_unorddf2.o)
 .debug_aranges
                0x00000c00       0x20 /usr/lib/gcc/arm-none-eabi/12.2.1/thumb/v7e-m+fp/hard/libgcc.a(_arm_fixdfsi.o)
 .debug_aranges
                0x00000c20       0x20 /usr/lib/gcc/arm-none-eabi/12.2.1/thumb/v7e-m+fp/hard/libgcc.a(_arm_fixunsdfsi.o)
 .debug_aranges
                0x00000c40       0x20 /usr/lib/gcc/arm-none-eabi/12.2.1/thumb/v7e-m+fp/hard/libgcc.a(_arm_truncdfsf2.o)
 .debug_aranges
                0x00000c60       0x20 /usr/lib/gcc/arm-none-eabi/12.2.1/thumb/v7e-m+fp/hard/libgcc.a(_aeabi_uldivmod.o)
 .debug_aranges
                0x00000c80       0x20 /usr/lib/gcc/arm-none-eabi/12.2.1/thumb/v7e-m+fp/hard/libgcc.a(_fixdfdi.o)
 .debug_aranges
                0x00000ca0       0x20 /usr/lib/gcc/arm-none-eabi/12.2.1/thumb/v7e-m+fp/hard/libgcc.a(_fixunsdfdi.o)
 .debug_aranges
                0x00000cc0       0x20 /usr/lib/gcc/arm-none-eabi/12.2.1/thumb/v7e-m+fp/hard/libgcc.a(_udivmoddi4.o)
 .debug_aranges
                0x00000ce0       0x20 /usr/lib/gcc/arm-none-eabi/12.2.1/thumb/v7e-m+fp/hard/libgcc.a(_dvmd_tls.o)
 .debug_aranges
                0x00000d00       0x20 /usr/lib/gcc/arm-none-eabi/12.2.1/../../../arm-none-eabi/lib/thumb/v7e-m+fp/hard/libnosys.a(close.o)
 .debug_aranges
                0x00000d20       0x20 /usr/lib/gcc/arm-none-eabi/12.2.1/../../../arm-none-eabi/lib/thumb/v7e-m+fp/hard/libnosys.a(fstat.o)
 .debug_aranges
                0x00000d40       0x20 /usr/lib/gcc/arm-none-eabi/12.2.1/../../../arm-none-eabi/lib/thumb/v7e-m+fp/hard/libnosys.a(getpid.o)
 .debug_aranges
                0x00000d60       0x20 /usr/lib/gcc/arm-none-eabi/12.2.1/../../../arm-none-eabi/lib/thumb/v7e-m+fp/hard/libnosys.a(isatty.o)
 .debug_aranges
                0x00000d80       0x20 /usr/lib/gcc/arm-none-eabi/12.2.1/../../../arm-none-eabi/lib/thumb/v7e-m+fp/hard/libnosys.a(kill.o)
 .debug_aranges
                0x00000da0       0x20 /usr/lib/gcc/arm-none-eabi/12.2.1/../../../arm-none-eabi/lib/thumb/v7e-m+fp/hard/libnosys.a(lseek.o)
 .debug_aranges
                0x00000dc0       0x20 /usr/lib/gcc/arm-none-eabi/12.2.1/../../../arm-none-eabi/lib/thumb/v7e-m+fp/hard/libnosys.a(read.o)
 .debug_aranges
                0x00000de0       0x20 /usr/lib/gcc/arm-none-eabi/12.2.1/../../../arm-none-eabi/lib/thumb/v7e-m+fp/hard/libnosys.a(sbrk.o)
 .debug_aranges
                0x00000e00       0x20 /usr/lib/gcc/arm-none-eabi/12.2.1/../../../arm-none-eabi/lib/thumb/v7e-m+fp/hard/libnosys.a(write.o)
 .debug_aranges
                0x00000e20       0x20 /usr/lib/gcc/arm-none-eabi/12.2.1/../../../arm-none-eabi/lib/thumb/v7e-m+fp/hard/libnosys.a(_exit.o)

.debug_macro    0x00000000     0x5327
 .debug_macro   0x00000000      0x105 bin/obj/adc.o
 .debug_macro   0x00000105      0xaae bin/obj/adc.o
 .debug_macro   0x00000bb3      0x189 bin/obj/adc.o
 .debug_macro   0x00000d3c      0x34e bin/obj/adc.o
 .debug_macro   0x0000108a      0x1c6 bin/obj/adc.o
 .debug_macro   0x00001250      0x15a bin/obj/adc.o
 .debug_macro   0x000013aa       0xcf bin/obj/adc.o
 .debug_macro   0x00001479       0x22 bin/obj/adc.o
 .debug_macro   0x0000149b       0x1f bin/obj/adc.o
 .debug_macro   0x000014ba       0x12 bin/obj/adc.o
 .debug_macro   0x000014cc      0x3ae bin/obj/adc.o
 .debug_macro   0x0000187a       0xc3 bin/obj/adc.o
 .debug_macro   0x0000193d      0x120 bin/obj/adc.o
 .debug_macro   0x00001a5d       0x80 bin/obj/adc.o
 .debug_macro   0x00001add       0x70 bin/obj/adc.o
 .debug_macro   0x00001b4d       0x10 bin/obj/adc.o
 .debug_macro   0x00001b5d       0x6a bin/obj/adc.o
 .debug_macro   0x00001bc7       0x52 bin/obj/adc.o
 .debug_macro   0x00001c19       0xe8 bin/obj/adc.o
 .debug_macro   0x00001d01       0x34 bin/obj/adc.o
 .debug_macro   0x00001d35      0x243 bin/obj/bno055.o
 .debug_macro   0x00001f78       0x22 bin/obj/bno055.o
 .debug_macro   0x00001f9a       0x52 bin/obj/bno055.o
 .debug_macro   0x00001fec       0x18 bin/obj/bno055.o
 .debug_macro   0x00002004       0x5c bin/obj/bno055.o
 .debug_macro   0x00002060       0x35 bin/obj/bno055.o
 .debug_macro   0x00002095       0x34 bin/obj/bno055.o
 .debug_macro   0x000020c9       0x16 bin/obj/bno055.o
 .debug_macro   0x000020df       0x43 bin/obj/bno055.o
 .debug_macro   0x00002122       0x57 bin/obj/bno055.o
 .debug_macro   0x00002179       0x34 bin/obj/bno055.o
 .debug_macro   0x000021ad       0x10 bin/obj/bno055.o
 .debug_macro   0x000021bd       0x52 bin/obj/bno055.o
 .debug_macro   0x0000220f      0x182 bin/obj/bno055.o
 .debug_macro   0x00002391      0x333 bin/obj/bno055.o
 .debug_macro   0x000026c4       0xde bin/obj/bno055.o
 .debug_macro   0x000027a2       0x16 bin/obj/bno055.o
 .debug_macro   0x000027b8       0x35 bin/obj/bno055.o
 .debug_macro   0x000027ed       0x1c bin/obj/bno055.o
 .debug_macro   0x00002809       0x10 bin/obj/bno055.o
 .debug_macro   0x00002819       0x10 bin/obj/bno055.o
 .debug_macro   0x00002829       0x6a bin/obj/bno055.o
 .debug_macro   0x00002893       0xb2 bin/obj/bno055.o
 .debug_macro   0x00002945       0x16 bin/obj/bno055.o
 .debug_macro   0x0000295b      0x129 bin/obj/bno055.o
 .debug_macro   0x00002a84       0x91 bin/obj/bno055.o
 .debug_macro   0x00002b15       0x86 bin/obj/bno055.o
 .debug_macro   0x00002b9b       0x18 bin/obj/bno055.o
 .debug_macro   0x00002bb3       0x6d bin/obj/bno055.o
 .debug_macro   0x00002c20       0x8e bin/obj/bno055.o
 .debug_macro   0x00002cae       0xf4 bin/obj/bno055.o
 .debug_macro   0x00002da2       0x95 bin/obj/croutine.o
 .debug_macro   0x00002e37       0x49 bin/obj/croutine.o
 .debug_macro   0x00002e80      0x213 bin/obj/dialog.o
 .debug_macro   0x00003093       0x16 bin/obj/dialog.o
 .debug_macro   0x000030a9       0x9e bin/obj/dialog.o
 .debug_macro   0x00003147      0x10b bin/obj/dialog.o
 .debug_macro   0x00003252       0xa2 bin/obj/dialog.o
 .debug_macro   0x000032f4       0xcb bin/obj/dma.o
 .debug_macro   0x000033bf       0x22 bin/obj/dma.o
 .debug_macro   0x000033e1       0x1c bin/obj/dma.o
 .debug_macro   0x000033fd       0x64 bin/obj/dma.o
 .debug_macro   0x00003461      0x1ab bin/obj/event_groups.o
 .debug_macro   0x0000360c       0x16 bin/obj/event_groups.o
 .debug_macro   0x00003622      0x11c bin/obj/event_groups.o
 .debug_macro   0x0000373e       0x94 bin/obj/event_groups.o
 .debug_macro   0x000037d2       0x22 bin/obj/event_groups.o
 .debug_macro   0x000037f4       0x19 bin/obj/event_groups.o
 .debug_macro   0x0000380d       0x57 bin/obj/exti.o
 .debug_macro   0x00003864       0x6a bin/obj/exti.o
 .debug_macro   0x000038ce       0x45 bin/obj/gpio.o
 .debug_macro   0x00003913      0x179 bin/obj/heap.o
 .debug_macro   0x00003a8c      0x134 bin/obj/i2c.o
 .debug_macro   0x00003bc0      0x323 bin/obj/i2c.o
 .debug_macro   0x00003ee3       0x16 bin/obj/i2c.o
 .debug_macro   0x00003ef9      0x15e bin/obj/list.o
 .debug_macro   0x00004057      0x1bd bin/obj/main.o
 .debug_macro   0x00004214      0x22b bin/obj/mems.o
 .debug_macro   0x0000443f       0x10 bin/obj/mems.o
 .debug_macro   0x0000444f       0x97 bin/obj/mems.o
 .debug_macro   0x000044e6      0x23d bin/obj/motor.o
 .debug_macro   0x00004723      0x14c bin/obj/port.o
 .debug_macro   0x0000486f      0x1ce bin/obj/queue.o
 .debug_macro   0x00004a3d       0x57 bin/obj/rcc.o
 .debug_macro   0x00004a94       0x34 bin/obj/rcc.o
 .debug_macro   0x00004ac8      0x195 bin/obj/stream_buffer.o
 .debug_macro   0x00004c5d      0x17d bin/obj/sys.o
 .debug_macro   0x00004dda      0x231 bin/obj/tasks.o
 .debug_macro   0x0000500b       0x17 bin/obj/tasks.o
 .debug_macro   0x00005022      0x1ad bin/obj/timers.o
 .debug_macro   0x000051cf      0x158 bin/obj/usart.o

.debug_line     0x00000000    0x1c1e2
 .debug_line    0x00000000      0x1c7 bin/obj/adc.o
 .debug_line    0x000001c7      0x3ed bin/obj/bno055.o
 .debug_line    0x000005b4      0x124 bin/obj/croutine.o
 .debug_line    0x000006d8      0x341 bin/obj/dialog.o
 .debug_line    0x00000a19      0x446 bin/obj/dma.o
 .debug_line    0x00000e5f      0x5ca bin/obj/event_groups.o
 .debug_line    0x00001429      0x261 bin/obj/exti.o
 .debug_line    0x0000168a      0x2d9 bin/obj/gpio.o
 .debug_line    0x00001963      0x4e4 bin/obj/heap.o
 .debug_line    0x00001e47      0x356 bin/obj/i2c.o
 .debug_line    0x0000219d      0x2dd bin/obj/list.o
 .debug_line    0x0000247a      0x3a1 bin/obj/main.o
 .debug_line    0x0000281b      0x3b3 bin/obj/mems.o
 .debug_line    0x00002bce      0x39d bin/obj/motor.o
 .debug_line    0x00002f6b      0x35d bin/obj/port.o
 .debug_line    0x000032c8      0xf37 bin/obj/queue.o
 .debug_line    0x000041ff      0x116 bin/obj/rcc.o
 .debug_line    0x00004315      0x99d bin/obj/stream_buffer.o
 .debug_line    0x00004cb2      0x44d bin/obj/sys.o
 .debug_line    0x000050ff     0x14b0 bin/obj/tasks.o
 .debug_line    0x000065af      0x6b8 bin/obj/timers.o
 .debug_line    0x00006c67      0x4a6 bin/obj/usart.o
 .debug_line    0x0000710d      0x164 /usr/lib/gcc/arm-none-eabi/12.2.1/../../../arm-none-eabi/lib/thumb/v7e-m+fp/hard/libm.a(lib_a-w_sqrt.o)
 .debug_line    0x00007271      0x40c /usr/lib/gcc/arm-none-eabi/12.2.1/../../../arm-none-eabi/lib/thumb/v7e-m+fp/hard/libm.a(lib_a-e_sqrt.o)
 .debug_line    0x0000767d       0x91 /usr/lib/gcc/arm-none-eabi/12.2.1/../../../arm-none-eabi/lib/thumb/v7e-m+fp/hard/libm.a(lib_a-s_lib_ver.o)
 .debug_line    0x0000770e       0x8e /usr/lib/gcc/arm-none-eabi/12.2.1/../../../arm-none-eabi/lib/thumb/v7e-m+fp/hard/libg.a(lib_a-ctype_.o)
 .debug_line    0x0000779c      0x103 /usr/lib/gcc/arm-none-eabi/12.2.1/../../../arm-none-eabi/lib/thumb/v7e-m+fp/hard/libg.a(lib_a-errno.o)
 .debug_line    0x0000789f       0xde /usr/lib/gcc/arm-none-eabi/12.2.1/../../../arm-none-eabi/lib/thumb/v7e-m+fp/hard/libg.a(lib_a-impure.o)
 .debug_line    0x0000797d       0xb9 /usr/lib/gcc/arm-none-eabi/12.2.1/../../../arm-none-eabi/lib/thumb/v7e-m+fp/hard/libg.a(lib_a-memcpy.o)
 .debug_line    0x00007a36      0x1b0 /usr/lib/gcc/arm-none-eabi/12.2.1/../../../arm-none-eabi/lib/thumb/v7e-m+fp/hard/libg.a(lib_a-memset.o)
 .debug_line    0x00007be6      0x206 /usr/lib/gcc/arm-none-eabi/12.2.1/../../../arm-none-eabi/lib/thumb/v7e-m+fp/hard/libg.a(lib_a-sprintf.o)
 .debug_line    0x00007dec      0x245 /usr/lib/gcc/arm-none-eabi/12.2.1/../../../arm-none-eabi/lib/thumb/v7e-m+fp/hard/libg.a(lib_a-sscanf.o)
 .debug_line    0x00008031      0x21e /usr/lib/gcc/arm-none-eabi/12.2.1/../../../arm-none-eabi/lib/thumb/v7e-m+fp/hard/libg.a(lib_a-stdio.o)
 .debug_line    0x0000824f       0x87 /usr/lib/gcc/arm-none-eabi/12.2.1/../../../arm-none-eabi/lib/thumb/v7e-m+fp/hard/libg.a(lib_a-strlen.o)
 .debug_line    0x000082d6     0x15fb /usr/lib/gcc/arm-none-eabi/12.2.1/../../../arm-none-eabi/lib/thumb/v7e-m+fp/hard/libg.a(lib_a-svfprintf.o)
 .debug_line    0x000098d1     0x14cf /usr/lib/gcc/arm-none-eabi/12.2.1/../../../arm-none-eabi/lib/thumb/v7e-m+fp/hard/libg.a(lib_a-svfscanf.o)
 .debug_line    0x0000ada0      0x17d /usr/lib/gcc/arm-none-eabi/12.2.1/../../../arm-none-eabi/lib/thumb/v7e-m+fp/hard/libg.a(lib_a-writer.o)
 .debug_line    0x0000af1d      0x177 /usr/lib/gcc/arm-none-eabi/12.2.1/../../../arm-none-eabi/lib/thumb/v7e-m+fp/hard/libg.a(lib_a-closer.o)
 .debug_line    0x0000b094     0x14ae /usr/lib/gcc/arm-none-eabi/12.2.1/../../../arm-none-eabi/lib/thumb/v7e-m+fp/hard/libg.a(lib_a-dtoa.o)
 .debug_line    0x0000c542      0x120 /usr/lib/gcc/arm-none-eabi/12.2.1/../../../arm-none-eabi/lib/thumb/v7e-m+fp/hard/libg.a(lib_a-iswspace.o)
 .debug_line    0x0000c662      0x1a7 /usr/lib/gcc/arm-none-eabi/12.2.1/../../../arm-none-eabi/lib/thumb/v7e-m+fp/hard/libg.a(lib_a-iswspace_l.o)
 .debug_line    0x0000c809      0x271 /usr/lib/gcc/arm-none-eabi/12.2.1/../../../arm-none-eabi/lib/thumb/v7e-m+fp/hard/libg.a(lib_a-locale.o)
 .debug_line    0x0000ca7a      0x166 /usr/lib/gcc/arm-none-eabi/12.2.1/../../../arm-none-eabi/lib/thumb/v7e-m+fp/hard/libg.a(lib_a-localeconv.o)
 .debug_line    0x0000cbe0      0x17d /usr/lib/gcc/arm-none-eabi/12.2.1/../../../arm-none-eabi/lib/thumb/v7e-m+fp/hard/libg.a(lib_a-lseekr.o)
 .debug_line    0x0000cd5d      0x85f /usr/lib/gcc/arm-none-eabi/12.2.1/../../../arm-none-eabi/lib/thumb/v7e-m+fp/hard/libg.a(lib_a-mallocr.o)
 .debug_line    0x0000d5bc      0x23f /usr/lib/gcc/arm-none-eabi/12.2.1/../../../arm-none-eabi/lib/thumb/v7e-m+fp/hard/libg.a(lib_a-mbrtowc.o)
 .debug_line    0x0000d7fb      0x1f8 /usr/lib/gcc/arm-none-eabi/12.2.1/../../../arm-none-eabi/lib/thumb/v7e-m+fp/hard/libg.a(lib_a-mbtowc_r.o)
 .debug_line    0x0000d9f3       0x82 /usr/lib/gcc/arm-none-eabi/12.2.1/../../../arm-none-eabi/lib/thumb/v7e-m+fp/hard/libg.a(lib_a-memchr.o)
 .debug_line    0x0000da75      0x13b /usr/lib/gcc/arm-none-eabi/12.2.1/../../../arm-none-eabi/lib/thumb/v7e-m+fp/hard/libg.a(lib_a-mlock.o)
 .debug_line    0x0000dbb0     0x160a /usr/lib/gcc/arm-none-eabi/12.2.1/../../../arm-none-eabi/lib/thumb/v7e-m+fp/hard/libg.a(lib_a-mprec.o)
 .debug_line    0x0000f1ba      0x17c /usr/lib/gcc/arm-none-eabi/12.2.1/../../../arm-none-eabi/lib/thumb/v7e-m+fp/hard/libg.a(lib_a-readr.o)
 .debug_line    0x0000f336      0x277 /usr/lib/gcc/arm-none-eabi/12.2.1/../../../arm-none-eabi/lib/thumb/v7e-m+fp/hard/libg.a(lib_a-reent.o)
 .debug_line    0x0000f5ad      0x177 /usr/lib/gcc/arm-none-eabi/12.2.1/../../../arm-none-eabi/lib/thumb/v7e-m+fp/hard/libg.a(lib_a-sbrkr.o)
 .debug_line    0x0000f724      0x18b /usr/lib/gcc/arm-none-eabi/12.2.1/../../../arm-none-eabi/lib/thumb/v7e-m+fp/hard/libg.a(lib_a-sccl.o)
 .debug_line    0x0000f8af       0xa6 /usr/lib/gcc/arm-none-eabi/12.2.1/../../../arm-none-eabi/lib/thumb/v7e-m+fp/hard/libg.a(lib_a-sf_nan.o)
 .debug_line    0x0000f955      0x10f /usr/lib/gcc/arm-none-eabi/12.2.1/../../../arm-none-eabi/lib/thumb/v7e-m+fp/hard/libg.a(lib_a-strcmp.o)
 .debug_line    0x0000fa64     0x142c /usr/lib/gcc/arm-none-eabi/12.2.1/../../../arm-none-eabi/lib/thumb/v7e-m+fp/hard/libg.a(lib_a-strtod.o)
 .debug_line    0x00010e90      0x3a4 /usr/lib/gcc/arm-none-eabi/12.2.1/../../../arm-none-eabi/lib/thumb/v7e-m+fp/hard/libg.a(lib_a-strtol.o)
 .debug_line    0x00011234      0x390 /usr/lib/gcc/arm-none-eabi/12.2.1/../../../arm-none-eabi/lib/thumb/v7e-m+fp/hard/libg.a(lib_a-strtoll.o)
 .debug_line    0x000115c4      0x360 /usr/lib/gcc/arm-none-eabi/12.2.1/../../../arm-none-eabi/lib/thumb/v7e-m+fp/hard/libg.a(lib_a-strtoul.o)
 .debug_line    0x00011924      0x37e /usr/lib/gcc/arm-none-eabi/12.2.1/../../../arm-none-eabi/lib/thumb/v7e-m+fp/hard/libg.a(lib_a-strtoull.o)
 .debug_line    0x00011ca2      0xf88 /usr/lib/gcc/arm-none-eabi/12.2.1/../../../arm-none-eabi/lib/thumb/v7e-m+fp/hard/libg.a(lib_a-svfiprintf.o)
 .debug_line    0x00012c2a     0x1835 /usr/lib/gcc/arm-none-eabi/12.2.1/../../../arm-none-eabi/lib/thumb/v7e-m+fp/hard/libg.a(lib_a-svfiscanf.o)
 .debug_line    0x0001445f      0x3f1 /usr/lib/gcc/arm-none-eabi/12.2.1/../../../arm-none-eabi/lib/thumb/v7e-m+fp/hard/libg.a(lib_a-ungetc.o)
 .debug_line    0x00014850      0x1e2 /usr/lib/gcc/arm-none-eabi/12.2.1/../../../arm-none-eabi/lib/thumb/v7e-m+fp/hard/libg.a(lib_a-wctomb_r.o)
 .debug_line    0x00014a32      0x188 /usr/lib/gcc/arm-none-eabi/12.2.1/../../../arm-none-eabi/lib/thumb/v7e-m+fp/hard/libg.a(lib_a-assert.o)
 .debug_line    0x00014bba      0x1b3 /usr/lib/gcc/arm-none-eabi/12.2.1/../../../arm-none-eabi/lib/thumb/v7e-m+fp/hard/libg.a(lib_a-callocr.o)
 .debug_line    0x00014d6d      0x441 /usr/lib/gcc/arm-none-eabi/12.2.1/../../../arm-none-eabi/lib/thumb/v7e-m+fp/hard/libg.a(lib_a-fflush.o)
 .debug_line    0x000151ae      0x53b /usr/lib/gcc/arm-none-eabi/12.2.1/../../../arm-none-eabi/lib/thumb/v7e-m+fp/hard/libg.a(lib_a-findfp.o)
 .debug_line    0x000156e9      0x191 /usr/lib/gcc/arm-none-eabi/12.2.1/../../../arm-none-eabi/lib/thumb/v7e-m+fp/hard/libg.a(lib_a-fiprintf.o)
 .debug_line    0x0001587a      0x4cc /usr/lib/gcc/arm-none-eabi/12.2.1/../../../arm-none-eabi/lib/thumb/v7e-m+fp/hard/libg.a(lib_a-freer.o)
 .debug_line    0x00015d46      0x26a /usr/lib/gcc/arm-none-eabi/12.2.1/../../../arm-none-eabi/lib/thumb/v7e-m+fp/hard/libg.a(lib_a-fwalk.o)
 .debug_line    0x00015fb0      0xa9c /usr/lib/gcc/arm-none-eabi/12.2.1/../../../arm-none-eabi/lib/thumb/v7e-m+fp/hard/libg.a(lib_a-gdtoa-gethex.o)
 .debug_line    0x00016a4c      0x3ad /usr/lib/gcc/arm-none-eabi/12.2.1/../../../arm-none-eabi/lib/thumb/v7e-m+fp/hard/libg.a(lib_a-gdtoa-hexnan.o)
 .debug_line    0x00016df9      0x155 /usr/lib/gcc/arm-none-eabi/12.2.1/../../../arm-none-eabi/lib/thumb/v7e-m+fp/hard/libg.a(lib_a-lnumeric.o)
 .debug_line    0x00016f4e      0x1ea /usr/lib/gcc/arm-none-eabi/12.2.1/../../../arm-none-eabi/lib/thumb/v7e-m+fp/hard/libg.a(lib_a-memmove.o)
 .debug_line    0x00017138      0x663 /usr/lib/gcc/arm-none-eabi/12.2.1/../../../arm-none-eabi/lib/thumb/v7e-m+fp/hard/libg.a(lib_a-reallocr.o)
 .debug_line    0x0001779b       0xa7 /usr/lib/gcc/arm-none-eabi/12.2.1/../../../arm-none-eabi/lib/thumb/v7e-m+fp/hard/libg.a(lib_a-s_nan.o)
 .debug_line    0x00017842      0x1d6 /usr/lib/gcc/arm-none-eabi/12.2.1/../../../arm-none-eabi/lib/thumb/v7e-m+fp/hard/libg.a(lib_a-strncmp.o)
 .debug_line    0x00017a18     0x12b1 /usr/lib/gcc/arm-none-eabi/12.2.1/../../../arm-none-eabi/lib/thumb/v7e-m+fp/hard/libg.a(lib_a-vfiprintf.o)
 .debug_line    0x00018cc9      0x2c9 /usr/lib/gcc/arm-none-eabi/12.2.1/../../../arm-none-eabi/lib/thumb/v7e-m+fp/hard/libg.a(lib_a-wsetup.o)
 .debug_line    0x00018f92       0xfd /usr/lib/gcc/arm-none-eabi/12.2.1/../../../arm-none-eabi/lib/thumb/v7e-m+fp/hard/libg.a(lib_a-abort.o)
 .debug_line    0x0001908f      0x246 /usr/lib/gcc/arm-none-eabi/12.2.1/../../../arm-none-eabi/lib/thumb/v7e-m+fp/hard/libg.a(lib_a-fclose.o)
 .debug_line    0x000192d5      0x2ec /usr/lib/gcc/arm-none-eabi/12.2.1/../../../arm-none-eabi/lib/thumb/v7e-m+fp/hard/libg.a(lib_a-fputwc.o)
 .debug_line    0x000195c1      0x5c7 /usr/lib/gcc/arm-none-eabi/12.2.1/../../../arm-none-eabi/lib/thumb/v7e-m+fp/hard/libg.a(lib_a-fvwrite.o)
 .debug_line    0x00019b88      0x39e /usr/lib/gcc/arm-none-eabi/12.2.1/../../../arm-none-eabi/lib/thumb/v7e-m+fp/hard/libg.a(lib_a-makebuf.o)
 .debug_line    0x00019f26      0x5fa /usr/lib/gcc/arm-none-eabi/12.2.1/../../../arm-none-eabi/lib/thumb/v7e-m+fp/hard/libg.a(lib_a-signal.o)
 .debug_line    0x0001a520      0x1a9 /usr/lib/gcc/arm-none-eabi/12.2.1/../../../arm-none-eabi/lib/thumb/v7e-m+fp/hard/libg.a(lib_a-signalr.o)
 .debug_line    0x0001a6c9      0x2ba /usr/lib/gcc/arm-none-eabi/12.2.1/../../../arm-none-eabi/lib/thumb/v7e-m+fp/hard/libg.a(lib_a-wbuf.o)
 .debug_line    0x0001a983      0x24a /usr/lib/gcc/arm-none-eabi/12.2.1/../../../arm-none-eabi/lib/thumb/v7e-m+fp/hard/libg.a(lib_a-wcrtomb.o)
 .debug_line    0x0001abcd      0x1f1 /usr/lib/gcc/arm-none-eabi/12.2.1/../../../arm-none-eabi/lib/thumb/v7e-m+fp/hard/libg.a(lib_a-fstatr.o)
 .debug_line    0x0001adbe      0x178 /usr/lib/gcc/arm-none-eabi/12.2.1/../../../arm-none-eabi/lib/thumb/v7e-m+fp/hard/libg.a(lib_a-isattyr.o)
 .debug_line    0x0001af36       0xf5 /usr/lib/gcc/arm-none-eabi/12.2.1/thumb/v7e-m+fp/hard/libgcc.a(_arm_muldf3.o)
 .debug_line    0x0001b02b      0x16f /usr/lib/gcc/arm-none-eabi/12.2.1/thumb/v7e-m+fp/hard/libgcc.a(_arm_addsubdf3.o)
 .debug_line    0x0001b19a      0x184 /usr/lib/gcc/arm-none-eabi/12.2.1/thumb/v7e-m+fp/hard/libgcc.a(_arm_muldivdf3.o)
 .debug_line    0x0001b31e       0xa6 /usr/lib/gcc/arm-none-eabi/12.2.1/thumb/v7e-m+fp/hard/libgcc.a(_arm_cmpdf2.o)
 .debug_line    0x0001b3c4       0x57 /usr/lib/gcc/arm-none-eabi/12.2.1/thumb/v7e-m+fp/hard/libgcc.a(_arm_unorddf2.o)
 .debug_line    0x0001b41b       0x62 /usr/lib/gcc/arm-none-eabi/12.2.1/thumb/v7e-m+fp/hard/libgcc.a(_arm_fixdfsi.o)
 .debug_line    0x0001b47d       0x5e /usr/lib/gcc/arm-none-eabi/12.2.1/thumb/v7e-m+fp/hard/libgcc.a(_arm_fixunsdfsi.o)
 .debug_line    0x0001b4db       0x76 /usr/lib/gcc/arm-none-eabi/12.2.1/thumb/v7e-m+fp/hard/libgcc.a(_arm_truncdfsf2.o)
 .debug_line    0x0001b551       0x4e /usr/lib/gcc/arm-none-eabi/12.2.1/thumb/v7e-m+fp/hard/libgcc.a(_aeabi_uldivmod.o)
 .debug_line    0x0001b59f       0xb1 /usr/lib/gcc/arm-none-eabi/12.2.1/thumb/v7e-m+fp/hard/libgcc.a(_fixdfdi.o)
 .debug_line    0x0001b650       0xad /usr/lib/gcc/arm-none-eabi/12.2.1/thumb/v7e-m+fp/hard/libgcc.a(_fixunsdfdi.o)
 .debug_line    0x0001b6fd      0x576 /usr/lib/gcc/arm-none-eabi/12.2.1/thumb/v7e-m+fp/hard/libgcc.a(_udivmoddi4.o)
 .debug_line    0x0001bc73       0x4a /usr/lib/gcc/arm-none-eabi/12.2.1/thumb/v7e-m+fp/hard/libgcc.a(_dvmd_tls.o)
 .debug_line    0x0001bcbd       0x70 /usr/lib/gcc/arm-none-eabi/12.2.1/../../../arm-none-eabi/lib/thumb/v7e-m+fp/hard/libnosys.a(close.o)
 .debug_line    0x0001bd2d      0x12e /usr/lib/gcc/arm-none-eabi/12.2.1/../../../arm-none-eabi/lib/thumb/v7e-m+fp/hard/libnosys.a(fstat.o)
 .debug_line    0x0001be5b       0x70 /usr/lib/gcc/arm-none-eabi/12.2.1/../../../arm-none-eabi/lib/thumb/v7e-m+fp/hard/libnosys.a(getpid.o)
 .debug_line    0x0001becb       0x71 /usr/lib/gcc/arm-none-eabi/12.2.1/../../../arm-none-eabi/lib/thumb/v7e-m+fp/hard/libnosys.a(isatty.o)
 .debug_line    0x0001bf3c       0x6f /usr/lib/gcc/arm-none-eabi/12.2.1/../../../arm-none-eabi/lib/thumb/v7e-m+fp/hard/libnosys.a(kill.o)
 .debug_line    0x0001bfab       0x71 /usr/lib/gcc/arm-none-eabi/12.2.1/../../../arm-none-eabi/lib/thumb/v7e-m+fp/hard/libnosys.a(lseek.o)
 .debug_line    0x0001c01c       0x70 /usr/lib/gcc/arm-none-eabi/12.2.1/../../../arm-none-eabi/lib/thumb/v7e-m+fp/hard/libnosys.a(read.o)
 .debug_line    0x0001c08c       0x79 /usr/lib/gcc/arm-none-eabi/12.2.1/../../../arm-none-eabi/lib/thumb/v7e-m+fp/hard/libnosys.a(sbrk.o)
 .debug_line    0x0001c105       0x71 /usr/lib/gcc/arm-none-eabi/12.2.1/../../../arm-none-eabi/lib/thumb/v7e-m+fp/hard/libnosys.a(write.o)
 .debug_line    0x0001c176       0x6c /usr/lib/gcc/arm-none-eabi/12.2.1/../../../arm-none-eabi/lib/thumb/v7e-m+fp/hard/libnosys.a(_exit.o)

.debug_str      0x00000000    0x18c6b
 .debug_str     0x00000000     0x9be8 bin/obj/adc.o
                               0x9dd4 (size before relaxing)
 .debug_str     0x00009be8     0x5222 bin/obj/bno055.o
                               0xe6df (size before relaxing)
 .debug_str     0x0000ee0a      0x610 bin/obj/croutine.o
                               0x8c3b (size before relaxing)
 .debug_str     0x0000f41a      0x43f bin/obj/dialog.o
                               0xd488 (size before relaxing)
 .debug_str     0x0000f859      0x61e bin/obj/dma.o
                               0x49cc (size before relaxing)
 .debug_str     0x0000fe77      0x79a bin/obj/event_groups.o
                               0xbf21 (size before relaxing)
 .debug_str     0x00010611      0x416 bin/obj/exti.o
                               0x4480 (size before relaxing)
 .debug_str     0x00010a27       0x8e bin/obj/gpio.o
                               0x3fbf (size before relaxing)
 .debug_str     0x00010ab5      0x307 bin/obj/heap.o
                               0xb3ef (size before relaxing)
 .debug_str     0x00010dbc     0x1283 bin/obj/i2c.o
                               0xb26a (size before relaxing)
 .debug_str     0x0001203f       0x86 bin/obj/list.o
                               0x9f43 (size before relaxing)
 .debug_str     0x000120c5       0xc7 bin/obj/main.o
                               0xcb1f (size before relaxing)
 .debug_str     0x0001218c      0x111 bin/obj/mems.o
                               0xe064 (size before relaxing)
 .debug_str     0x0001229d       0xec bin/obj/motor.o
                               0xe7f0 (size before relaxing)
 .debug_str     0x00012389      0x7f2 bin/obj/port.o
                               0x8ec8 (size before relaxing)
 .debug_str     0x00012b7b      0x860 bin/obj/queue.o
                               0xc27d (size before relaxing)
 .debug_str     0x000133db      0x15a bin/obj/rcc.o
                               0x4407 (size before relaxing)
 .debug_str     0x00013535      0xb9a bin/obj/stream_buffer.o
                               0xbecd (size before relaxing)
 .debug_str     0x000140cf      0x29c bin/obj/sys.o
                               0xcd4a (size before relaxing)
 .debug_str     0x0001436b      0xf77 bin/obj/tasks.o
                               0xcdae (size before relaxing)
 .debug_str     0x000152e2      0x4d6 bin/obj/timers.o
                               0xc752 (size before relaxing)
 .debug_str     0x000157b8       0xc7 bin/obj/usart.o
                               0xc5da (size before relaxing)
 .debug_str     0x0001587f      0x170 /usr/lib/gcc/arm-none-eabi/12.2.1/../../../arm-none-eabi/lib/thumb/v7e-m+fp/hard/libm.a(lib_a-w_sqrt.o)
                                0x217 (size before relaxing)
 .debug_str     0x000159ef       0xf5 /usr/lib/gcc/arm-none-eabi/12.2.1/../../../arm-none-eabi/lib/thumb/v7e-m+fp/hard/libm.a(lib_a-e_sqrt.o)
                                0x232 (size before relaxing)
 .debug_str     0x00015ae4      0x104 /usr/lib/gcc/arm-none-eabi/12.2.1/../../../arm-none-eabi/lib/thumb/v7e-m+fp/hard/libm.a(lib_a-s_lib_ver.o)
                                0x1e4 (size before relaxing)
 .debug_str     0x00015be8       0x89 /usr/lib/gcc/arm-none-eabi/12.2.1/../../../arm-none-eabi/lib/thumb/v7e-m+fp/hard/libg.a(lib_a-ctype_.o)
                                0x18f (size before relaxing)
 .debug_str     0x00015c71      0x3cf /usr/lib/gcc/arm-none-eabi/12.2.1/../../../arm-none-eabi/lib/thumb/v7e-m+fp/hard/libg.a(lib_a-errno.o)
                                0x55a (size before relaxing)
 .debug_str     0x00016040       0x95 /usr/lib/gcc/arm-none-eabi/12.2.1/../../../arm-none-eabi/lib/thumb/v7e-m+fp/hard/libg.a(lib_a-impure.o)
                                0x572 (size before relaxing)
 .debug_str     0x000160d5       0xab /usr/lib/gcc/arm-none-eabi/12.2.1/../../../arm-none-eabi/lib/thumb/v7e-m+fp/hard/libg.a(lib_a-memcpy.o)
                                 0xb2 (size before relaxing)
 .debug_str     0x00016180       0x98 /usr/lib/gcc/arm-none-eabi/12.2.1/../../../arm-none-eabi/lib/thumb/v7e-m+fp/hard/libg.a(lib_a-memset.o)
                                0x1ab (size before relaxing)
 .debug_str     0x00016218       0xa7 /usr/lib/gcc/arm-none-eabi/12.2.1/../../../arm-none-eabi/lib/thumb/v7e-m+fp/hard/libg.a(lib_a-sprintf.o)
                                0x59f (size before relaxing)
 .debug_str     0x000162bf       0x56 /usr/lib/gcc/arm-none-eabi/12.2.1/../../../arm-none-eabi/lib/thumb/v7e-m+fp/hard/libg.a(lib_a-sscanf.o)
                                0x5b6 (size before relaxing)
 .debug_str     0x00016315       0x87 /usr/lib/gcc/arm-none-eabi/12.2.1/../../../arm-none-eabi/lib/thumb/v7e-m+fp/hard/libg.a(lib_a-stdio.o)
                                0x5cd (size before relaxing)
 .debug_str     0x0001639c       0x42 /usr/lib/gcc/arm-none-eabi/12.2.1/../../../arm-none-eabi/lib/thumb/v7e-m+fp/hard/libg.a(lib_a-strlen.o)
                                 0xb1 (size before relaxing)
 .debug_str     0x000163de      0x2f2 /usr/lib/gcc/arm-none-eabi/12.2.1/../../../arm-none-eabi/lib/thumb/v7e-m+fp/hard/libg.a(lib_a-svfprintf.o)
                                0x984 (size before relaxing)
 .debug_str     0x000166d0      0x1ea /usr/lib/gcc/arm-none-eabi/12.2.1/../../../arm-none-eabi/lib/thumb/v7e-m+fp/hard/libg.a(lib_a-svfscanf.o)
                                0x99a (size before relaxing)
 .debug_str     0x000168ba       0x33 /usr/lib/gcc/arm-none-eabi/12.2.1/../../../arm-none-eabi/lib/thumb/v7e-m+fp/hard/libg.a(lib_a-writer.o)
                                0x566 (size before relaxing)
 .debug_str     0x000168ed       0x33 /usr/lib/gcc/arm-none-eabi/12.2.1/../../../arm-none-eabi/lib/thumb/v7e-m+fp/hard/libg.a(lib_a-closer.o)
                                0x556 (size before relaxing)
 .debug_str     0x00016920      0x1ea /usr/lib/gcc/arm-none-eabi/12.2.1/../../../arm-none-eabi/lib/thumb/v7e-m+fp/hard/libg.a(lib_a-dtoa.o)
                                0x939 (size before relaxing)
 .debug_str     0x00016b0a       0x40 /usr/lib/gcc/arm-none-eabi/12.2.1/../../../arm-none-eabi/lib/thumb/v7e-m+fp/hard/libg.a(lib_a-iswspace.o)
                                0x1a7 (size before relaxing)
 .debug_str     0x00016b4a       0x37 /usr/lib/gcc/arm-none-eabi/12.2.1/../../../arm-none-eabi/lib/thumb/v7e-m+fp/hard/libg.a(lib_a-iswspace_l.o)
                                0x743 (size before relaxing)
 .debug_str     0x00016b81       0xd3 /usr/lib/gcc/arm-none-eabi/12.2.1/../../../arm-none-eabi/lib/thumb/v7e-m+fp/hard/libg.a(lib_a-locale.o)
                                0x7e0 (size before relaxing)
 .debug_str     0x00016c54       0x61 /usr/lib/gcc/arm-none-eabi/12.2.1/../../../arm-none-eabi/lib/thumb/v7e-m+fp/hard/libg.a(lib_a-localeconv.o)
                                0x7a7 (size before relaxing)
 .debug_str     0x00016cb5       0x3a /usr/lib/gcc/arm-none-eabi/12.2.1/../../../arm-none-eabi/lib/thumb/v7e-m+fp/hard/libg.a(lib_a-lseekr.o)
                                0x564 (size before relaxing)
 .debug_str     0x00016cef      0x21d /usr/lib/gcc/arm-none-eabi/12.2.1/../../../arm-none-eabi/lib/thumb/v7e-m+fp/hard/libg.a(lib_a-mallocr.o)
                                0x781 (size before relaxing)
 .debug_str     0x00016f0c       0x44 /usr/lib/gcc/arm-none-eabi/12.2.1/../../../arm-none-eabi/lib/thumb/v7e-m+fp/hard/libg.a(lib_a-mbrtowc.o)
                                0x78d (size before relaxing)
 .debug_str     0x00016f50       0x46 /usr/lib/gcc/arm-none-eabi/12.2.1/../../../arm-none-eabi/lib/thumb/v7e-m+fp/hard/libg.a(lib_a-mbtowc_r.o)
                                0x787 (size before relaxing)
 .debug_str     0x00016f96       0x3c /usr/lib/gcc/arm-none-eabi/12.2.1/../../../arm-none-eabi/lib/thumb/v7e-m+fp/hard/libg.a(lib_a-memchr.o)
                                 0xa4 (size before relaxing)
 .debug_str     0x00016fd2       0x4c /usr/lib/gcc/arm-none-eabi/12.2.1/../../../arm-none-eabi/lib/thumb/v7e-m+fp/hard/libg.a(lib_a-mlock.o)
                                0x57f (size before relaxing)
 .debug_str     0x0001701e       0x9e /usr/lib/gcc/arm-none-eabi/12.2.1/../../../arm-none-eabi/lib/thumb/v7e-m+fp/hard/libg.a(lib_a-mprec.o)
                                0x877 (size before relaxing)
 .debug_str     0x000170bc       0x32 /usr/lib/gcc/arm-none-eabi/12.2.1/../../../arm-none-eabi/lib/thumb/v7e-m+fp/hard/libg.a(lib_a-readr.o)
                                0x564 (size before relaxing)
 .debug_str     0x000170ee       0x5e /usr/lib/gcc/arm-none-eabi/12.2.1/../../../arm-none-eabi/lib/thumb/v7e-m+fp/hard/libg.a(lib_a-reent.o)
                                0x591 (size before relaxing)
 .debug_str     0x0001714c       0x3d /usr/lib/gcc/arm-none-eabi/12.2.1/../../../arm-none-eabi/lib/thumb/v7e-m+fp/hard/libg.a(lib_a-sbrkr.o)
                                0x569 (size before relaxing)
 .debug_str     0x00017189       0x3a /usr/lib/gcc/arm-none-eabi/12.2.1/../../../arm-none-eabi/lib/thumb/v7e-m+fp/hard/libg.a(lib_a-sccl.o)
                                0x19c (size before relaxing)
 .debug_str     0x000171c3       0x34 /usr/lib/gcc/arm-none-eabi/12.2.1/../../../arm-none-eabi/lib/thumb/v7e-m+fp/hard/libg.a(lib_a-sf_nan.o)
                                0x1af (size before relaxing)
 .debug_str     0x000171f7       0x42 /usr/lib/gcc/arm-none-eabi/12.2.1/../../../arm-none-eabi/lib/thumb/v7e-m+fp/hard/libg.a(lib_a-strcmp.o)
                                 0xb1 (size before relaxing)
 .debug_str     0x00017239      0x24d /usr/lib/gcc/arm-none-eabi/12.2.1/../../../arm-none-eabi/lib/thumb/v7e-m+fp/hard/libg.a(lib_a-strtod.o)
                                0xb2b (size before relaxing)
 .debug_str     0x00017486       0x5a /usr/lib/gcc/arm-none-eabi/12.2.1/../../../arm-none-eabi/lib/thumb/v7e-m+fp/hard/libg.a(lib_a-strtol.o)
                                0x7cd (size before relaxing)
 .debug_str     0x000174e0       0x59 /usr/lib/gcc/arm-none-eabi/12.2.1/../../../arm-none-eabi/lib/thumb/v7e-m+fp/hard/libg.a(lib_a-strtoll.o)
                                0x7db (size before relaxing)
 .debug_str     0x00017539       0x48 /usr/lib/gcc/arm-none-eabi/12.2.1/../../../arm-none-eabi/lib/thumb/v7e-m+fp/hard/libg.a(lib_a-strtoul.o)
                                0x7ca (size before relaxing)
 .debug_str     0x00017581       0x4b /usr/lib/gcc/arm-none-eabi/12.2.1/../../../arm-none-eabi/lib/thumb/v7e-m+fp/hard/libg.a(lib_a-strtoull.o)
                                0x7e0 (size before relaxing)
 .debug_str     0x000175cc       0x30 /usr/lib/gcc/arm-none-eabi/12.2.1/../../../arm-none-eabi/lib/thumb/v7e-m+fp/hard/libg.a(lib_a-svfiprintf.o)
                                0x8c1 (size before relaxing)
 .debug_str     0x000175fc       0x1f /usr/lib/gcc/arm-none-eabi/12.2.1/../../../arm-none-eabi/lib/thumb/v7e-m+fp/hard/libg.a(lib_a-svfiscanf.o)
                                0x932 (size before relaxing)
 .debug_str     0x0001761b       0x66 /usr/lib/gcc/arm-none-eabi/12.2.1/../../../arm-none-eabi/lib/thumb/v7e-m+fp/hard/libg.a(lib_a-ungetc.o)
                                0x5bd (size before relaxing)
 .debug_str     0x00017681       0x47 /usr/lib/gcc/arm-none-eabi/12.2.1/../../../arm-none-eabi/lib/thumb/v7e-m+fp/hard/libg.a(lib_a-wctomb_r.o)
                                0x78e (size before relaxing)
 .debug_str     0x000176c8       0x4e /usr/lib/gcc/arm-none-eabi/12.2.1/../../../arm-none-eabi/lib/thumb/v7e-m+fp/hard/libg.a(lib_a-assert.o)
                                0x59a (size before relaxing)
 .debug_str     0x00017716        0xf /usr/lib/gcc/arm-none-eabi/12.2.1/../../../arm-none-eabi/lib/thumb/v7e-m+fp/hard/libg.a(lib_a-callocr.o)
                                0x5ab (size before relaxing)
 .debug_str     0x00017725       0x63 /usr/lib/gcc/arm-none-eabi/12.2.1/../../../arm-none-eabi/lib/thumb/v7e-m+fp/hard/libg.a(lib_a-fflush.o)
                                0x5d2 (size before relaxing)
 .debug_str     0x00017788      0x159 /usr/lib/gcc/arm-none-eabi/12.2.1/../../../arm-none-eabi/lib/thumb/v7e-m+fp/hard/libg.a(lib_a-findfp.o)
                                0x6f9 (size before relaxing)
 .debug_str     0x000178e1       0x4e /usr/lib/gcc/arm-none-eabi/12.2.1/../../../arm-none-eabi/lib/thumb/v7e-m+fp/hard/libg.a(lib_a-fiprintf.o)
                                0x5a2 (size before relaxing)
 .debug_str     0x0001792f       0x34 /usr/lib/gcc/arm-none-eabi/12.2.1/../../../arm-none-eabi/lib/thumb/v7e-m+fp/hard/libg.a(lib_a-freer.o)
                                0x6cb (size before relaxing)
 .debug_str     0x00017963       0x41 /usr/lib/gcc/arm-none-eabi/12.2.1/../../../arm-none-eabi/lib/thumb/v7e-m+fp/hard/libg.a(lib_a-fwalk.o)
                                0x577 (size before relaxing)
 .debug_str     0x000179a4       0xc9 /usr/lib/gcc/arm-none-eabi/12.2.1/../../../arm-none-eabi/lib/thumb/v7e-m+fp/hard/libg.a(lib_a-gdtoa-gethex.o)
                                0x98d (size before relaxing)
 .debug_str     0x00017a6d       0x42 /usr/lib/gcc/arm-none-eabi/12.2.1/../../../arm-none-eabi/lib/thumb/v7e-m+fp/hard/libg.a(lib_a-gdtoa-hexnan.o)
                                0x2c2 (size before relaxing)
 .debug_str     0x00017aaf       0x6b /usr/lib/gcc/arm-none-eabi/12.2.1/../../../arm-none-eabi/lib/thumb/v7e-m+fp/hard/libg.a(lib_a-lnumeric.o)
                                0x789 (size before relaxing)
 .debug_str     0x00017b1a       0x5f /usr/lib/gcc/arm-none-eabi/12.2.1/../../../arm-none-eabi/lib/thumb/v7e-m+fp/hard/libg.a(lib_a-memmove.o)
                                0x1ca (size before relaxing)
 .debug_str     0x00017b79       0x4e /usr/lib/gcc/arm-none-eabi/12.2.1/../../../arm-none-eabi/lib/thumb/v7e-m+fp/hard/libg.a(lib_a-reallocr.o)
                                0x653 (size before relaxing)
 .debug_str     0x00017bc7       0x33 /usr/lib/gcc/arm-none-eabi/12.2.1/../../../arm-none-eabi/lib/thumb/v7e-m+fp/hard/libg.a(lib_a-s_nan.o)
                                0x1a9 (size before relaxing)
 .debug_str     0x00017bfa       0x35 /usr/lib/gcc/arm-none-eabi/12.2.1/../../../arm-none-eabi/lib/thumb/v7e-m+fp/hard/libg.a(lib_a-strncmp.o)
                                0x199 (size before relaxing)
 .debug_str     0x00017c2f       0x48 /usr/lib/gcc/arm-none-eabi/12.2.1/../../../arm-none-eabi/lib/thumb/v7e-m+fp/hard/libg.a(lib_a-vfiprintf.o)
                                0x903 (size before relaxing)
 .debug_str     0x00017c77       0x40 /usr/lib/gcc/arm-none-eabi/12.2.1/../../../arm-none-eabi/lib/thumb/v7e-m+fp/hard/libg.a(lib_a-wsetup.o)
                                0x591 (size before relaxing)
 .debug_str     0x00017cb7       0x3f /usr/lib/gcc/arm-none-eabi/12.2.1/../../../arm-none-eabi/lib/thumb/v7e-m+fp/hard/libg.a(lib_a-abort.o)
                                0x19a (size before relaxing)
 .debug_str     0x00017cf6       0x3a /usr/lib/gcc/arm-none-eabi/12.2.1/../../../arm-none-eabi/lib/thumb/v7e-m+fp/hard/libg.a(lib_a-fclose.o)
                                0x5bf (size before relaxing)
 .debug_str     0x00017d30       0x5b /usr/lib/gcc/arm-none-eabi/12.2.1/../../../arm-none-eabi/lib/thumb/v7e-m+fp/hard/libg.a(lib_a-fputwc.o)
                                0x5e1 (size before relaxing)
 .debug_str     0x00017d8b       0x43 /usr/lib/gcc/arm-none-eabi/12.2.1/../../../arm-none-eabi/lib/thumb/v7e-m+fp/hard/libg.a(lib_a-fvwrite.o)
                                0x604 (size before relaxing)
 .debug_str     0x00017dce      0x151 /usr/lib/gcc/arm-none-eabi/12.2.1/../../../arm-none-eabi/lib/thumb/v7e-m+fp/hard/libg.a(lib_a-makebuf.o)
                                0x6fe (size before relaxing)
 .debug_str     0x00017f1f       0xf1 /usr/lib/gcc/arm-none-eabi/12.2.1/../../../arm-none-eabi/lib/thumb/v7e-m+fp/hard/libg.a(lib_a-signal.o)
                                0x5e8 (size before relaxing)
 .debug_str     0x00018010       0x4a /usr/lib/gcc/arm-none-eabi/12.2.1/../../../arm-none-eabi/lib/thumb/v7e-m+fp/hard/libg.a(lib_a-signalr.o)
                                0x57c (size before relaxing)
 .debug_str     0x0001805a       0x39 /usr/lib/gcc/arm-none-eabi/12.2.1/../../../arm-none-eabi/lib/thumb/v7e-m+fp/hard/libg.a(lib_a-wbuf.o)
                                0x596 (size before relaxing)
 .debug_str     0x00018093       0x3d /usr/lib/gcc/arm-none-eabi/12.2.1/../../../arm-none-eabi/lib/thumb/v7e-m+fp/hard/libg.a(lib_a-wcrtomb.o)
                                0x78d (size before relaxing)
 .debug_str     0x000180d0       0x40 /usr/lib/gcc/arm-none-eabi/12.2.1/../../../arm-none-eabi/lib/thumb/v7e-m+fp/hard/libg.a(lib_a-fstatr.o)
                                0x6a8 (size before relaxing)
 .debug_str     0x00018110       0x3c /usr/lib/gcc/arm-none-eabi/12.2.1/../../../arm-none-eabi/lib/thumb/v7e-m+fp/hard/libg.a(lib_a-isattyr.o)
                                0x560 (size before relaxing)
 .debug_str     0x0001814c       0xb1 /usr/lib/gcc/arm-none-eabi/12.2.1/thumb/v7e-m+fp/hard/libgcc.a(_arm_muldf3.o)
                                 0xbe (size before relaxing)
 .debug_str     0x000181fd       0x6d /usr/lib/gcc/arm-none-eabi/12.2.1/thumb/v7e-m+fp/hard/libgcc.a(_arm_addsubdf3.o)
                                0x154 (size before relaxing)
 .debug_str     0x0001826a        0x9 /usr/lib/gcc/arm-none-eabi/12.2.1/thumb/v7e-m+fp/hard/libgcc.a(_arm_muldivdf3.o)
                                 0xd4 (size before relaxing)
 .debug_str     0x00018273       0x79 /usr/lib/gcc/arm-none-eabi/12.2.1/thumb/v7e-m+fp/hard/libgcc.a(_arm_cmpdf2.o)
                                0x15d (size before relaxing)
 .debug_str     0x000182ec        0xb /usr/lib/gcc/arm-none-eabi/12.2.1/thumb/v7e-m+fp/hard/libgcc.a(_arm_unorddf2.o)
                                 0xc2 (size before relaxing)
 .debug_str     0x000182f7        0xa /usr/lib/gcc/arm-none-eabi/12.2.1/thumb/v7e-m+fp/hard/libgcc.a(_arm_fixdfsi.o)
                                 0xbf (size before relaxing)
 .debug_str     0x00018301        0xd /usr/lib/gcc/arm-none-eabi/12.2.1/thumb/v7e-m+fp/hard/libgcc.a(_arm_fixunsdfsi.o)
                                 0xc3 (size before relaxing)
 .debug_str     0x0001830e        0xd /usr/lib/gcc/arm-none-eabi/12.2.1/thumb/v7e-m+fp/hard/libgcc.a(_arm_truncdfsf2.o)
                                 0xc1 (size before relaxing)
 .debug_str     0x0001831b       0x2c /usr/lib/gcc/arm-none-eabi/12.2.1/thumb/v7e-m+fp/hard/libgcc.a(_aeabi_uldivmod.o)
                                 0xa3 (size before relaxing)
 .debug_str     0x00018347      0x547 /usr/lib/gcc/arm-none-eabi/12.2.1/thumb/v7e-m+fp/hard/libgcc.a(_fixdfdi.o)
                                0x64f (size before relaxing)
 .debug_str     0x0001888e        0x8 /usr/lib/gcc/arm-none-eabi/12.2.1/thumb/v7e-m+fp/hard/libgcc.a(_fixunsdfdi.o)
                                0x65e (size before relaxing)
 .debug_str     0x00018896       0xf3 /usr/lib/gcc/arm-none-eabi/12.2.1/thumb/v7e-m+fp/hard/libgcc.a(_udivmoddi4.o)
                                0x676 (size before relaxing)
 .debug_str     0x00018989       0x4c /usr/lib/gcc/arm-none-eabi/12.2.1/thumb/v7e-m+fp/hard/libgcc.a(_dvmd_tls.o)
                                 0xc3 (size before relaxing)
 .debug_str     0x000189d5       0xe2 /usr/lib/gcc/arm-none-eabi/12.2.1/../../../arm-none-eabi/lib/thumb/v7e-m+fp/hard/libnosys.a(close.o)
                                0x184 (size before relaxing)
 .debug_str     0x00018ab7       0x2f /usr/lib/gcc/arm-none-eabi/12.2.1/../../../arm-none-eabi/lib/thumb/v7e-m+fp/hard/libnosys.a(fstat.o)
                                0x2d0 (size before relaxing)
 .debug_str     0x00018ae6       0x30 /usr/lib/gcc/arm-none-eabi/12.2.1/../../../arm-none-eabi/lib/thumb/v7e-m+fp/hard/libnosys.a(getpid.o)
                                0x17f (size before relaxing)
 .debug_str     0x00018b16       0x30 /usr/lib/gcc/arm-none-eabi/12.2.1/../../../arm-none-eabi/lib/thumb/v7e-m+fp/hard/libnosys.a(isatty.o)
                                0x184 (size before relaxing)
 .debug_str     0x00018b46       0x2e /usr/lib/gcc/arm-none-eabi/12.2.1/../../../arm-none-eabi/lib/thumb/v7e-m+fp/hard/libnosys.a(kill.o)
                                0x17b (size before relaxing)
 .debug_str     0x00018b74       0x2f /usr/lib/gcc/arm-none-eabi/12.2.1/../../../arm-none-eabi/lib/thumb/v7e-m+fp/hard/libnosys.a(lseek.o)
                                0x182 (size before relaxing)
 .debug_str     0x00018ba3       0x2e /usr/lib/gcc/arm-none-eabi/12.2.1/../../../arm-none-eabi/lib/thumb/v7e-m+fp/hard/libnosys.a(read.o)
                                0x180 (size before relaxing)
 .debug_str     0x00018bd1       0x3c /usr/lib/gcc/arm-none-eabi/12.2.1/../../../arm-none-eabi/lib/thumb/v7e-m+fp/hard/libnosys.a(sbrk.o)
                                0x101 (size before relaxing)
 .debug_str     0x00018c0d       0x2f /usr/lib/gcc/arm-none-eabi/12.2.1/../../../arm-none-eabi/lib/thumb/v7e-m+fp/hard/libnosys.a(write.o)
                                0x182 (size before relaxing)
 .debug_str     0x00018c3c       0x2f /usr/lib/gcc/arm-none-eabi/12.2.1/../../../arm-none-eabi/lib/thumb/v7e-m+fp/hard/libnosys.a(_exit.o)
                                0x171 (size before relaxing)

.comment        0x00000000       0x26
 .comment       0x00000000       0x26 bin/obj/adc.o
                                 0x27 (size before relaxing)
 .comment       0x00000026       0x27 bin/obj/bno055.o
 .comment       0x00000026       0x27 bin/obj/croutine.o
 .comment       0x00000026       0x27 bin/obj/dialog.o
 .comment       0x00000026       0x27 bin/obj/dma.o
 .comment       0x00000026       0x27 bin/obj/event_groups.o
 .comment       0x00000026       0x27 bin/obj/exti.o
 .comment       0x00000026       0x27 bin/obj/gpio.o
 .comment       0x00000026       0x27 bin/obj/heap.o
 .comment       0x00000026       0x27 bin/obj/i2c.o
 .comment       0x00000026       0x27 bin/obj/list.o
 .comment       0x00000026       0x27 bin/obj/main.o
 .comment       0x00000026       0x27 bin/obj/mems.o
 .comment       0x00000026       0x27 bin/obj/motor.o
 .comment       0x00000026       0x27 bin/obj/port.o
 .comment       0x00000026       0x27 bin/obj/queue.o
 .comment       0x00000026       0x27 bin/obj/rcc.o
 .comment       0x00000026       0x27 bin/obj/stream_buffer.o
 .comment       0x00000026       0x27 bin/obj/sys.o
 .comment       0x00000026       0x27 bin/obj/tasks.o
 .comment       0x00000026       0x27 bin/obj/timers.o
 .comment       0x00000026       0x27 bin/obj/usart.o
 .comment       0x00000026       0x27 /usr/lib/gcc/arm-none-eabi/12.2.1/../../../arm-none-eabi/lib/thumb/v7e-m+fp/hard/libm.a(lib_a-w_sqrt.o)
 .comment       0x00000026       0x27 /usr/lib/gcc/arm-none-eabi/12.2.1/../../../arm-none-eabi/lib/thumb/v7e-m+fp/hard/libm.a(lib_a-e_sqrt.o)
 .comment       0x00000026       0x27 /usr/lib/gcc/arm-none-eabi/12.2.1/../../../arm-none-eabi/lib/thumb/v7e-m+fp/hard/libm.a(lib_a-s_lib_ver.o)
 .comment       0x00000026       0x27 /usr/lib/gcc/arm-none-eabi/12.2.1/../../../arm-none-eabi/lib/thumb/v7e-m+fp/hard/libg.a(lib_a-ctype_.o)
 .comment       0x00000026       0x27 /usr/lib/gcc/arm-none-eabi/12.2.1/../../../arm-none-eabi/lib/thumb/v7e-m+fp/hard/libg.a(lib_a-errno.o)
 .comment       0x00000026       0x27 /usr/lib/gcc/arm-none-eabi/12.2.1/../../../arm-none-eabi/lib/thumb/v7e-m+fp/hard/libg.a(lib_a-impure.o)
 .comment       0x00000026       0x27 /usr/lib/gcc/arm-none-eabi/12.2.1/../../../arm-none-eabi/lib/thumb/v7e-m+fp/hard/libg.a(lib_a-memset.o)
 .comment       0x00000026       0x27 /usr/lib/gcc/arm-none-eabi/12.2.1/../../../arm-none-eabi/lib/thumb/v7e-m+fp/hard/libg.a(lib_a-sprintf.o)
 .comment       0x00000026       0x27 /usr/lib/gcc/arm-none-eabi/12.2.1/../../../arm-none-eabi/lib/thumb/v7e-m+fp/hard/libg.a(lib_a-sscanf.o)
 .comment       0x00000026       0x27 /usr/lib/gcc/arm-none-eabi/12.2.1/../../../arm-none-eabi/lib/thumb/v7e-m+fp/hard/libg.a(lib_a-stdio.o)
 .comment       0x00000026       0x27 /usr/lib/gcc/arm-none-eabi/12.2.1/../../../arm-none-eabi/lib/thumb/v7e-m+fp/hard/libg.a(lib_a-svfprintf.o)
 .comment       0x00000026       0x27 /usr/lib/gcc/arm-none-eabi/12.2.1/../../../arm-none-eabi/lib/thumb/v7e-m+fp/hard/libg.a(lib_a-svfscanf.o)
 .comment       0x00000026       0x27 /usr/lib/gcc/arm-none-eabi/12.2.1/../../../arm-none-eabi/lib/thumb/v7e-m+fp/hard/libg.a(lib_a-writer.o)
 .comment       0x00000026       0x27 /usr/lib/gcc/arm-none-eabi/12.2.1/../../../arm-none-eabi/lib/thumb/v7e-m+fp/hard/libg.a(lib_a-closer.o)
 .comment       0x00000026       0x27 /usr/lib/gcc/arm-none-eabi/12.2.1/../../../arm-none-eabi/lib/thumb/v7e-m+fp/hard/libg.a(lib_a-dtoa.o)
 .comment       0x00000026       0x27 /usr/lib/gcc/arm-none-eabi/12.2.1/../../../arm-none-eabi/lib/thumb/v7e-m+fp/hard/libg.a(lib_a-iswspace.o)
 .comment       0x00000026       0x27 /usr/lib/gcc/arm-none-eabi/12.2.1/../../../arm-none-eabi/lib/thumb/v7e-m+fp/hard/libg.a(lib_a-iswspace_l.o)
 .comment       0x00000026       0x27 /usr/lib/gcc/arm-none-eabi/12.2.1/../../../arm-none-eabi/lib/thumb/v7e-m+fp/hard/libg.a(lib_a-locale.o)
 .comment       0x00000026       0x27 /usr/lib/gcc/arm-none-eabi/12.2.1/../../../arm-none-eabi/lib/thumb/v7e-m+fp/hard/libg.a(lib_a-localeconv.o)
 .comment       0x00000026       0x27 /usr/lib/gcc/arm-none-eabi/12.2.1/../../../arm-none-eabi/lib/thumb/v7e-m+fp/hard/libg.a(lib_a-lseekr.o)
 .comment       0x00000026       0x27 /usr/lib/gcc/arm-none-eabi/12.2.1/../../../arm-none-eabi/lib/thumb/v7e-m+fp/hard/libg.a(lib_a-mallocr.o)
 .comment       0x00000026       0x27 /usr/lib/gcc/arm-none-eabi/12.2.1/../../../arm-none-eabi/lib/thumb/v7e-m+fp/hard/libg.a(lib_a-mbrtowc.o)
 .comment       0x00000026       0x27 /usr/lib/gcc/arm-none-eabi/12.2.1/../../../arm-none-eabi/lib/thumb/v7e-m+fp/hard/libg.a(lib_a-mbtowc_r.o)
 .comment       0x00000026       0x27 /usr/lib/gcc/arm-none-eabi/12.2.1/../../../arm-none-eabi/lib/thumb/v7e-m+fp/hard/libg.a(lib_a-mlock.o)
 .comment       0x00000026       0x27 /usr/lib/gcc/arm-none-eabi/12.2.1/../../../arm-none-eabi/lib/thumb/v7e-m+fp/hard/libg.a(lib_a-mprec.o)
 .comment       0x00000026       0x27 /usr/lib/gcc/arm-none-eabi/12.2.1/../../../arm-none-eabi/lib/thumb/v7e-m+fp/hard/libg.a(lib_a-readr.o)
 .comment       0x00000026       0x27 /usr/lib/gcc/arm-none-eabi/12.2.1/../../../arm-none-eabi/lib/thumb/v7e-m+fp/hard/libg.a(lib_a-reent.o)
 .comment       0x00000026       0x27 /usr/lib/gcc/arm-none-eabi/12.2.1/../../../arm-none-eabi/lib/thumb/v7e-m+fp/hard/libg.a(lib_a-sbrkr.o)
 .comment       0x00000026       0x27 /usr/lib/gcc/arm-none-eabi/12.2.1/../../../arm-none-eabi/lib/thumb/v7e-m+fp/hard/libg.a(lib_a-sccl.o)
 .comment       0x00000026       0x27 /usr/lib/gcc/arm-none-eabi/12.2.1/../../../arm-none-eabi/lib/thumb/v7e-m+fp/hard/libg.a(lib_a-sf_nan.o)
 .comment       0x00000026       0x27 /usr/lib/gcc/arm-none-eabi/12.2.1/../../../arm-none-eabi/lib/thumb/v7e-m+fp/hard/libg.a(lib_a-strtod.o)
 .comment       0x00000026       0x27 /usr/lib/gcc/arm-none-eabi/12.2.1/../../../arm-none-eabi/lib/thumb/v7e-m+fp/hard/libg.a(lib_a-strtol.o)
 .comment       0x00000026       0x27 /usr/lib/gcc/arm-none-eabi/12.2.1/../../../arm-none-eabi/lib/thumb/v7e-m+fp/hard/libg.a(lib_a-strtoll.o)
 .comment       0x00000026       0x27 /usr/lib/gcc/arm-none-eabi/12.2.1/../../../arm-none-eabi/lib/thumb/v7e-m+fp/hard/libg.a(lib_a-strtoul.o)
 .comment       0x00000026       0x27 /usr/lib/gcc/arm-none-eabi/12.2.1/../../../arm-none-eabi/lib/thumb/v7e-m+fp/hard/libg.a(lib_a-strtoull.o)
 .comment       0x00000026       0x27 /usr/lib/gcc/arm-none-eabi/12.2.1/../../../arm-none-eabi/lib/thumb/v7e-m+fp/hard/libg.a(lib_a-svfiprintf.o)
 .comment       0x00000026       0x27 /usr/lib/gcc/arm-none-eabi/12.2.1/../../../arm-none-eabi/lib/thumb/v7e-m+fp/hard/libg.a(lib_a-svfiscanf.o)
 .comment       0x00000026       0x27 /usr/lib/gcc/arm-none-eabi/12.2.1/../../../arm-none-eabi/lib/thumb/v7e-m+fp/hard/libg.a(lib_a-ungetc.o)
 .comment       0x00000026       0x27 /usr/lib/gcc/arm-none-eabi/12.2.1/../../../arm-none-eabi/lib/thumb/v7e-m+fp/hard/libg.a(lib_a-wctomb_r.o)
 .comment       0x00000026       0x27 /usr/lib/gcc/arm-none-eabi/12.2.1/../../../arm-none-eabi/lib/thumb/v7e-m+fp/hard/libg.a(lib_a-assert.o)
 .comment       0x00000026       0x27 /usr/lib/gcc/arm-none-eabi/12.2.1/../../../arm-none-eabi/lib/thumb/v7e-m+fp/hard/libg.a(lib_a-callocr.o)
 .comment       0x00000026       0x27 /usr/lib/gcc/arm-none-eabi/12.2.1/../../../arm-none-eabi/lib/thumb/v7e-m+fp/hard/libg.a(lib_a-fflush.o)
 .comment       0x00000026       0x27 /usr/lib/gcc/arm-none-eabi/12.2.1/../../../arm-none-eabi/lib/thumb/v7e-m+fp/hard/libg.a(lib_a-findfp.o)
 .comment       0x00000026       0x27 /usr/lib/gcc/arm-none-eabi/12.2.1/../../../arm-none-eabi/lib/thumb/v7e-m+fp/hard/libg.a(lib_a-fiprintf.o)
 .comment       0x00000026       0x27 /usr/lib/gcc/arm-none-eabi/12.2.1/../../../arm-none-eabi/lib/thumb/v7e-m+fp/hard/libg.a(lib_a-freer.o)
 .comment       0x00000026       0x27 /usr/lib/gcc/arm-none-eabi/12.2.1/../../../arm-none-eabi/lib/thumb/v7e-m+fp/hard/libg.a(lib_a-fwalk.o)
 .comment       0x00000026       0x27 /usr/lib/gcc/arm-none-eabi/12.2.1/../../../arm-none-eabi/lib/thumb/v7e-m+fp/hard/libg.a(lib_a-gdtoa-gethex.o)
 .comment       0x00000026       0x27 /usr/lib/gcc/arm-none-eabi/12.2.1/../../../arm-none-eabi/lib/thumb/v7e-m+fp/hard/libg.a(lib_a-gdtoa-hexnan.o)
 .comment       0x00000026       0x27 /usr/lib/gcc/arm-none-eabi/12.2.1/../../../arm-none-eabi/lib/thumb/v7e-m+fp/hard/libg.a(lib_a-lnumeric.o)
 .comment       0x00000026       0x27 /usr/lib/gcc/arm-none-eabi/12.2.1/../../../arm-none-eabi/lib/thumb/v7e-m+fp/hard/libg.a(lib_a-memmove.o)
 .comment       0x00000026       0x27 /usr/lib/gcc/arm-none-eabi/12.2.1/../../../arm-none-eabi/lib/thumb/v7e-m+fp/hard/libg.a(lib_a-reallocr.o)
 .comment       0x00000026       0x27 /usr/lib/gcc/arm-none-eabi/12.2.1/../../../arm-none-eabi/lib/thumb/v7e-m+fp/hard/libg.a(lib_a-s_nan.o)
 .comment       0x00000026       0x27 /usr/lib/gcc/arm-none-eabi/12.2.1/../../../arm-none-eabi/lib/thumb/v7e-m+fp/hard/libg.a(lib_a-strncmp.o)
 .comment       0x00000026       0x27 /usr/lib/gcc/arm-none-eabi/12.2.1/../../../arm-none-eabi/lib/thumb/v7e-m+fp/hard/libg.a(lib_a-vfiprintf.o)
 .comment       0x00000026       0x27 /usr/lib/gcc/arm-none-eabi/12.2.1/../../../arm-none-eabi/lib/thumb/v7e-m+fp/hard/libg.a(lib_a-wsetup.o)
 .comment       0x00000026       0x27 /usr/lib/gcc/arm-none-eabi/12.2.1/../../../arm-none-eabi/lib/thumb/v7e-m+fp/hard/libg.a(lib_a-abort.o)
 .comment       0x00000026       0x27 /usr/lib/gcc/arm-none-eabi/12.2.1/../../../arm-none-eabi/lib/thumb/v7e-m+fp/hard/libg.a(lib_a-fclose.o)
 .comment       0x00000026       0x27 /usr/lib/gcc/arm-none-eabi/12.2.1/../../../arm-none-eabi/lib/thumb/v7e-m+fp/hard/libg.a(lib_a-fputwc.o)
 .comment       0x00000026       0x27 /usr/lib/gcc/arm-none-eabi/12.2.1/../../../arm-none-eabi/lib/thumb/v7e-m+fp/hard/libg.a(lib_a-fvwrite.o)
 .comment       0x00000026       0x27 /usr/lib/gcc/arm-none-eabi/12.2.1/../../../arm-none-eabi/lib/thumb/v7e-m+fp/hard/libg.a(lib_a-makebuf.o)
 .comment       0x00000026       0x27 /usr/lib/gcc/arm-none-eabi/12.2.1/../../../arm-none-eabi/lib/thumb/v7e-m+fp/hard/libg.a(lib_a-signal.o)
 .comment       0x00000026       0x27 /usr/lib/gcc/arm-none-eabi/12.2.1/../../../arm-none-eabi/lib/thumb/v7e-m+fp/hard/libg.a(lib_a-signalr.o)
 .comment       0x00000026       0x27 /usr/lib/gcc/arm-none-eabi/12.2.1/../../../arm-none-eabi/lib/thumb/v7e-m+fp/hard/libg.a(lib_a-wbuf.o)
 .comment       0x00000026       0x27 /usr/lib/gcc/arm-none-eabi/12.2.1/../../../arm-none-eabi/lib/thumb/v7e-m+fp/hard/libg.a(lib_a-wcrtomb.o)
 .comment       0x00000026       0x27 /usr/lib/gcc/arm-none-eabi/12.2.1/../../../arm-none-eabi/lib/thumb/v7e-m+fp/hard/libg.a(lib_a-fstatr.o)
 .comment       0x00000026       0x27 /usr/lib/gcc/arm-none-eabi/12.2.1/../../../arm-none-eabi/lib/thumb/v7e-m+fp/hard/libg.a(lib_a-isattyr.o)
 .comment       0x00000026       0x27 /usr/lib/gcc/arm-none-eabi/12.2.1/thumb/v7e-m+fp/hard/libgcc.a(_fixdfdi.o)
 .comment       0x00000026       0x27 /usr/lib/gcc/arm-none-eabi/12.2.1/thumb/v7e-m+fp/hard/libgcc.a(_fixunsdfdi.o)
 .comment       0x00000026       0x27 /usr/lib/gcc/arm-none-eabi/12.2.1/thumb/v7e-m+fp/hard/libgcc.a(_udivmoddi4.o)
 .comment       0x00000026       0x27 /usr/lib/gcc/arm-none-eabi/12.2.1/../../../arm-none-eabi/lib/thumb/v7e-m+fp/hard/libnosys.a(close.o)
 .comment       0x00000026       0x27 /usr/lib/gcc/arm-none-eabi/12.2.1/../../../arm-none-eabi/lib/thumb/v7e-m+fp/hard/libnosys.a(fstat.o)
 .comment       0x00000026       0x27 /usr/lib/gcc/arm-none-eabi/12.2.1/../../../arm-none-eabi/lib/thumb/v7e-m+fp/hard/libnosys.a(getpid.o)
 .comment       0x00000026       0x27 /usr/lib/gcc/arm-none-eabi/12.2.1/../../../arm-none-eabi/lib/thumb/v7e-m+fp/hard/libnosys.a(isatty.o)
 .comment       0x00000026       0x27 /usr/lib/gcc/arm-none-eabi/12.2.1/../../../arm-none-eabi/lib/thumb/v7e-m+fp/hard/libnosys.a(kill.o)
 .comment       0x00000026       0x27 /usr/lib/gcc/arm-none-eabi/12.2.1/../../../arm-none-eabi/lib/thumb/v7e-m+fp/hard/libnosys.a(lseek.o)
 .comment       0x00000026       0x27 /usr/lib/gcc/arm-none-eabi/12.2.1/../../../arm-none-eabi/lib/thumb/v7e-m+fp/hard/libnosys.a(read.o)
 .comment       0x00000026       0x27 /usr/lib/gcc/arm-none-eabi/12.2.1/../../../arm-none-eabi/lib/thumb/v7e-m+fp/hard/libnosys.a(sbrk.o)
 .comment       0x00000026       0x27 /usr/lib/gcc/arm-none-eabi/12.2.1/../../../arm-none-eabi/lib/thumb/v7e-m+fp/hard/libnosys.a(write.o)
 .comment       0x00000026       0x27 /usr/lib/gcc/arm-none-eabi/12.2.1/../../../arm-none-eabi/lib/thumb/v7e-m+fp/hard/libnosys.a(_exit.o)

.ARM.attributes
                0x00000000       0x32
 .ARM.attributes
                0x00000000       0x34 bin/obj/adc.o
 .ARM.attributes
                0x00000034       0x34 bin/obj/bno055.o
 .ARM.attributes
                0x00000068       0x34 bin/obj/croutine.o
 .ARM.attributes
                0x0000009c       0x34 bin/obj/dialog.o
 .ARM.attributes
                0x000000d0       0x34 bin/obj/dma.o
 .ARM.attributes
                0x00000104       0x34 bin/obj/event_groups.o
 .ARM.attributes
                0x00000138       0x34 bin/obj/exti.o
 .ARM.attributes
                0x0000016c       0x34 bin/obj/gpio.o
 .ARM.attributes
                0x000001a0       0x34 bin/obj/heap.o
 .ARM.attributes
                0x000001d4       0x34 bin/obj/i2c.o
 .ARM.attributes
                0x00000208       0x34 bin/obj/list.o
 .ARM.attributes
                0x0000023c       0x34 bin/obj/main.o
 .ARM.attributes
                0x00000270       0x34 bin/obj/mems.o
 .ARM.attributes
                0x000002a4       0x34 bin/obj/motor.o
 .ARM.attributes
                0x000002d8       0x34 bin/obj/port.o
 .ARM.attributes
                0x0000030c       0x34 bin/obj/queue.o
 .ARM.attributes
                0x00000340       0x34 bin/obj/rcc.o
 .ARM.attributes
                0x00000374       0x34 bin/obj/stream_buffer.o
 .ARM.attributes
                0x000003a8       0x34 bin/obj/sys.o
 .ARM.attributes
                0x000003dc       0x34 bin/obj/tasks.o
 .ARM.attributes
                0x00000410       0x34 bin/obj/timers.o
 .ARM.attributes
                0x00000444       0x34 bin/obj/usart.o
 .ARM.attributes
                0x00000478       0x34 /usr/lib/gcc/arm-none-eabi/12.2.1/../../../arm-none-eabi/lib/thumb/v7e-m+fp/hard/libm.a(lib_a-w_sqrt.o)
 .ARM.attributes
                0x000004ac       0x34 /usr/lib/gcc/arm-none-eabi/12.2.1/../../../arm-none-eabi/lib/thumb/v7e-m+fp/hard/libm.a(lib_a-e_sqrt.o)
 .ARM.attributes
                0x000004e0       0x34 /usr/lib/gcc/arm-none-eabi/12.2.1/../../../arm-none-eabi/lib/thumb/v7e-m+fp/hard/libm.a(lib_a-s_lib_ver.o)
 .ARM.attributes
                0x00000514       0x34 /usr/lib/gcc/arm-none-eabi/12.2.1/../../../arm-none-eabi/lib/thumb/v7e-m+fp/hard/libg.a(lib_a-ctype_.o)
 .ARM.attributes
                0x00000548       0x34 /usr/lib/gcc/arm-none-eabi/12.2.1/../../../arm-none-eabi/lib/thumb/v7e-m+fp/hard/libg.a(lib_a-errno.o)
 .ARM.attributes
                0x0000057c       0x34 /usr/lib/gcc/arm-none-eabi/12.2.1/../../../arm-none-eabi/lib/thumb/v7e-m+fp/hard/libg.a(lib_a-impure.o)
 .ARM.attributes
                0x000005b0       0x20 /usr/lib/gcc/arm-none-eabi/12.2.1/../../../arm-none-eabi/lib/thumb/v7e-m+fp/hard/libg.a(lib_a-memcpy.o)
 .ARM.attributes
                0x000005d0       0x34 /usr/lib/gcc/arm-none-eabi/12.2.1/../../../arm-none-eabi/lib/thumb/v7e-m+fp/hard/libg.a(lib_a-memset.o)
 .ARM.attributes
                0x00000604       0x34 /usr/lib/gcc/arm-none-eabi/12.2.1/../../../arm-none-eabi/lib/thumb/v7e-m+fp/hard/libg.a(lib_a-sprintf.o)
 .ARM.attributes
                0x00000638       0x34 /usr/lib/gcc/arm-none-eabi/12.2.1/../../../arm-none-eabi/lib/thumb/v7e-m+fp/hard/libg.a(lib_a-sscanf.o)
 .ARM.attributes
                0x0000066c       0x34 /usr/lib/gcc/arm-none-eabi/12.2.1/../../../arm-none-eabi/lib/thumb/v7e-m+fp/hard/libg.a(lib_a-stdio.o)
 .ARM.attributes
                0x000006a0       0x1c /usr/lib/gcc/arm-none-eabi/12.2.1/../../../arm-none-eabi/lib/thumb/v7e-m+fp/hard/libg.a(lib_a-strlen.o)
 .ARM.attributes
                0x000006bc       0x34 /usr/lib/gcc/arm-none-eabi/12.2.1/../../../arm-none-eabi/lib/thumb/v7e-m+fp/hard/libg.a(lib_a-svfprintf.o)
 .ARM.attributes
                0x000006f0       0x34 /usr/lib/gcc/arm-none-eabi/12.2.1/../../../arm-none-eabi/lib/thumb/v7e-m+fp/hard/libg.a(lib_a-svfscanf.o)
 .ARM.attributes
                0x00000724       0x34 /usr/lib/gcc/arm-none-eabi/12.2.1/../../../arm-none-eabi/lib/thumb/v7e-m+fp/hard/libg.a(lib_a-writer.o)
 .ARM.attributes
                0x00000758       0x34 /usr/lib/gcc/arm-none-eabi/12.2.1/../../../arm-none-eabi/lib/thumb/v7e-m+fp/hard/libg.a(lib_a-closer.o)
 .ARM.attributes
                0x0000078c       0x34 /usr/lib/gcc/arm-none-eabi/12.2.1/../../../arm-none-eabi/lib/thumb/v7e-m+fp/hard/libg.a(lib_a-dtoa.o)
 .ARM.attributes
                0x000007c0       0x34 /usr/lib/gcc/arm-none-eabi/12.2.1/../../../arm-none-eabi/lib/thumb/v7e-m+fp/hard/libg.a(lib_a-iswspace.o)
 .ARM.attributes
                0x000007f4       0x34 /usr/lib/gcc/arm-none-eabi/12.2.1/../../../arm-none-eabi/lib/thumb/v7e-m+fp/hard/libg.a(lib_a-iswspace_l.o)
 .ARM.attributes
                0x00000828       0x34 /usr/lib/gcc/arm-none-eabi/12.2.1/../../../arm-none-eabi/lib/thumb/v7e-m+fp/hard/libg.a(lib_a-locale.o)
 .ARM.attributes
                0x0000085c       0x34 /usr/lib/gcc/arm-none-eabi/12.2.1/../../../arm-none-eabi/lib/thumb/v7e-m+fp/hard/libg.a(lib_a-localeconv.o)
 .ARM.attributes
                0x00000890       0x34 /usr/lib/gcc/arm-none-eabi/12.2.1/../../../arm-none-eabi/lib/thumb/v7e-m+fp/hard/libg.a(lib_a-lseekr.o)
 .ARM.attributes
                0x000008c4       0x34 /usr/lib/gcc/arm-none-eabi/12.2.1/../../../arm-none-eabi/lib/thumb/v7e-m+fp/hard/libg.a(lib_a-mallocr.o)
 .ARM.attributes
                0x000008f8       0x34 /usr/lib/gcc/arm-none-eabi/12.2.1/../../../arm-none-eabi/lib/thumb/v7e-m+fp/hard/libg.a(lib_a-mbrtowc.o)
 .ARM.attributes
                0x0000092c       0x34 /usr/lib/gcc/arm-none-eabi/12.2.1/../../../arm-none-eabi/lib/thumb/v7e-m+fp/hard/libg.a(lib_a-mbtowc_r.o)
 .ARM.attributes
                0x00000960       0x1c /usr/lib/gcc/arm-none-eabi/12.2.1/../../../arm-none-eabi/lib/thumb/v7e-m+fp/hard/libg.a(lib_a-memchr.o)
 .ARM.attributes
                0x0000097c       0x34 /usr/lib/gcc/arm-none-eabi/12.2.1/../../../arm-none-eabi/lib/thumb/v7e-m+fp/hard/libg.a(lib_a-mlock.o)
 .ARM.attributes
                0x000009b0       0x34 /usr/lib/gcc/arm-none-eabi/12.2.1/../../../arm-none-eabi/lib/thumb/v7e-m+fp/hard/libg.a(lib_a-mprec.o)
 .ARM.attributes
                0x000009e4       0x34 /usr/lib/gcc/arm-none-eabi/12.2.1/../../../arm-none-eabi/lib/thumb/v7e-m+fp/hard/libg.a(lib_a-readr.o)
 .ARM.attributes
                0x00000a18       0x34 /usr/lib/gcc/arm-none-eabi/12.2.1/../../../arm-none-eabi/lib/thumb/v7e-m+fp/hard/libg.a(lib_a-reent.o)
 .ARM.attributes
                0x00000a4c       0x34 /usr/lib/gcc/arm-none-eabi/12.2.1/../../../arm-none-eabi/lib/thumb/v7e-m+fp/hard/libg.a(lib_a-sbrkr.o)
 .ARM.attributes
                0x00000a80       0x34 /usr/lib/gcc/arm-none-eabi/12.2.1/../../../arm-none-eabi/lib/thumb/v7e-m+fp/hard/libg.a(lib_a-sccl.o)
 .ARM.attributes
                0x00000ab4       0x34 /usr/lib/gcc/arm-none-eabi/12.2.1/../../../arm-none-eabi/lib/thumb/v7e-m+fp/hard/libg.a(lib_a-sf_nan.o)
 .ARM.attributes
                0x00000ae8       0x20 /usr/lib/gcc/arm-none-eabi/12.2.1/../../../arm-none-eabi/lib/thumb/v7e-m+fp/hard/libg.a(lib_a-strcmp.o)
 .ARM.attributes
                0x00000b08       0x34 /usr/lib/gcc/arm-none-eabi/12.2.1/../../../arm-none-eabi/lib/thumb/v7e-m+fp/hard/libg.a(lib_a-strtod.o)
 .ARM.attributes
                0x00000b3c       0x34 /usr/lib/gcc/arm-none-eabi/12.2.1/../../../arm-none-eabi/lib/thumb/v7e-m+fp/hard/libg.a(lib_a-strtol.o)
 .ARM.attributes
                0x00000b70       0x34 /usr/lib/gcc/arm-none-eabi/12.2.1/../../../arm-none-eabi/lib/thumb/v7e-m+fp/hard/libg.a(lib_a-strtoll.o)
 .ARM.attributes
                0x00000ba4       0x34 /usr/lib/gcc/arm-none-eabi/12.2.1/../../../arm-none-eabi/lib/thumb/v7e-m+fp/hard/libg.a(lib_a-strtoul.o)
 .ARM.attributes
                0x00000bd8       0x34 /usr/lib/gcc/arm-none-eabi/12.2.1/../../../arm-none-eabi/lib/thumb/v7e-m+fp/hard/libg.a(lib_a-strtoull.o)
 .ARM.attributes
                0x00000c0c       0x34 /usr/lib/gcc/arm-none-eabi/12.2.1/../../../arm-none-eabi/lib/thumb/v7e-m+fp/hard/libg.a(lib_a-svfiprintf.o)
 .ARM.attributes
                0x00000c40       0x34 /usr/lib/gcc/arm-none-eabi/12.2.1/../../../arm-none-eabi/lib/thumb/v7e-m+fp/hard/libg.a(lib_a-svfiscanf.o)
 .ARM.attributes
                0x00000c74       0x34 /usr/lib/gcc/arm-none-eabi/12.2.1/../../../arm-none-eabi/lib/thumb/v7e-m+fp/hard/libg.a(lib_a-ungetc.o)
 .ARM.attributes
                0x00000ca8       0x34 /usr/lib/gcc/arm-none-eabi/12.2.1/../../../arm-none-eabi/lib/thumb/v7e-m+fp/hard/libg.a(lib_a-wctomb_r.o)
 .ARM.attributes
                0x00000cdc       0x34 /usr/lib/gcc/arm-none-eabi/12.2.1/../../../arm-none-eabi/lib/thumb/v7e-m+fp/hard/libg.a(lib_a-assert.o)
 .ARM.attributes
                0x00000d10       0x34 /usr/lib/gcc/arm-none-eabi/12.2.1/../../../arm-none-eabi/lib/thumb/v7e-m+fp/hard/libg.a(lib_a-callocr.o)
 .ARM.attributes
                0x00000d44       0x34 /usr/lib/gcc/arm-none-eabi/12.2.1/../../../arm-none-eabi/lib/thumb/v7e-m+fp/hard/libg.a(lib_a-fflush.o)
 .ARM.attributes
                0x00000d78       0x34 /usr/lib/gcc/arm-none-eabi/12.2.1/../../../arm-none-eabi/lib/thumb/v7e-m+fp/hard/libg.a(lib_a-findfp.o)
 .ARM.attributes
                0x00000dac       0x34 /usr/lib/gcc/arm-none-eabi/12.2.1/../../../arm-none-eabi/lib/thumb/v7e-m+fp/hard/libg.a(lib_a-fiprintf.o)
 .ARM.attributes
                0x00000de0       0x34 /usr/lib/gcc/arm-none-eabi/12.2.1/../../../arm-none-eabi/lib/thumb/v7e-m+fp/hard/libg.a(lib_a-freer.o)
 .ARM.attributes
                0x00000e14       0x34 /usr/lib/gcc/arm-none-eabi/12.2.1/../../../arm-none-eabi/lib/thumb/v7e-m+fp/hard/libg.a(lib_a-fwalk.o)
 .ARM.attributes
                0x00000e48       0x34 /usr/lib/gcc/arm-none-eabi/12.2.1/../../../arm-none-eabi/lib/thumb/v7e-m+fp/hard/libg.a(lib_a-gdtoa-gethex.o)
 .ARM.attributes
                0x00000e7c       0x34 /usr/lib/gcc/arm-none-eabi/12.2.1/../../../arm-none-eabi/lib/thumb/v7e-m+fp/hard/libg.a(lib_a-gdtoa-hexnan.o)
 .ARM.attributes
                0x00000eb0       0x34 /usr/lib/gcc/arm-none-eabi/12.2.1/../../../arm-none-eabi/lib/thumb/v7e-m+fp/hard/libg.a(lib_a-lnumeric.o)
 .ARM.attributes
                0x00000ee4       0x34 /usr/lib/gcc/arm-none-eabi/12.2.1/../../../arm-none-eabi/lib/thumb/v7e-m+fp/hard/libg.a(lib_a-memmove.o)
 .ARM.attributes
                0x00000f18       0x34 /usr/lib/gcc/arm-none-eabi/12.2.1/../../../arm-none-eabi/lib/thumb/v7e-m+fp/hard/libg.a(lib_a-reallocr.o)
 .ARM.attributes
                0x00000f4c       0x34 /usr/lib/gcc/arm-none-eabi/12.2.1/../../../arm-none-eabi/lib/thumb/v7e-m+fp/hard/libg.a(lib_a-s_nan.o)
 .ARM.attributes
                0x00000f80       0x34 /usr/lib/gcc/arm-none-eabi/12.2.1/../../../arm-none-eabi/lib/thumb/v7e-m+fp/hard/libg.a(lib_a-strncmp.o)
 .ARM.attributes
                0x00000fb4       0x34 /usr/lib/gcc/arm-none-eabi/12.2.1/../../../arm-none-eabi/lib/thumb/v7e-m+fp/hard/libg.a(lib_a-vfiprintf.o)
 .ARM.attributes
                0x00000fe8       0x34 /usr/lib/gcc/arm-none-eabi/12.2.1/../../../arm-none-eabi/lib/thumb/v7e-m+fp/hard/libg.a(lib_a-wsetup.o)
 .ARM.attributes
                0x0000101c       0x34 /usr/lib/gcc/arm-none-eabi/12.2.1/../../../arm-none-eabi/lib/thumb/v7e-m+fp/hard/libg.a(lib_a-abort.o)
 .ARM.attributes
                0x00001050       0x34 /usr/lib/gcc/arm-none-eabi/12.2.1/../../../arm-none-eabi/lib/thumb/v7e-m+fp/hard/libg.a(lib_a-fclose.o)
 .ARM.attributes
                0x00001084       0x34 /usr/lib/gcc/arm-none-eabi/12.2.1/../../../arm-none-eabi/lib/thumb/v7e-m+fp/hard/libg.a(lib_a-fputwc.o)
 .ARM.attributes
                0x000010b8       0x34 /usr/lib/gcc/arm-none-eabi/12.2.1/../../../arm-none-eabi/lib/thumb/v7e-m+fp/hard/libg.a(lib_a-fvwrite.o)
 .ARM.attributes
                0x000010ec       0x34 /usr/lib/gcc/arm-none-eabi/12.2.1/../../../arm-none-eabi/lib/thumb/v7e-m+fp/hard/libg.a(lib_a-makebuf.o)
 .ARM.attributes
                0x00001120       0x34 /usr/lib/gcc/arm-none-eabi/12.2.1/../../../arm-none-eabi/lib/thumb/v7e-m+fp/hard/libg.a(lib_a-signal.o)
 .ARM.attributes
                0x00001154       0x34 /usr/lib/gcc/arm-none-eabi/12.2.1/../../../arm-none-eabi/lib/thumb/v7e-m+fp/hard/libg.a(lib_a-signalr.o)
 .ARM.attributes
                0x00001188       0x34 /usr/lib/gcc/arm-none-eabi/12.2.1/../../../arm-none-eabi/lib/thumb/v7e-m+fp/hard/libg.a(lib_a-wbuf.o)
 .ARM.attributes
                0x000011bc       0x34 /usr/lib/gcc/arm-none-eabi/12.2.1/../../../arm-none-eabi/lib/thumb/v7e-m+fp/hard/libg.a(lib_a-wcrtomb.o)
 .ARM.attributes
                0x000011f0       0x34 /usr/lib/gcc/arm-none-eabi/12.2.1/../../../arm-none-eabi/lib/thumb/v7e-m+fp/hard/libg.a(lib_a-fstatr.o)
 .ARM.attributes
                0x00001224       0x34 /usr/lib/gcc/arm-none-eabi/12.2.1/../../../arm-none-eabi/lib/thumb/v7e-m+fp/hard/libg.a(lib_a-isattyr.o)
 .ARM.attributes
                0x00001258       0x22 /usr/lib/gcc/arm-none-eabi/12.2.1/thumb/v7e-m+fp/hard/libgcc.a(_arm_muldf3.o)
 .ARM.attributes
                0x0000127a       0x22 /usr/lib/gcc/arm-none-eabi/12.2.1/thumb/v7e-m+fp/hard/libgcc.a(_arm_addsubdf3.o)
 .ARM.attributes
                0x0000129c       0x22 /usr/lib/gcc/arm-none-eabi/12.2.1/thumb/v7e-m+fp/hard/libgcc.a(_arm_muldivdf3.o)
 .ARM.attributes
                0x000012be       0x22 /usr/lib/gcc/arm-none-eabi/12.2.1/thumb/v7e-m+fp/hard/libgcc.a(_arm_cmpdf2.o)
 .ARM.attributes
                0x000012e0       0x22 /usr/lib/gcc/arm-none-eabi/12.2.1/thumb/v7e-m+fp/hard/libgcc.a(_arm_unorddf2.o)
 .ARM.attributes
                0x00001302       0x22 /usr/lib/gcc/arm-none-eabi/12.2.1/thumb/v7e-m+fp/hard/libgcc.a(_arm_fixdfsi.o)
 .ARM.attributes
                0x00001324       0x22 /usr/lib/gcc/arm-none-eabi/12.2.1/thumb/v7e-m+fp/hard/libgcc.a(_arm_fixunsdfsi.o)
 .ARM.attributes
                0x00001346       0x22 /usr/lib/gcc/arm-none-eabi/12.2.1/thumb/v7e-m+fp/hard/libgcc.a(_arm_truncdfsf2.o)
 .ARM.attributes
                0x00001368       0x22 /usr/lib/gcc/arm-none-eabi/12.2.1/thumb/v7e-m+fp/hard/libgcc.a(_aeabi_uldivmod.o)
 .ARM.attributes
                0x0000138a       0x34 /usr/lib/gcc/arm-none-eabi/12.2.1/thumb/v7e-m+fp/hard/libgcc.a(_fixdfdi.o)
 .ARM.attributes
                0x000013be       0x34 /usr/lib/gcc/arm-none-eabi/12.2.1/thumb/v7e-m+fp/hard/libgcc.a(_fixunsdfdi.o)
 .ARM.attributes
                0x000013f2       0x34 /usr/lib/gcc/arm-none-eabi/12.2.1/thumb/v7e-m+fp/hard/libgcc.a(_udivmoddi4.o)
 .ARM.attributes
                0x00001426       0x22 /usr/lib/gcc/arm-none-eabi/12.2.1/thumb/v7e-m+fp/hard/libgcc.a(_dvmd_tls.o)
 .ARM.attributes
                0x00001448       0x34 /usr/lib/gcc/arm-none-eabi/12.2.1/../../../arm-none-eabi/lib/thumb/v7e-m+fp/hard/libnosys.a(close.o)
 .ARM.attributes
                0x0000147c       0x34 /usr/lib/gcc/arm-none-eabi/12.2.1/../../../arm-none-eabi/lib/thumb/v7e-m+fp/hard/libnosys.a(fstat.o)
 .ARM.attributes
                0x000014b0       0x34 /usr/lib/gcc/arm-none-eabi/12.2.1/../../../arm-none-eabi/lib/thumb/v7e-m+fp/hard/libnosys.a(getpid.o)
 .ARM.attributes
                0x000014e4       0x34 /usr/lib/gcc/arm-none-eabi/12.2.1/../../../arm-none-eabi/lib/thumb/v7e-m+fp/hard/libnosys.a(isatty.o)
 .ARM.attributes
                0x00001518       0x34 /usr/lib/gcc/arm-none-eabi/12.2.1/../../../arm-none-eabi/lib/thumb/v7e-m+fp/hard/libnosys.a(kill.o)
 .ARM.attributes
                0x0000154c       0x34 /usr/lib/gcc/arm-none-eabi/12.2.1/../../../arm-none-eabi/lib/thumb/v7e-m+fp/hard/libnosys.a(lseek.o)
 .ARM.attributes
                0x00001580       0x34 /usr/lib/gcc/arm-none-eabi/12.2.1/../../../arm-none-eabi/lib/thumb/v7e-m+fp/hard/libnosys.a(read.o)
 .ARM.attributes
                0x000015b4       0x34 /usr/lib/gcc/arm-none-eabi/12.2.1/../../../arm-none-eabi/lib/thumb/v7e-m+fp/hard/libnosys.a(sbrk.o)
 .ARM.attributes
                0x000015e8       0x34 /usr/lib/gcc/arm-none-eabi/12.2.1/../../../arm-none-eabi/lib/thumb/v7e-m+fp/hard/libnosys.a(write.o)
 .ARM.attributes
                0x0000161c       0x34 /usr/lib/gcc/arm-none-eabi/12.2.1/../../../arm-none-eabi/lib/thumb/v7e-m+fp/hard/libnosys.a(_exit.o)

.debug_frame    0x00000000     0x4500
 .debug_frame   0x00000000       0xa4 bin/obj/adc.o
 .debug_frame   0x000000a4       0x80 bin/obj/bno055.o
 .debug_frame   0x00000124       0x50 bin/obj/dialog.o
 .debug_frame   0x00000174      0x390 bin/obj/dma.o
 .debug_frame   0x00000504      0x180 bin/obj/event_groups.o
 .debug_frame   0x00000684      0x1b8 bin/obj/exti.o
 .debug_frame   0x0000083c       0xd8 bin/obj/gpio.o
 .debug_frame   0x00000914      0x12c bin/obj/heap.o
 .debug_frame   0x00000a40      0x21c bin/obj/i2c.o
 .debug_frame   0x00000c5c       0xd8 bin/obj/list.o
 .debug_frame   0x00000d34       0x78 bin/obj/main.o
 .debug_frame   0x00000dac       0x5c bin/obj/mems.o
 .debug_frame   0x00000e08       0xf4 bin/obj/motor.o
 .debug_frame   0x00000efc      0x1a8 bin/obj/port.o
 .debug_frame   0x000010a4      0x448 bin/obj/queue.o
 .debug_frame   0x000014ec       0x38 bin/obj/rcc.o
 .debug_frame   0x00001524      0x330 bin/obj/stream_buffer.o
 .debug_frame   0x00001854      0x158 bin/obj/sys.o
 .debug_frame   0x000019ac      0x7ec bin/obj/tasks.o
 .debug_frame   0x00002198      0x354 bin/obj/timers.o
 .debug_frame   0x000024ec      0x280 bin/obj/usart.o
 .debug_frame   0x0000276c       0x48 /usr/lib/gcc/arm-none-eabi/12.2.1/../../../arm-none-eabi/lib/thumb/v7e-m+fp/hard/libm.a(lib_a-w_sqrt.o)
 .debug_frame   0x000027b4       0x34 /usr/lib/gcc/arm-none-eabi/12.2.1/../../../arm-none-eabi/lib/thumb/v7e-m+fp/hard/libm.a(lib_a-e_sqrt.o)
 .debug_frame   0x000027e8       0x20 /usr/lib/gcc/arm-none-eabi/12.2.1/../../../arm-none-eabi/lib/thumb/v7e-m+fp/hard/libg.a(lib_a-errno.o)
 .debug_frame   0x00002808       0x2c /usr/lib/gcc/arm-none-eabi/12.2.1/../../../arm-none-eabi/lib/thumb/v7e-m+fp/hard/libg.a(lib_a-memset.o)
 .debug_frame   0x00002834       0x74 /usr/lib/gcc/arm-none-eabi/12.2.1/../../../arm-none-eabi/lib/thumb/v7e-m+fp/hard/libg.a(lib_a-sprintf.o)
 .debug_frame   0x000028a8       0x80 /usr/lib/gcc/arm-none-eabi/12.2.1/../../../arm-none-eabi/lib/thumb/v7e-m+fp/hard/libg.a(lib_a-sscanf.o)
 .debug_frame   0x00002928       0x8c /usr/lib/gcc/arm-none-eabi/12.2.1/../../../arm-none-eabi/lib/thumb/v7e-m+fp/hard/libg.a(lib_a-stdio.o)
 .debug_frame   0x000029b4       0x44 /usr/lib/gcc/arm-none-eabi/12.2.1/../../../arm-none-eabi/lib/thumb/v7e-m+fp/hard/libg.a(lib_a-svfprintf.o)
 .debug_frame   0x000029f8       0x48 /usr/lib/gcc/arm-none-eabi/12.2.1/../../../arm-none-eabi/lib/thumb/v7e-m+fp/hard/libg.a(lib_a-svfscanf.o)
 .debug_frame   0x00002a40       0x2c /usr/lib/gcc/arm-none-eabi/12.2.1/../../../arm-none-eabi/lib/thumb/v7e-m+fp/hard/libg.a(lib_a-writer.o)
 .debug_frame   0x00002a6c       0x2c /usr/lib/gcc/arm-none-eabi/12.2.1/../../../arm-none-eabi/lib/thumb/v7e-m+fp/hard/libg.a(lib_a-closer.o)
 .debug_frame   0x00002a98       0x84 /usr/lib/gcc/arm-none-eabi/12.2.1/../../../arm-none-eabi/lib/thumb/v7e-m+fp/hard/libg.a(lib_a-dtoa.o)
 .debug_frame   0x00002b1c       0x20 /usr/lib/gcc/arm-none-eabi/12.2.1/../../../arm-none-eabi/lib/thumb/v7e-m+fp/hard/libg.a(lib_a-iswspace.o)
 .debug_frame   0x00002b3c       0x20 /usr/lib/gcc/arm-none-eabi/12.2.1/../../../arm-none-eabi/lib/thumb/v7e-m+fp/hard/libg.a(lib_a-iswspace_l.o)
 .debug_frame   0x00002b5c       0x68 /usr/lib/gcc/arm-none-eabi/12.2.1/../../../arm-none-eabi/lib/thumb/v7e-m+fp/hard/libg.a(lib_a-locale.o)
 .debug_frame   0x00002bc4       0x40 /usr/lib/gcc/arm-none-eabi/12.2.1/../../../arm-none-eabi/lib/thumb/v7e-m+fp/hard/libg.a(lib_a-localeconv.o)
 .debug_frame   0x00002c04       0x2c /usr/lib/gcc/arm-none-eabi/12.2.1/../../../arm-none-eabi/lib/thumb/v7e-m+fp/hard/libg.a(lib_a-lseekr.o)
 .debug_frame   0x00002c30       0x48 /usr/lib/gcc/arm-none-eabi/12.2.1/../../../arm-none-eabi/lib/thumb/v7e-m+fp/hard/libg.a(lib_a-mallocr.o)
 .debug_frame   0x00002c78       0x60 /usr/lib/gcc/arm-none-eabi/12.2.1/../../../arm-none-eabi/lib/thumb/v7e-m+fp/hard/libg.a(lib_a-mbrtowc.o)
 .debug_frame   0x00002cd8       0x4c /usr/lib/gcc/arm-none-eabi/12.2.1/../../../arm-none-eabi/lib/thumb/v7e-m+fp/hard/libg.a(lib_a-mbtowc_r.o)
 .debug_frame   0x00002d24       0x30 /usr/lib/gcc/arm-none-eabi/12.2.1/../../../arm-none-eabi/lib/thumb/v7e-m+fp/hard/libg.a(lib_a-mlock.o)
 .debug_frame   0x00002d54      0x288 /usr/lib/gcc/arm-none-eabi/12.2.1/../../../arm-none-eabi/lib/thumb/v7e-m+fp/hard/libg.a(lib_a-mprec.o)
 .debug_frame   0x00002fdc       0x2c /usr/lib/gcc/arm-none-eabi/12.2.1/../../../arm-none-eabi/lib/thumb/v7e-m+fp/hard/libg.a(lib_a-readr.o)
 .debug_frame   0x00003008       0x64 /usr/lib/gcc/arm-none-eabi/12.2.1/../../../arm-none-eabi/lib/thumb/v7e-m+fp/hard/libg.a(lib_a-reent.o)
 .debug_frame   0x0000306c       0x2c /usr/lib/gcc/arm-none-eabi/12.2.1/../../../arm-none-eabi/lib/thumb/v7e-m+fp/hard/libg.a(lib_a-sbrkr.o)
 .debug_frame   0x00003098       0x2c /usr/lib/gcc/arm-none-eabi/12.2.1/../../../arm-none-eabi/lib/thumb/v7e-m+fp/hard/libg.a(lib_a-sccl.o)
 .debug_frame   0x000030c4       0x20 /usr/lib/gcc/arm-none-eabi/12.2.1/../../../arm-none-eabi/lib/thumb/v7e-m+fp/hard/libg.a(lib_a-sf_nan.o)
 .debug_frame   0x000030e4       0x68 /usr/lib/gcc/arm-none-eabi/12.2.1/../../../arm-none-eabi/lib/thumb/v7e-m+fp/hard/libg.a(lib_a-strcmp.o)
 .debug_frame   0x0000314c      0x120 /usr/lib/gcc/arm-none-eabi/12.2.1/../../../arm-none-eabi/lib/thumb/v7e-m+fp/hard/libg.a(lib_a-strtod.o)
 .debug_frame   0x0000326c       0x80 /usr/lib/gcc/arm-none-eabi/12.2.1/../../../arm-none-eabi/lib/thumb/v7e-m+fp/hard/libg.a(lib_a-strtol.o)
 .debug_frame   0x000032ec       0x90 /usr/lib/gcc/arm-none-eabi/12.2.1/../../../arm-none-eabi/lib/thumb/v7e-m+fp/hard/libg.a(lib_a-strtoll.o)
 .debug_frame   0x0000337c       0x7c /usr/lib/gcc/arm-none-eabi/12.2.1/../../../arm-none-eabi/lib/thumb/v7e-m+fp/hard/libg.a(lib_a-strtoul.o)
 .debug_frame   0x000033f8       0x88 /usr/lib/gcc/arm-none-eabi/12.2.1/../../../arm-none-eabi/lib/thumb/v7e-m+fp/hard/libg.a(lib_a-strtoull.o)
 .debug_frame   0x00003480       0x78 /usr/lib/gcc/arm-none-eabi/12.2.1/../../../arm-none-eabi/lib/thumb/v7e-m+fp/hard/libg.a(lib_a-svfiprintf.o)
 .debug_frame   0x000034f8       0xb4 /usr/lib/gcc/arm-none-eabi/12.2.1/../../../arm-none-eabi/lib/thumb/v7e-m+fp/hard/libg.a(lib_a-svfiscanf.o)
 .debug_frame   0x000035ac       0x68 /usr/lib/gcc/arm-none-eabi/12.2.1/../../../arm-none-eabi/lib/thumb/v7e-m+fp/hard/libg.a(lib_a-ungetc.o)
 .debug_frame   0x00003614       0x3c /usr/lib/gcc/arm-none-eabi/12.2.1/../../../arm-none-eabi/lib/thumb/v7e-m+fp/hard/libg.a(lib_a-wctomb_r.o)
 .debug_frame   0x00003650       0x40 /usr/lib/gcc/arm-none-eabi/12.2.1/../../../arm-none-eabi/lib/thumb/v7e-m+fp/hard/libg.a(lib_a-assert.o)
 .debug_frame   0x00003690       0x28 /usr/lib/gcc/arm-none-eabi/12.2.1/../../../arm-none-eabi/lib/thumb/v7e-m+fp/hard/libg.a(lib_a-callocr.o)
 .debug_frame   0x000036b8       0x80 /usr/lib/gcc/arm-none-eabi/12.2.1/../../../arm-none-eabi/lib/thumb/v7e-m+fp/hard/libg.a(lib_a-fflush.o)
 .debug_frame   0x00003738      0x124 /usr/lib/gcc/arm-none-eabi/12.2.1/../../../arm-none-eabi/lib/thumb/v7e-m+fp/hard/libg.a(lib_a-findfp.o)
 .debug_frame   0x0000385c       0x70 /usr/lib/gcc/arm-none-eabi/12.2.1/../../../arm-none-eabi/lib/thumb/v7e-m+fp/hard/libg.a(lib_a-fiprintf.o)
 .debug_frame   0x000038cc       0x74 /usr/lib/gcc/arm-none-eabi/12.2.1/../../../arm-none-eabi/lib/thumb/v7e-m+fp/hard/libg.a(lib_a-freer.o)
 .debug_frame   0x00003940       0x54 /usr/lib/gcc/arm-none-eabi/12.2.1/../../../arm-none-eabi/lib/thumb/v7e-m+fp/hard/libg.a(lib_a-fwalk.o)
 .debug_frame   0x00003994       0x6c /usr/lib/gcc/arm-none-eabi/12.2.1/../../../arm-none-eabi/lib/thumb/v7e-m+fp/hard/libg.a(lib_a-gdtoa-gethex.o)
 .debug_frame   0x00003a00       0x68 /usr/lib/gcc/arm-none-eabi/12.2.1/../../../arm-none-eabi/lib/thumb/v7e-m+fp/hard/libg.a(lib_a-gdtoa-hexnan.o)
 .debug_frame   0x00003a68       0x20 /usr/lib/gcc/arm-none-eabi/12.2.1/../../../arm-none-eabi/lib/thumb/v7e-m+fp/hard/libg.a(lib_a-lnumeric.o)
 .debug_frame   0x00003a88       0x40 /usr/lib/gcc/arm-none-eabi/12.2.1/../../../arm-none-eabi/lib/thumb/v7e-m+fp/hard/libg.a(lib_a-memmove.o)
 .debug_frame   0x00003ac8       0x48 /usr/lib/gcc/arm-none-eabi/12.2.1/../../../arm-none-eabi/lib/thumb/v7e-m+fp/hard/libg.a(lib_a-reallocr.o)
 .debug_frame   0x00003b10       0x20 /usr/lib/gcc/arm-none-eabi/12.2.1/../../../arm-none-eabi/lib/thumb/v7e-m+fp/hard/libg.a(lib_a-s_nan.o)
 .debug_frame   0x00003b30       0x38 /usr/lib/gcc/arm-none-eabi/12.2.1/../../../arm-none-eabi/lib/thumb/v7e-m+fp/hard/libg.a(lib_a-strncmp.o)
 .debug_frame   0x00003b68       0xdc /usr/lib/gcc/arm-none-eabi/12.2.1/../../../arm-none-eabi/lib/thumb/v7e-m+fp/hard/libg.a(lib_a-vfiprintf.o)
 .debug_frame   0x00003c44       0x2c /usr/lib/gcc/arm-none-eabi/12.2.1/../../../arm-none-eabi/lib/thumb/v7e-m+fp/hard/libg.a(lib_a-wsetup.o)
 .debug_frame   0x00003c70       0x28 /usr/lib/gcc/arm-none-eabi/12.2.1/../../../arm-none-eabi/lib/thumb/v7e-m+fp/hard/libg.a(lib_a-abort.o)
 .debug_frame   0x00003c98       0x3c /usr/lib/gcc/arm-none-eabi/12.2.1/../../../arm-none-eabi/lib/thumb/v7e-m+fp/hard/libg.a(lib_a-fclose.o)
 .debug_frame   0x00003cd4       0x80 /usr/lib/gcc/arm-none-eabi/12.2.1/../../../arm-none-eabi/lib/thumb/v7e-m+fp/hard/libg.a(lib_a-fputwc.o)
 .debug_frame   0x00003d54       0x64 /usr/lib/gcc/arm-none-eabi/12.2.1/../../../arm-none-eabi/lib/thumb/v7e-m+fp/hard/libg.a(lib_a-fvwrite.o)
 .debug_frame   0x00003db8       0x70 /usr/lib/gcc/arm-none-eabi/12.2.1/../../../arm-none-eabi/lib/thumb/v7e-m+fp/hard/libg.a(lib_a-makebuf.o)
 .debug_frame   0x00003e28      0x118 /usr/lib/gcc/arm-none-eabi/12.2.1/../../../arm-none-eabi/lib/thumb/v7e-m+fp/hard/libg.a(lib_a-signal.o)
 .debug_frame   0x00003f40       0x3c /usr/lib/gcc/arm-none-eabi/12.2.1/../../../arm-none-eabi/lib/thumb/v7e-m+fp/hard/libg.a(lib_a-signalr.o)
 .debug_frame   0x00003f7c       0x4c /usr/lib/gcc/arm-none-eabi/12.2.1/../../../arm-none-eabi/lib/thumb/v7e-m+fp/hard/libg.a(lib_a-wbuf.o)
 .debug_frame   0x00003fc8       0x60 /usr/lib/gcc/arm-none-eabi/12.2.1/../../../arm-none-eabi/lib/thumb/v7e-m+fp/hard/libg.a(lib_a-wcrtomb.o)
 .debug_frame   0x00004028       0x2c /usr/lib/gcc/arm-none-eabi/12.2.1/../../../arm-none-eabi/lib/thumb/v7e-m+fp/hard/libg.a(lib_a-fstatr.o)
 .debug_frame   0x00004054       0x2c /usr/lib/gcc/arm-none-eabi/12.2.1/../../../arm-none-eabi/lib/thumb/v7e-m+fp/hard/libg.a(lib_a-isattyr.o)
 .debug_frame   0x00004080       0x30 /usr/lib/gcc/arm-none-eabi/12.2.1/thumb/v7e-m+fp/hard/libgcc.a(_arm_muldf3.o)
 .debug_frame   0x000040b0       0xac /usr/lib/gcc/arm-none-eabi/12.2.1/thumb/v7e-m+fp/hard/libgcc.a(_arm_addsubdf3.o)
 .debug_frame   0x0000415c       0x50 /usr/lib/gcc/arm-none-eabi/12.2.1/thumb/v7e-m+fp/hard/libgcc.a(_arm_muldivdf3.o)
 .debug_frame   0x000041ac       0xc4 /usr/lib/gcc/arm-none-eabi/12.2.1/thumb/v7e-m+fp/hard/libgcc.a(_arm_cmpdf2.o)
 .debug_frame   0x00004270       0x20 /usr/lib/gcc/arm-none-eabi/12.2.1/thumb/v7e-m+fp/hard/libgcc.a(_arm_unorddf2.o)
 .debug_frame   0x00004290       0x24 /usr/lib/gcc/arm-none-eabi/12.2.1/thumb/v7e-m+fp/hard/libgcc.a(_arm_fixdfsi.o)
 .debug_frame   0x000042b4       0x24 /usr/lib/gcc/arm-none-eabi/12.2.1/thumb/v7e-m+fp/hard/libgcc.a(_arm_fixunsdfsi.o)
 .debug_frame   0x000042d8       0x24 /usr/lib/gcc/arm-none-eabi/12.2.1/thumb/v7e-m+fp/hard/libgcc.a(_arm_truncdfsf2.o)
 .debug_frame   0x000042fc       0x2c /usr/lib/gcc/arm-none-eabi/12.2.1/thumb/v7e-m+fp/hard/libgcc.a(_aeabi_uldivmod.o)
 .debug_frame   0x00004328       0x38 /usr/lib/gcc/arm-none-eabi/12.2.1/thumb/v7e-m+fp/hard/libgcc.a(_fixdfdi.o)
 .debug_frame   0x00004360       0x2c /usr/lib/gcc/arm-none-eabi/12.2.1/thumb/v7e-m+fp/hard/libgcc.a(_fixunsdfdi.o)
 .debug_frame   0x0000438c       0x34 /usr/lib/gcc/arm-none-eabi/12.2.1/thumb/v7e-m+fp/hard/libgcc.a(_udivmoddi4.o)
 .debug_frame   0x000043c0       0x20 /usr/lib/gcc/arm-none-eabi/12.2.1/../../../arm-none-eabi/lib/thumb/v7e-m+fp/hard/libnosys.a(close.o)
 .debug_frame   0x000043e0       0x20 /usr/lib/gcc/arm-none-eabi/12.2.1/../../../arm-none-eabi/lib/thumb/v7e-m+fp/hard/libnosys.a(fstat.o)
 .debug_frame   0x00004400       0x20 /usr/lib/gcc/arm-none-eabi/12.2.1/../../../arm-none-eabi/lib/thumb/v7e-m+fp/hard/libnosys.a(getpid.o)
 .debug_frame   0x00004420       0x20 /usr/lib/gcc/arm-none-eabi/12.2.1/../../../arm-none-eabi/lib/thumb/v7e-m+fp/hard/libnosys.a(isatty.o)
 .debug_frame   0x00004440       0x20 /usr/lib/gcc/arm-none-eabi/12.2.1/../../../arm-none-eabi/lib/thumb/v7e-m+fp/hard/libnosys.a(kill.o)
 .debug_frame   0x00004460       0x20 /usr/lib/gcc/arm-none-eabi/12.2.1/../../../arm-none-eabi/lib/thumb/v7e-m+fp/hard/libnosys.a(lseek.o)
 .debug_frame   0x00004480       0x20 /usr/lib/gcc/arm-none-eabi/12.2.1/../../../arm-none-eabi/lib/thumb/v7e-m+fp/hard/libnosys.a(read.o)
 .debug_frame   0x000044a0       0x20 /usr/lib/gcc/arm-none-eabi/12.2.1/../../../arm-none-eabi/lib/thumb/v7e-m+fp/hard/libnosys.a(sbrk.o)
 .debug_frame   0x000044c0       0x20 /usr/lib/gcc/arm-none-eabi/12.2.1/../../../arm-none-eabi/lib/thumb/v7e-m+fp/hard/libnosys.a(write.o)
 .debug_frame   0x000044e0       0x20 /usr/lib/gcc/arm-none-eabi/12.2.1/../../../arm-none-eabi/lib/thumb/v7e-m+fp/hard/libnosys.a(_exit.o)

.debug_loclists
                0x00000000    0x158c7
 .debug_loclists
                0x00000000       0x6c /usr/lib/gcc/arm-none-eabi/12.2.1/../../../arm-none-eabi/lib/thumb/v7e-m+fp/hard/libm.a(lib_a-w_sqrt.o)
 .debug_loclists
                0x0000006c      0x37c /usr/lib/gcc/arm-none-eabi/12.2.1/../../../arm-none-eabi/lib/thumb/v7e-m+fp/hard/libm.a(lib_a-e_sqrt.o)
 .debug_loclists
                0x000003e8      0x1b6 /usr/lib/gcc/arm-none-eabi/12.2.1/../../../arm-none-eabi/lib/thumb/v7e-m+fp/hard/libg.a(lib_a-memset.o)
 .debug_loclists
                0x0000059e       0x74 /usr/lib/gcc/arm-none-eabi/12.2.1/../../../arm-none-eabi/lib/thumb/v7e-m+fp/hard/libg.a(lib_a-sprintf.o)
 .debug_loclists
                0x00000612       0x5f /usr/lib/gcc/arm-none-eabi/12.2.1/../../../arm-none-eabi/lib/thumb/v7e-m+fp/hard/libg.a(lib_a-sscanf.o)
 .debug_loclists
                0x00000671      0x1e1 /usr/lib/gcc/arm-none-eabi/12.2.1/../../../arm-none-eabi/lib/thumb/v7e-m+fp/hard/libg.a(lib_a-stdio.o)
 .debug_loclists
                0x00000852     0x201e /usr/lib/gcc/arm-none-eabi/12.2.1/../../../arm-none-eabi/lib/thumb/v7e-m+fp/hard/libg.a(lib_a-svfprintf.o)
 .debug_loclists
                0x00002870     0x1b7b /usr/lib/gcc/arm-none-eabi/12.2.1/../../../arm-none-eabi/lib/thumb/v7e-m+fp/hard/libg.a(lib_a-svfscanf.o)
 .debug_loclists
                0x000043eb       0x86 /usr/lib/gcc/arm-none-eabi/12.2.1/../../../arm-none-eabi/lib/thumb/v7e-m+fp/hard/libg.a(lib_a-writer.o)
 .debug_loclists
                0x00004471       0x3f /usr/lib/gcc/arm-none-eabi/12.2.1/../../../arm-none-eabi/lib/thumb/v7e-m+fp/hard/libg.a(lib_a-closer.o)
 .debug_loclists
                0x000044b0     0x234f /usr/lib/gcc/arm-none-eabi/12.2.1/../../../arm-none-eabi/lib/thumb/v7e-m+fp/hard/libg.a(lib_a-dtoa.o)
 .debug_loclists
                0x000067ff       0x1e /usr/lib/gcc/arm-none-eabi/12.2.1/../../../arm-none-eabi/lib/thumb/v7e-m+fp/hard/libg.a(lib_a-iswspace.o)
 .debug_loclists
                0x0000681d       0x1e /usr/lib/gcc/arm-none-eabi/12.2.1/../../../arm-none-eabi/lib/thumb/v7e-m+fp/hard/libg.a(lib_a-iswspace_l.o)
 .debug_loclists
                0x0000683b      0x115 /usr/lib/gcc/arm-none-eabi/12.2.1/../../../arm-none-eabi/lib/thumb/v7e-m+fp/hard/libg.a(lib_a-locale.o)
 .debug_loclists
                0x00006950       0x42 /usr/lib/gcc/arm-none-eabi/12.2.1/../../../arm-none-eabi/lib/thumb/v7e-m+fp/hard/libg.a(lib_a-localeconv.o)
 .debug_loclists
                0x00006992       0x86 /usr/lib/gcc/arm-none-eabi/12.2.1/../../../arm-none-eabi/lib/thumb/v7e-m+fp/hard/libg.a(lib_a-lseekr.o)
 .debug_loclists
                0x00006a18      0x9a2 /usr/lib/gcc/arm-none-eabi/12.2.1/../../../arm-none-eabi/lib/thumb/v7e-m+fp/hard/libg.a(lib_a-mallocr.o)
 .debug_loclists
                0x000073ba      0x1d3 /usr/lib/gcc/arm-none-eabi/12.2.1/../../../arm-none-eabi/lib/thumb/v7e-m+fp/hard/libg.a(lib_a-mbrtowc.o)
 .debug_loclists
                0x0000758d      0x11c /usr/lib/gcc/arm-none-eabi/12.2.1/../../../arm-none-eabi/lib/thumb/v7e-m+fp/hard/libg.a(lib_a-mbtowc_r.o)
 .debug_loclists
                0x000076a9     0x1e43 /usr/lib/gcc/arm-none-eabi/12.2.1/../../../arm-none-eabi/lib/thumb/v7e-m+fp/hard/libg.a(lib_a-mprec.o)
 .debug_loclists
                0x000094ec       0x86 /usr/lib/gcc/arm-none-eabi/12.2.1/../../../arm-none-eabi/lib/thumb/v7e-m+fp/hard/libg.a(lib_a-readr.o)
 .debug_loclists
                0x00009572      0x12e /usr/lib/gcc/arm-none-eabi/12.2.1/../../../arm-none-eabi/lib/thumb/v7e-m+fp/hard/libg.a(lib_a-reent.o)
 .debug_loclists
                0x000096a0       0x3f /usr/lib/gcc/arm-none-eabi/12.2.1/../../../arm-none-eabi/lib/thumb/v7e-m+fp/hard/libg.a(lib_a-sbrkr.o)
 .debug_loclists
                0x000096df      0x14e /usr/lib/gcc/arm-none-eabi/12.2.1/../../../arm-none-eabi/lib/thumb/v7e-m+fp/hard/libg.a(lib_a-sccl.o)
 .debug_loclists
                0x0000982d     0x1b9a /usr/lib/gcc/arm-none-eabi/12.2.1/../../../arm-none-eabi/lib/thumb/v7e-m+fp/hard/libg.a(lib_a-strtod.o)
 .debug_loclists
                0x0000b3c7      0x4f6 /usr/lib/gcc/arm-none-eabi/12.2.1/../../../arm-none-eabi/lib/thumb/v7e-m+fp/hard/libg.a(lib_a-strtol.o)
 .debug_loclists
                0x0000b8bd      0x401 /usr/lib/gcc/arm-none-eabi/12.2.1/../../../arm-none-eabi/lib/thumb/v7e-m+fp/hard/libg.a(lib_a-strtoll.o)
 .debug_loclists
                0x0000bcbe      0x34e /usr/lib/gcc/arm-none-eabi/12.2.1/../../../arm-none-eabi/lib/thumb/v7e-m+fp/hard/libg.a(lib_a-strtoul.o)
 .debug_loclists
                0x0000c00c      0x3d4 /usr/lib/gcc/arm-none-eabi/12.2.1/../../../arm-none-eabi/lib/thumb/v7e-m+fp/hard/libg.a(lib_a-strtoull.o)
 .debug_loclists
                0x0000c3e0     0x11b6 /usr/lib/gcc/arm-none-eabi/12.2.1/../../../arm-none-eabi/lib/thumb/v7e-m+fp/hard/libg.a(lib_a-svfiprintf.o)
 .debug_loclists
                0x0000d596     0x1857 /usr/lib/gcc/arm-none-eabi/12.2.1/../../../arm-none-eabi/lib/thumb/v7e-m+fp/hard/libg.a(lib_a-svfiscanf.o)
 .debug_loclists
                0x0000eded      0x1c6 /usr/lib/gcc/arm-none-eabi/12.2.1/../../../arm-none-eabi/lib/thumb/v7e-m+fp/hard/libg.a(lib_a-ungetc.o)
 .debug_loclists
                0x0000efb3       0xa9 /usr/lib/gcc/arm-none-eabi/12.2.1/../../../arm-none-eabi/lib/thumb/v7e-m+fp/hard/libg.a(lib_a-wctomb_r.o)
 .debug_loclists
                0x0000f05c       0xd0 /usr/lib/gcc/arm-none-eabi/12.2.1/../../../arm-none-eabi/lib/thumb/v7e-m+fp/hard/libg.a(lib_a-assert.o)
 .debug_loclists
                0x0000f12c      0x1bc /usr/lib/gcc/arm-none-eabi/12.2.1/../../../arm-none-eabi/lib/thumb/v7e-m+fp/hard/libg.a(lib_a-callocr.o)
 .debug_loclists
                0x0000f2e8      0x280 /usr/lib/gcc/arm-none-eabi/12.2.1/../../../arm-none-eabi/lib/thumb/v7e-m+fp/hard/libg.a(lib_a-fflush.o)
 .debug_loclists
                0x0000f568      0x221 /usr/lib/gcc/arm-none-eabi/12.2.1/../../../arm-none-eabi/lib/thumb/v7e-m+fp/hard/libg.a(lib_a-findfp.o)
 .debug_loclists
                0x0000f789       0x59 /usr/lib/gcc/arm-none-eabi/12.2.1/../../../arm-none-eabi/lib/thumb/v7e-m+fp/hard/libg.a(lib_a-fiprintf.o)
 .debug_loclists
                0x0000f7e2      0x40d /usr/lib/gcc/arm-none-eabi/12.2.1/../../../arm-none-eabi/lib/thumb/v7e-m+fp/hard/libg.a(lib_a-freer.o)
 .debug_loclists
                0x0000fbef       0xe1 /usr/lib/gcc/arm-none-eabi/12.2.1/../../../arm-none-eabi/lib/thumb/v7e-m+fp/hard/libg.a(lib_a-fwalk.o)
 .debug_loclists
                0x0000fcd0     0x10a3 /usr/lib/gcc/arm-none-eabi/12.2.1/../../../arm-none-eabi/lib/thumb/v7e-m+fp/hard/libg.a(lib_a-gdtoa-gethex.o)
 .debug_loclists
                0x00010d73      0x5c6 /usr/lib/gcc/arm-none-eabi/12.2.1/../../../arm-none-eabi/lib/thumb/v7e-m+fp/hard/libg.a(lib_a-gdtoa-hexnan.o)
 .debug_loclists
                0x00011339       0x1e /usr/lib/gcc/arm-none-eabi/12.2.1/../../../arm-none-eabi/lib/thumb/v7e-m+fp/hard/libg.a(lib_a-lnumeric.o)
 .debug_loclists
                0x00011357      0x209 /usr/lib/gcc/arm-none-eabi/12.2.1/../../../arm-none-eabi/lib/thumb/v7e-m+fp/hard/libg.a(lib_a-memmove.o)
 .debug_loclists
                0x00011560      0xb55 /usr/lib/gcc/arm-none-eabi/12.2.1/../../../arm-none-eabi/lib/thumb/v7e-m+fp/hard/libg.a(lib_a-reallocr.o)
 .debug_loclists
                0x000120b5       0xf6 /usr/lib/gcc/arm-none-eabi/12.2.1/../../../arm-none-eabi/lib/thumb/v7e-m+fp/hard/libg.a(lib_a-strncmp.o)
 .debug_loclists
                0x000121ab     0x186d /usr/lib/gcc/arm-none-eabi/12.2.1/../../../arm-none-eabi/lib/thumb/v7e-m+fp/hard/libg.a(lib_a-vfiprintf.o)
 .debug_loclists
                0x00013a18       0x57 /usr/lib/gcc/arm-none-eabi/12.2.1/../../../arm-none-eabi/lib/thumb/v7e-m+fp/hard/libg.a(lib_a-wsetup.o)
 .debug_loclists
                0x00013a6f       0xd0 /usr/lib/gcc/arm-none-eabi/12.2.1/../../../arm-none-eabi/lib/thumb/v7e-m+fp/hard/libg.a(lib_a-fclose.o)
 .debug_loclists
                0x00013b3f      0x213 /usr/lib/gcc/arm-none-eabi/12.2.1/../../../arm-none-eabi/lib/thumb/v7e-m+fp/hard/libg.a(lib_a-fputwc.o)
 .debug_loclists
                0x00013d52      0x4ee /usr/lib/gcc/arm-none-eabi/12.2.1/../../../arm-none-eabi/lib/thumb/v7e-m+fp/hard/libg.a(lib_a-fvwrite.o)
 .debug_loclists
                0x00014240      0x23d /usr/lib/gcc/arm-none-eabi/12.2.1/../../../arm-none-eabi/lib/thumb/v7e-m+fp/hard/libg.a(lib_a-makebuf.o)
 .debug_loclists
                0x0001447d      0x518 /usr/lib/gcc/arm-none-eabi/12.2.1/../../../arm-none-eabi/lib/thumb/v7e-m+fp/hard/libg.a(lib_a-signal.o)
 .debug_loclists
                0x00014995       0x71 /usr/lib/gcc/arm-none-eabi/12.2.1/../../../arm-none-eabi/lib/thumb/v7e-m+fp/hard/libg.a(lib_a-signalr.o)
 .debug_loclists
                0x00014a06      0x105 /usr/lib/gcc/arm-none-eabi/12.2.1/../../../arm-none-eabi/lib/thumb/v7e-m+fp/hard/libg.a(lib_a-wbuf.o)
 .debug_loclists
                0x00014b0b      0x1a6 /usr/lib/gcc/arm-none-eabi/12.2.1/../../../arm-none-eabi/lib/thumb/v7e-m+fp/hard/libg.a(lib_a-wcrtomb.o)
 .debug_loclists
                0x00014cb1       0x5f /usr/lib/gcc/arm-none-eabi/12.2.1/../../../arm-none-eabi/lib/thumb/v7e-m+fp/hard/libg.a(lib_a-fstatr.o)
 .debug_loclists
                0x00014d10       0x3f /usr/lib/gcc/arm-none-eabi/12.2.1/../../../arm-none-eabi/lib/thumb/v7e-m+fp/hard/libg.a(lib_a-isattyr.o)
 .debug_loclists
                0x00014d4f       0x25 /usr/lib/gcc/arm-none-eabi/12.2.1/thumb/v7e-m+fp/hard/libgcc.a(_fixdfdi.o)
 .debug_loclists
                0x00014d74       0x7a /usr/lib/gcc/arm-none-eabi/12.2.1/thumb/v7e-m+fp/hard/libgcc.a(_fixunsdfdi.o)
 .debug_loclists
                0x00014dee      0x993 /usr/lib/gcc/arm-none-eabi/12.2.1/thumb/v7e-m+fp/hard/libgcc.a(_udivmoddi4.o)
 .debug_loclists
                0x00015781       0x1e /usr/lib/gcc/arm-none-eabi/12.2.1/../../../arm-none-eabi/lib/thumb/v7e-m+fp/hard/libnosys.a(close.o)
 .debug_loclists
                0x0001579f       0x1e /usr/lib/gcc/arm-none-eabi/12.2.1/../../../arm-none-eabi/lib/thumb/v7e-m+fp/hard/libnosys.a(fstat.o)
 .debug_loclists
                0x000157bd       0x1e /usr/lib/gcc/arm-none-eabi/12.2.1/../../../arm-none-eabi/lib/thumb/v7e-m+fp/hard/libnosys.a(isatty.o)
 .debug_loclists
                0x000157db       0x1e /usr/lib/gcc/arm-none-eabi/12.2.1/../../../arm-none-eabi/lib/thumb/v7e-m+fp/hard/libnosys.a(kill.o)
 .debug_loclists
                0x000157f9       0x30 /usr/lib/gcc/arm-none-eabi/12.2.1/../../../arm-none-eabi/lib/thumb/v7e-m+fp/hard/libnosys.a(lseek.o)
 .debug_loclists
                0x00015829       0x30 /usr/lib/gcc/arm-none-eabi/12.2.1/../../../arm-none-eabi/lib/thumb/v7e-m+fp/hard/libnosys.a(read.o)
 .debug_loclists
                0x00015859       0x2a /usr/lib/gcc/arm-none-eabi/12.2.1/../../../arm-none-eabi/lib/thumb/v7e-m+fp/hard/libnosys.a(sbrk.o)
 .debug_loclists
                0x00015883       0x30 /usr/lib/gcc/arm-none-eabi/12.2.1/../../../arm-none-eabi/lib/thumb/v7e-m+fp/hard/libnosys.a(write.o)
 .debug_loclists
                0x000158b3       0x14 /usr/lib/gcc/arm-none-eabi/12.2.1/../../../arm-none-eabi/lib/thumb/v7e-m+fp/hard/libnosys.a(_exit.o)

.debug_rnglists
                0x00000000      0xa73
 .debug_rnglists
                0x00000000       0x13 /usr/lib/gcc/arm-none-eabi/12.2.1/../../../arm-none-eabi/lib/thumb/v7e-m+fp/hard/libm.a(lib_a-e_sqrt.o)
 .debug_rnglists
                0x00000013       0xcb /usr/lib/gcc/arm-none-eabi/12.2.1/../../../arm-none-eabi/lib/thumb/v7e-m+fp/hard/libg.a(lib_a-svfprintf.o)
 .debug_rnglists
                0x000000de      0x115 /usr/lib/gcc/arm-none-eabi/12.2.1/../../../arm-none-eabi/lib/thumb/v7e-m+fp/hard/libg.a(lib_a-svfscanf.o)
 .debug_rnglists
                0x000001f3       0x27 /usr/lib/gcc/arm-none-eabi/12.2.1/../../../arm-none-eabi/lib/thumb/v7e-m+fp/hard/libg.a(lib_a-dtoa.o)
 .debug_rnglists
                0x0000021a       0x19 /usr/lib/gcc/arm-none-eabi/12.2.1/../../../arm-none-eabi/lib/thumb/v7e-m+fp/hard/libg.a(lib_a-locale.o)
 .debug_rnglists
                0x00000233       0x3a /usr/lib/gcc/arm-none-eabi/12.2.1/../../../arm-none-eabi/lib/thumb/v7e-m+fp/hard/libg.a(lib_a-mallocr.o)
 .debug_rnglists
                0x0000026d       0x14 /usr/lib/gcc/arm-none-eabi/12.2.1/../../../arm-none-eabi/lib/thumb/v7e-m+fp/hard/libg.a(lib_a-mbrtowc.o)
 .debug_rnglists
                0x00000281       0xb8 /usr/lib/gcc/arm-none-eabi/12.2.1/../../../arm-none-eabi/lib/thumb/v7e-m+fp/hard/libg.a(lib_a-mprec.o)
 .debug_rnglists
                0x00000339       0x17 /usr/lib/gcc/arm-none-eabi/12.2.1/../../../arm-none-eabi/lib/thumb/v7e-m+fp/hard/libg.a(lib_a-reent.o)
 .debug_rnglists
                0x00000350       0x14 /usr/lib/gcc/arm-none-eabi/12.2.1/../../../arm-none-eabi/lib/thumb/v7e-m+fp/hard/libg.a(lib_a-sccl.o)
 .debug_rnglists
                0x00000364       0x60 /usr/lib/gcc/arm-none-eabi/12.2.1/../../../arm-none-eabi/lib/thumb/v7e-m+fp/hard/libg.a(lib_a-strtod.o)
 .debug_rnglists
                0x000003c4       0x1b /usr/lib/gcc/arm-none-eabi/12.2.1/../../../arm-none-eabi/lib/thumb/v7e-m+fp/hard/libg.a(lib_a-strtol.o)
 .debug_rnglists
                0x000003df       0x2a /usr/lib/gcc/arm-none-eabi/12.2.1/../../../arm-none-eabi/lib/thumb/v7e-m+fp/hard/libg.a(lib_a-svfiprintf.o)
 .debug_rnglists
                0x00000409      0x1f5 /usr/lib/gcc/arm-none-eabi/12.2.1/../../../arm-none-eabi/lib/thumb/v7e-m+fp/hard/libg.a(lib_a-svfiscanf.o)
 .debug_rnglists
                0x000005fe       0x16 /usr/lib/gcc/arm-none-eabi/12.2.1/../../../arm-none-eabi/lib/thumb/v7e-m+fp/hard/libg.a(lib_a-ungetc.o)
 .debug_rnglists
                0x00000614       0x23 /usr/lib/gcc/arm-none-eabi/12.2.1/../../../arm-none-eabi/lib/thumb/v7e-m+fp/hard/libg.a(lib_a-callocr.o)
 .debug_rnglists
                0x00000637       0x54 /usr/lib/gcc/arm-none-eabi/12.2.1/../../../arm-none-eabi/lib/thumb/v7e-m+fp/hard/libg.a(lib_a-fflush.o)
 .debug_rnglists
                0x0000068b       0x37 /usr/lib/gcc/arm-none-eabi/12.2.1/../../../arm-none-eabi/lib/thumb/v7e-m+fp/hard/libg.a(lib_a-findfp.o)
 .debug_rnglists
                0x000006c2       0x60 /usr/lib/gcc/arm-none-eabi/12.2.1/../../../arm-none-eabi/lib/thumb/v7e-m+fp/hard/libg.a(lib_a-gdtoa-gethex.o)
 .debug_rnglists
                0x00000722       0x8f /usr/lib/gcc/arm-none-eabi/12.2.1/../../../arm-none-eabi/lib/thumb/v7e-m+fp/hard/libg.a(lib_a-reallocr.o)
 .debug_rnglists
                0x000007b1       0xdd /usr/lib/gcc/arm-none-eabi/12.2.1/../../../arm-none-eabi/lib/thumb/v7e-m+fp/hard/libg.a(lib_a-vfiprintf.o)
 .debug_rnglists
                0x0000088e       0x19 /usr/lib/gcc/arm-none-eabi/12.2.1/../../../arm-none-eabi/lib/thumb/v7e-m+fp/hard/libg.a(lib_a-wsetup.o)
 .debug_rnglists
                0x000008a7       0x1b /usr/lib/gcc/arm-none-eabi/12.2.1/../../../arm-none-eabi/lib/thumb/v7e-m+fp/hard/libg.a(lib_a-fclose.o)
 .debug_rnglists
                0x000008c2       0x31 /usr/lib/gcc/arm-none-eabi/12.2.1/../../../arm-none-eabi/lib/thumb/v7e-m+fp/hard/libg.a(lib_a-fputwc.o)
 .debug_rnglists
                0x000008f3       0x30 /usr/lib/gcc/arm-none-eabi/12.2.1/../../../arm-none-eabi/lib/thumb/v7e-m+fp/hard/libg.a(lib_a-fvwrite.o)
 .debug_rnglists
                0x00000923       0x36 /usr/lib/gcc/arm-none-eabi/12.2.1/../../../arm-none-eabi/lib/thumb/v7e-m+fp/hard/libg.a(lib_a-makebuf.o)
 .debug_rnglists
                0x00000959       0x65 /usr/lib/gcc/arm-none-eabi/12.2.1/../../../arm-none-eabi/lib/thumb/v7e-m+fp/hard/libg.a(lib_a-signal.o)
 .debug_rnglists
                0x000009be       0x18 /usr/lib/gcc/arm-none-eabi/12.2.1/../../../arm-none-eabi/lib/thumb/v7e-m+fp/hard/libg.a(lib_a-wbuf.o)
 .debug_rnglists
                0x000009d6       0x14 /usr/lib/gcc/arm-none-eabi/12.2.1/../../../arm-none-eabi/lib/thumb/v7e-m+fp/hard/libg.a(lib_a-wcrtomb.o)
 .debug_rnglists
                0x000009ea       0x89 /usr/lib/gcc/arm-none-eabi/12.2.1/thumb/v7e-m+fp/hard/libgcc.a(_udivmoddi4.o)

.debug_line_str
                0x00000000      0x176
 .debug_line_str
                0x00000000       0x9f /usr/lib/gcc/arm-none-eabi/12.2.1/../../../arm-none-eabi/lib/thumb/v7e-m+fp/hard/libg.a(lib_a-memcpy.o)
 .debug_line_str
                0x0000009f        0xf /usr/lib/gcc/arm-none-eabi/12.2.1/../../../arm-none-eabi/lib/thumb/v7e-m+fp/hard/libg.a(lib_a-strlen.o)
                                 0x9e (size before relaxing)
 .debug_line_str
                0x000000ae        0x9 /usr/lib/gcc/arm-none-eabi/12.2.1/../../../arm-none-eabi/lib/thumb/v7e-m+fp/hard/libg.a(lib_a-memchr.o)
                                 0x98 (size before relaxing)
 .debug_line_str
                0x000000b7        0xf /usr/lib/gcc/arm-none-eabi/12.2.1/../../../arm-none-eabi/lib/thumb/v7e-m+fp/hard/libg.a(lib_a-strcmp.o)
                                 0x9e (size before relaxing)
 .debug_line_str
                0x000000c6       0x9c /usr/lib/gcc/arm-none-eabi/12.2.1/thumb/v7e-m+fp/hard/libgcc.a(_arm_muldf3.o)
 .debug_line_str
                0x00000162       0x9c /usr/lib/gcc/arm-none-eabi/12.2.1/thumb/v7e-m+fp/hard/libgcc.a(_arm_addsubdf3.o)
 .debug_line_str
                0x00000162       0x9c /usr/lib/gcc/arm-none-eabi/12.2.1/thumb/v7e-m+fp/hard/libgcc.a(_arm_muldivdf3.o)
 .debug_line_str
                0x00000162       0x9c /usr/lib/gcc/arm-none-eabi/12.2.1/thumb/v7e-m+fp/hard/libgcc.a(_arm_cmpdf2.o)
 .debug_line_str
                0x00000162       0x9c /usr/lib/gcc/arm-none-eabi/12.2.1/thumb/v7e-m+fp/hard/libgcc.a(_arm_unorddf2.o)
 .debug_line_str
                0x00000162       0x9c /usr/lib/gcc/arm-none-eabi/12.2.1/thumb/v7e-m+fp/hard/libgcc.a(_arm_fixdfsi.o)
 .debug_line_str
                0x00000162       0x9c /usr/lib/gcc/arm-none-eabi/12.2.1/thumb/v7e-m+fp/hard/libgcc.a(_arm_fixunsdfsi.o)
 .debug_line_str
                0x00000162       0x9c /usr/lib/gcc/arm-none-eabi/12.2.1/thumb/v7e-m+fp/hard/libgcc.a(_arm_truncdfsf2.o)
 .debug_line_str
                0x00000162        0x8 /usr/lib/gcc/arm-none-eabi/12.2.1/thumb/v7e-m+fp/hard/libgcc.a(_aeabi_uldivmod.o)
                                 0x97 (size before relaxing)
 .debug_line_str
                0x0000016a        0xc /usr/lib/gcc/arm-none-eabi/12.2.1/thumb/v7e-m+fp/hard/libgcc.a(_dvmd_tls.o)
                                 0x9b (size before relaxing)

.stab           0x00000000       0xcc
 .stab          0x00000000       0x24 /usr/lib/gcc/arm-none-eabi/12.2.1/../../../arm-none-eabi/lib/thumb/v7e-m+fp/hard/libnosys.a(close.o)
 .stab          0x00000024       0x18 /usr/lib/gcc/arm-none-eabi/12.2.1/../../../arm-none-eabi/lib/thumb/v7e-m+fp/hard/libnosys.a(fstat.o)
                                 0x24 (size before relaxing)
 .stab          0x0000003c       0x18 /usr/lib/gcc/arm-none-eabi/12.2.1/../../../arm-none-eabi/lib/thumb/v7e-m+fp/hard/libnosys.a(getpid.o)
                                 0x24 (size before relaxing)
 .stab          0x00000054       0x18 /usr/lib/gcc/arm-none-eabi/12.2.1/../../../arm-none-eabi/lib/thumb/v7e-m+fp/hard/libnosys.a(isatty.o)
                                 0x24 (size before relaxing)
 .stab          0x0000006c       0x18 /usr/lib/gcc/arm-none-eabi/12.2.1/../../../arm-none-eabi/lib/thumb/v7e-m+fp/hard/libnosys.a(kill.o)
                                 0x24 (size before relaxing)
 .stab          0x00000084       0x18 /usr/lib/gcc/arm-none-eabi/12.2.1/../../../arm-none-eabi/lib/thumb/v7e-m+fp/hard/libnosys.a(lseek.o)
                                 0x24 (size before relaxing)
 .stab          0x0000009c       0x18 /usr/lib/gcc/arm-none-eabi/12.2.1/../../../arm-none-eabi/lib/thumb/v7e-m+fp/hard/libnosys.a(read.o)
                                 0x24 (size before relaxing)
 .stab          0x000000b4       0x18 /usr/lib/gcc/arm-none-eabi/12.2.1/../../../arm-none-eabi/lib/thumb/v7e-m+fp/hard/libnosys.a(write.o)
                                 0x24 (size before relaxing)

.stabstr        0x00000000      0x1b9
 .stabstr       0x00000000      0x1b9 /usr/lib/gcc/arm-none-eabi/12.2.1/../../../arm-none-eabi/lib/thumb/v7e-m+fp/hard/libnosys.a(close.o)
